 srcaciccli

 Timestamp is 4c000b24 (Fri May 28 15:27:48 2010)

 Preferred load address is 00400000

 Start         Length     Name                   Class
 0001:00000000 0008f822H .textbss                DATA
 0002:00000000 0012083fH .text                   CODE
 0002:00120840 000069b0H .text$x                 CODE
 0002:001271f0 00001822H .text$yc                CODE
 0002:00128a20 0000118dH .text$yd                CODE
 0003:00000000 00000104H .CRT$XCA                DATA
 0003:00000104 0000010eH .CRT$XCC                DATA
 0003:00000214 0000020cH .CRT$XCU                DATA
 0003:00000420 00000104H .CRT$XCZ                DATA
 0003:00000524 00000104H .CRT$XIA                DATA
 0003:00000628 00000118H .CRT$XIC                DATA
 0003:00000740 00000104H .CRT$XID                DATA
 0003:00000844 00000104H .CRT$XIY                DATA
 0003:00000948 00000104H .CRT$XIZ                DATA
 0003:00000a4c 00000104H .CRT$XPA                DATA
 0003:00000b50 00000109H .CRT$XPX                DATA
 0003:00000c5c 00000104H .CRT$XPXA               DATA
 0003:00000d60 00000104H .CRT$XPZ                DATA
 0003:00000e64 00000104H .CRT$XTA                DATA
 0003:00000f68 00000104H .CRT$XTZ                DATA
 0003:00001070 0002805cH .rdata                  DATA
 0003:000290cc 00000166H .rdata$debug            DATA
 0003:00029234 000017c9H .rdata$r                DATA
 0003:0002aa00 00000104H .rtc$IAA                DATA
 0003:0002ab04 000001b1H .rtc$IMZ                DATA
 0003:0002acb8 00000104H .rtc$IZZ                DATA
 0003:0002adbc 00000104H .rtc$TAA                DATA
 0003:0002aec0 000001b1H .rtc$TMZ                DATA
 0003:0002b074 00000104H .rtc$TZZ                DATA
 0003:0002b178 0000694fH .xdata$x                DATA
 0003:00031ac7 00000000H .edata                  DATA
 0004:00000000 000033e6H .data                   DATA
 0004:00003400 00007704H .bss                    DATA
 0005:00000000 000000dcH .idata$2                DATA
 0005:000000dc 00000014H .idata$3                DATA
 0005:000000f0 000008a0H .idata$4                DATA
 0005:00000990 000008a0H .idata$5                DATA
 0005:00001230 00001b2fH .idata$6                DATA
 0006:00000000 00001450H .rsrc$01                DATA
 0006:00001450 0002e76cH .rsrc$02                DATA

  Address         Publics by Value              Rva+Base       Lib:Object

 0000:00000000       ___safe_se_handler_table   00000000     <absolute>
 0000:00000000       __except_list              00000000     <absolute>
 0000:00000000       ___safe_se_handler_count   00000000     <absolute>
 0000:00000000       ___ImageBase               00400000     <linker-defined>
 0001:00000000       __enc$textbss$begin        00401000     <linker-defined>
 0001:0008f822       __enc$textbss$end          00490822     <linker-defined>
 0002:000077a0       ?DoGetBkGndBitmap@@YAPAUHBITMAP__@@I@Z 004987a0 f   AboutBox.obj
 0002:00007800       ?DoSDKEraseBkGnd@@YAHQAUHDC__@@K@Z 00498800 f   AboutBox.obj
 0002:00007950       ?ShowAboutBox@@YAXXZ       00498950 f   AboutBox.obj
 0002:00007ab0       ??0AccelKeys@@QAE@XZ       00498ab0 f   AccelKeys.obj
 0002:00007d30       ?TranslateAccelKeys@AccelKeys@@QAE_NPAUtagMSG@@@Z 00498d30 f   AccelKeys.obj
 0002:00007d70       ??1AccelKeys@@UAE@XZ       00498d70 f   AccelKeys.obj
 0002:00007e50       ??_GAccelKeys@@UAEPAXI@Z   00498e50 f i AccelKeys.obj
 0002:00007e50       ??_EAccelKeys@@UAEPAXI@Z   00498e50 f i AccelKeys.obj
 0002:00007e90       ??0AuthDialog@@QAE@XZ      00498e90 f   AuthDialog.obj
 0002:00007f00       ??1AuthDialog@@UAE@XZ      00498f00 f   AuthDialog.obj
 0002:00007f20       ?DoDialog@AuthDialog@@QAEHXZ 00498f20 f   AuthDialog.obj
 0002:00007f50       ?DlgProc@AuthDialog@@SGHPAUHWND__@@IIJ@Z 00498f50 f   AuthDialog.obj
 0002:00008520       ??_EAuthDialog@@UAEPAXI@Z  00499520 f i AuthDialog.obj
 0002:00008520       ??_GAuthDialog@@UAEPAXI@Z  00499520 f i AuthDialog.obj
 0002:00008560       ??_D?$basic_stringstream@DU?$char_traits@D@std@@V?$allocator@D@2@@std@@QAEXXZ 00499560 f i AuthDialog.obj
 0002:00008590       ??1?$basic_string@DU?$char_traits@D@std@@V?$allocator@D@2@@std@@QAE@XZ 00499590 f i AuthDialog.obj
 0002:00008600       ?data@?$basic_string@DU?$char_traits@D@std@@V?$allocator@D@2@@std@@QBEPBDXZ 00499600 f i AuthDialog.obj
 0002:00008620       ?c_str@?$basic_string@DU?$char_traits@D@std@@V?$allocator@D@2@@std@@QBEPBDXZ 00499620 f i AuthDialog.obj
 0002:00008640       ?allocate@?$_DebugHeapAllocator@D@std@@QAAPADIPBX@Z 00499640 f i AuthDialog.obj
 0002:000086c0       ??0bad_alloc@std@@QAE@PBD@Z 004996c0 f i AuthDialog.obj
 0002:000086f0       ??1bad_alloc@std@@UAE@XZ   004996f0 f i AuthDialog.obj
 0002:00008720       ??_Ebad_alloc@std@@UAEPAXI@Z 00499720 f i AuthDialog.obj
 0002:00008720       ??_Gbad_alloc@std@@UAEPAXI@Z 00499720 f i AuthDialog.obj
 0002:00008760       ?allocate@?$_DebugHeapAllocator@D@std@@QAEPADI@Z 00499760 f i AuthDialog.obj
 0002:000087e0       ?deallocate@?$_DebugHeapAllocator@D@std@@QAEXPADI@Z 004997e0 f i AuthDialog.obj
 0002:00008800       ??6?$basic_ostream@DU?$char_traits@D@std@@@std@@QAEAAV01@H@Z 00499800 f i AuthDialog.obj
 0002:00008a50       ??1locale@std@@QAE@XZ      00499a50 f i AuthDialog.obj
 0002:00008a80       ?_Decref@facet@locale@std@@QAEPAV123@XZ 00499a80 f i AuthDialog.obj
 0002:00008af0       ?flags@ios_base@std@@QBEHXZ 00499af0 f i AuthDialog.obj
 0002:00008b10       ?getloc@ios_base@std@@QBE?AVlocale@2@XZ 00499b10 f i AuthDialog.obj
 0002:00008b50       ??0locale@std@@QAE@ABV01@@Z 00499b50 f i AuthDialog.obj
 0002:00008b80       ?_Incref@facet@locale@std@@QAEXXZ 00499b80 f i AuthDialog.obj
 0002:00008bd0       ??1?$basic_ios@DU?$char_traits@D@std@@@std@@UAE@XZ 00499bd0 f i AuthDialog.obj
 0002:00008c00       ??1ios_base@std@@UAE@XZ    00499c00 f i AuthDialog.obj
 0002:00008c30       ??_Gios_base@std@@UAEPAXI@Z 00499c30 f i AuthDialog.obj
 0002:00008c30       ??_Eios_base@std@@UAEPAXI@Z 00499c30 f i AuthDialog.obj
 0002:00008c70       ?setstate@?$basic_ios@DU?$char_traits@D@std@@@std@@QAEXH_N@Z 00499c70 f i AuthDialog.obj
 0002:00008cb0       ?rdstate@ios_base@std@@QBEHXZ 00499cb0 f i AuthDialog.obj
 0002:00008cd0       ?rdbuf@?$basic_ios@DU?$char_traits@D@std@@@std@@QBEPAV?$basic_streambuf@DU?$char_traits@D@std@@@2@XZ 00499cd0 f i AuthDialog.obj
 0002:00008cf0       ??0?$basic_stringstream@DU?$char_traits@D@std@@V?$allocator@D@2@@std@@QAE@H@Z 00499cf0 f i AuthDialog.obj
 0002:00008de0       ??1?$basic_stringstream@DU?$char_traits@D@std@@V?$allocator@D@2@@std@@UAE@XZ 00499de0 f i AuthDialog.obj
 0002:00008e70       ?str@?$basic_stringstream@DU?$char_traits@D@std@@V?$allocator@D@2@@std@@QBE?AV?$basic_string@DU?$char_traits@D@std@@V?$allocator@D@2@@2@XZ 00499e70 f i AuthDialog.obj
 0002:00008eb0       ??1?$basic_iostream@DU?$char_traits@D@std@@@std@@UAE@XZ 00499eb0 f i AuthDialog.obj
 0002:00008f40       ??1?$basic_ostream@DU?$char_traits@D@std@@@std@@UAE@XZ 00499f40 f i AuthDialog.obj
 0002:00008f70       ??1?$basic_istream@DU?$char_traits@D@std@@@std@@UAE@XZ 00499f70 f i AuthDialog.obj
 0002:00008fa0       ??1?$basic_stringbuf@DU?$char_traits@D@std@@V?$allocator@D@2@@std@@UAE@XZ 00499fa0 f i AuthDialog.obj
 0002:00009020       ??1?$basic_streambuf@DU?$char_traits@D@std@@@std@@UAE@XZ 0049a020 f i AuthDialog.obj
 0002:000090a0       ?overflow@?$basic_streambuf@DU?$char_traits@D@std@@@std@@MAEHH@Z 0049a0a0 f i AuthDialog.obj
 0002:000090c0       ?eof@?$char_traits@D@std@@SAHXZ 0049a0c0 f i AuthDialog.obj
 0002:000090d0       ?pbackfail@?$basic_streambuf@DU?$char_traits@D@std@@@std@@MAEHH@Z 0049a0d0 f i AuthDialog.obj
 0002:000090f0       ?showmanyc@?$basic_streambuf@DU?$char_traits@D@std@@@std@@MAEHXZ 0049a0f0 f i AuthDialog.obj
 0002:00009100       ?underflow@?$basic_streambuf@DU?$char_traits@D@std@@@std@@MAEHXZ 0049a100 f i AuthDialog.obj
 0002:00009120       ?uflow@?$basic_streambuf@DU?$char_traits@D@std@@@std@@MAEHXZ 0049a120 f i AuthDialog.obj
 0002:000091a0       ?to_int_type@?$char_traits@D@std@@SAHABD@Z 0049a1a0 f i AuthDialog.obj
 0002:000091b0       ?eq_int_type@?$char_traits@D@std@@SA_NABH0@Z 0049a1b0 f i AuthDialog.obj
 0002:000091d0       ?xsgetn@?$basic_streambuf@DU?$char_traits@D@std@@@std@@MAEHPADH@Z 0049a1d0 f i AuthDialog.obj
 0002:00009200       ?_Xsgetn_s@?$basic_streambuf@DU?$char_traits@D@std@@@std@@MAEHPADIH@Z 0049a200 f i AuthDialog.obj
 0002:00009330       ?to_char_type@?$char_traits@D@std@@SADABH@Z 0049a330 f i AuthDialog.obj
 0002:00009340       ?xsputn@?$basic_streambuf@DU?$char_traits@D@std@@@std@@MAEHPBDH@Z 0049a340 f i AuthDialog.obj
 0002:00009470       ?seekoff@?$basic_streambuf@DU?$char_traits@D@std@@@std@@MAE?AV?$fpos@H@2@JHH@Z 0049a470 f i AuthDialog.obj
 0002:000094a0       ?seekpos@?$basic_streambuf@DU?$char_traits@D@std@@@std@@MAE?AV?$fpos@H@2@V32@H@Z 0049a4a0 f i AuthDialog.obj
 0002:000094d0       ?setbuf@?$basic_streambuf@DU?$char_traits@D@std@@@std@@MAEPAV12@PADH@Z 0049a4d0 f i AuthDialog.obj
 0002:000094f0       ?sync@?$basic_streambuf@DU?$char_traits@D@std@@@std@@MAEHXZ 0049a4f0 f i AuthDialog.obj
 0002:00009500       ?imbue@?$basic_streambuf@DU?$char_traits@D@std@@@std@@MAEXABVlocale@2@@Z 0049a500 f i AuthDialog.obj
 0002:00009510       ?overflow@?$basic_stringbuf@DU?$char_traits@D@std@@V?$allocator@D@2@@std@@MAEHH@Z 0049a510 f i AuthDialog.obj
 0002:000098b0       ?not_eof@?$char_traits@D@std@@SAHABH@Z 0049a8b0 f i AuthDialog.obj
 0002:000098f0       ?pbackfail@?$basic_stringbuf@DU?$char_traits@D@std@@V?$allocator@D@2@@std@@MAEHH@Z 0049a8f0 f i AuthDialog.obj
 0002:00009a10       ?eq@?$char_traits@D@std@@SA_NABD0@Z 0049aa10 f i AuthDialog.obj
 0002:00009a30       ?underflow@?$basic_stringbuf@DU?$char_traits@D@std@@V?$allocator@D@2@@std@@MAEHXZ 0049aa30 f i AuthDialog.obj
 0002:00009b60       ?seekoff@?$basic_stringbuf@DU?$char_traits@D@std@@V?$allocator@D@2@@std@@MAE?AV?$fpos@H@2@JHH@Z 0049ab60 f i AuthDialog.obj
 0002:00009de0       ?seekpos@?$basic_stringbuf@DU?$char_traits@D@std@@V?$allocator@D@2@@std@@MAE?AV?$fpos@H@2@V32@H@Z 0049ade0 f i AuthDialog.obj
 0002:00009fa0       ??1?$_String_val@DV?$allocator@D@std@@@std@@QAE@XZ 0049afa0 f i AuthDialog.obj
 0002:00009fc0       ??0bad_alloc@std@@QAE@ABV01@@Z 0049afc0 f i AuthDialog.obj
 0002:00009ff0       ??0?$_DebugHeapAllocator@D@std@@QAE@XZ 0049aff0 f i AuthDialog.obj
 0002:0000a010       ??_E?$basic_ostream@DU?$char_traits@D@std@@@std@@UAEPAXI@Z 0049b010 f i AuthDialog.obj
 0002:0000a010       ??_G?$basic_ostream@DU?$char_traits@D@std@@@std@@UAEPAXI@Z 0049b010 f i AuthDialog.obj
 0002:0000a060       ??_E?$basic_ios@DU?$char_traits@D@std@@@std@@UAEPAXI@Z 0049b060 f i AuthDialog.obj
 0002:0000a060       ??_G?$basic_ios@DU?$char_traits@D@std@@@std@@UAEPAXI@Z 0049b060 f i AuthDialog.obj
 0002:0000a0a0       ??_G?$basic_istream@DU?$char_traits@D@std@@@std@@UAEPAXI@Z 0049b0a0 f i AuthDialog.obj
 0002:0000a0a0       ??_E?$basic_istream@DU?$char_traits@D@std@@@std@@UAEPAXI@Z 0049b0a0 f i AuthDialog.obj
 0002:0000a0f0       ??_G?$basic_streambuf@DU?$char_traits@D@std@@@std@@UAEPAXI@Z 0049b0f0 f i AuthDialog.obj
 0002:0000a0f0       ??_E?$basic_streambuf@DU?$char_traits@D@std@@@std@@UAEPAXI@Z 0049b0f0 f i AuthDialog.obj
 0002:0000a130       ??_E?$basic_stringstream@DU?$char_traits@D@std@@V?$allocator@D@2@@std@@UAEPAXI@Z 0049b130 f i AuthDialog.obj
 0002:0000a130       ??_G?$basic_stringstream@DU?$char_traits@D@std@@V?$allocator@D@2@@std@@UAEPAXI@Z 0049b130 f i AuthDialog.obj
 0002:0000a180       ??_G?$basic_iostream@DU?$char_traits@D@std@@@std@@UAEPAXI@Z 0049b180 f i AuthDialog.obj
 0002:0000a180       ??_E?$basic_iostream@DU?$char_traits@D@std@@@std@@UAEPAXI@Z 0049b180 f i AuthDialog.obj
 0002:0000a1d0       ??_G?$basic_stringbuf@DU?$char_traits@D@std@@V?$allocator@D@2@@std@@UAEPAXI@Z 0049b1d0 f i AuthDialog.obj
 0002:0000a1d0       ??_E?$basic_stringbuf@DU?$char_traits@D@std@@V?$allocator@D@2@@std@@UAEPAXI@Z 0049b1d0 f i AuthDialog.obj
 0002:0000a210       ??1_String_base@std@@QAE@XZ 0049b210 f i AuthDialog.obj
 0002:0000a230       ??1_Container_base_secure@std@@QAE@XZ 0049b230 f i AuthDialog.obj
 0002:0000a250       ?_Orphan_all@_Container_base_secure@std@@QBEXXZ 0049b250 f i AuthDialog.obj
 0002:0000a2c0       ??_D?$basic_ostream@DU?$char_traits@D@std@@@std@@QAEXXZ 0049b2c0 f i AuthDialog.obj
 0002:0000a2f0       ??_D?$basic_istream@DU?$char_traits@D@std@@@std@@QAEXXZ 0049b2f0 f i AuthDialog.obj
 0002:0000a320       ??_D?$basic_iostream@DU?$char_traits@D@std@@@std@@QAEXXZ 0049b320 f i AuthDialog.obj
 0002:0000a350       ?_Tidy@?$basic_string@DU?$char_traits@D@std@@V?$allocator@D@2@@std@@IAEX_NI@Z 0049b350 f i AuthDialog.obj
 0002:0000a3f0       ?_Myptr@?$basic_string@DU?$char_traits@D@std@@V?$allocator@D@2@@std@@IBEPBDXZ 0049b3f0 f i AuthDialog.obj
 0002:0000a430       ??0?$allocator@D@std@@QAE@XZ 0049b430 f i AuthDialog.obj
 0002:0000a450       ?deallocate@?$allocator@D@std@@QAEXPADI@Z 0049b450 f i AuthDialog.obj
 0002:0000a470       ?allocate@?$allocator@D@std@@QAEPADI@Z 0049b470 f i AuthDialog.obj
 0002:0000a4a0       ?clear@?$basic_ios@DU?$char_traits@D@std@@@std@@QAEXH_N@Z 0049b4a0 f i AuthDialog.obj
 0002:0000a4f0       ?clear@ios_base@std@@QAEXH_N@Z 0049b4f0 f i AuthDialog.obj
 0002:0000a6e0       ??0runtime_error@std@@QAE@ABV01@@Z 0049b6e0 f i AuthDialog.obj
 0002:0000a770       ?what@runtime_error@std@@UBEPBDXZ 0049b770 f i AuthDialog.obj
 0002:0000a790       ??_Gruntime_error@std@@UAEPAXI@Z 0049b790 f i AuthDialog.obj
 0002:0000a790       ??_Eruntime_error@std@@UAEPAXI@Z 0049b790 f i AuthDialog.obj
 0002:0000a7d0       ??1runtime_error@std@@UAE@XZ 0049b7d0 f i AuthDialog.obj
 0002:0000a800       ??0failure@ios_base@std@@QAE@ABV?$basic_string@DU?$char_traits@D@std@@V?$allocator@D@2@@2@@Z 0049b800 f i AuthDialog.obj
 0002:0000a830       ??0runtime_error@std@@QAE@ABV?$basic_string@DU?$char_traits@D@std@@V?$allocator@D@2@@1@@Z 0049b830 f i AuthDialog.obj
 0002:0000a8c0       ??1failure@ios_base@std@@UAE@XZ 0049b8c0 f i AuthDialog.obj
 0002:0000a8f0       ??_Gfailure@ios_base@std@@UAEPAXI@Z 0049b8f0 f i AuthDialog.obj
 0002:0000a8f0       ??_Efailure@ios_base@std@@UAEPAXI@Z 0049b8f0 f i AuthDialog.obj
 0002:0000a930       ??0failure@ios_base@std@@QAE@ABV012@@Z 0049b930 f i AuthDialog.obj
 0002:0000a960       ??0?$basic_string@DU?$char_traits@D@std@@V?$allocator@D@2@@std@@QAE@PBD@Z 0049b960 f i AuthDialog.obj
 0002:0000aa00       ??0?$basic_string@DU?$char_traits@D@std@@V?$allocator@D@2@@std@@QAE@ABV01@@Z 0049ba00 f i AuthDialog.obj
 0002:0000aaa0       ?assign@?$basic_string@DU?$char_traits@D@std@@V?$allocator@D@2@@std@@QAEAAV12@ABV12@II@Z 0049baa0 f i AuthDialog.obj
 0002:0000ab90       ?size@?$basic_string@DU?$char_traits@D@std@@V?$allocator@D@2@@std@@QBEIXZ 0049bb90 f i AuthDialog.obj
 0002:0000abb0       ?assign@?$basic_string@DU?$char_traits@D@std@@V?$allocator@D@2@@std@@QAEAAV12@PBD@Z 0049bbb0 f i AuthDialog.obj
 0002:0000ac00       ?length@?$char_traits@D@std@@SAIPBD@Z 0049bc00 f i AuthDialog.obj
 0002:0000ac20       ??0?$_String_val@DV?$allocator@D@std@@@std@@IAE@V?$allocator@D@1@@Z 0049bc20 f i AuthDialog.obj
 0002:0000ac50       ??0?$_String_val@DV?$allocator@D@std@@@std@@QAE@ABV01@@Z 0049bc50 f i AuthDialog.obj
 0002:0000aca0       ?fill@?$basic_ios@DU?$char_traits@D@std@@@std@@QBEDXZ 0049bca0 f i AuthDialog.obj
 0002:0000acc0       ??0?$basic_ios@DU?$char_traits@D@std@@@std@@IAE@XZ 0049bcc0 f i AuthDialog.obj
 0002:0000acf0       ??0ios_base@std@@IAE@XZ    0049bcf0 f i AuthDialog.obj
 0002:0000ad10       ?eback@?$basic_streambuf@DU?$char_traits@D@std@@@std@@IBEPADXZ 0049bd10 f i AuthDialog.obj
 0002:0000ad30       ?gptr@?$basic_streambuf@DU?$char_traits@D@std@@@std@@IBEPADXZ 0049bd30 f i AuthDialog.obj
 0002:0000ad50       ?pbase@?$basic_streambuf@DU?$char_traits@D@std@@@std@@IBEPADXZ 0049bd50 f i AuthDialog.obj
 0002:0000ad70       ?pptr@?$basic_streambuf@DU?$char_traits@D@std@@@std@@IBEPADXZ 0049bd70 f i AuthDialog.obj
 0002:0000ad90       ?egptr@?$basic_streambuf@DU?$char_traits@D@std@@@std@@IBEPADXZ 0049bd90 f i AuthDialog.obj
 0002:0000adc0       ?gbump@?$basic_streambuf@DU?$char_traits@D@std@@@std@@IAEXH@Z 0049bdc0 f i AuthDialog.obj
 0002:0000ae00       ?setg@?$basic_streambuf@DU?$char_traits@D@std@@@std@@IAEXPAD00@Z 0049be00 f i AuthDialog.obj
 0002:0000ae40       ?epptr@?$basic_streambuf@DU?$char_traits@D@std@@@std@@IBEPADXZ 0049be40 f i AuthDialog.obj
 0002:0000ae70       ?_Gninc@?$basic_streambuf@DU?$char_traits@D@std@@@std@@IAEPADXZ 0049be70 f i AuthDialog.obj
 0002:0000aed0       ?_Gnavail@?$basic_streambuf@DU?$char_traits@D@std@@@std@@IBEHXZ 0049bed0 f i AuthDialog.obj
 0002:0000af10       ?pbump@?$basic_streambuf@DU?$char_traits@D@std@@@std@@IAEXH@Z 0049bf10 f i AuthDialog.obj
 0002:0000af50       ?setp@?$basic_streambuf@DU?$char_traits@D@std@@@std@@IAEXPAD0@Z 0049bf50 f i AuthDialog.obj
 0002:0000af90       ?setp@?$basic_streambuf@DU?$char_traits@D@std@@@std@@IAEXPAD00@Z 0049bf90 f i AuthDialog.obj
 0002:0000afd0       ?_Pninc@?$basic_streambuf@DU?$char_traits@D@std@@@std@@IAEPADXZ 0049bfd0 f i AuthDialog.obj
 0002:0000b030       ?_Pnavail@?$basic_streambuf@DU?$char_traits@D@std@@@std@@IBEHXZ 0049c030 f i AuthDialog.obj
 0002:0000b070       ??0?$basic_iostream@DU?$char_traits@D@std@@@std@@QAE@PAV?$basic_streambuf@DU?$char_traits@D@std@@@1@@Z 0049c070 f i AuthDialog.obj
 0002:0000b160       ??0?$basic_stringbuf@DU?$char_traits@D@std@@V?$allocator@D@2@@std@@QAE@H@Z 0049c160 f i AuthDialog.obj
 0002:0000b200       ?str@?$basic_stringbuf@DU?$char_traits@D@std@@V?$allocator@D@2@@std@@QBE?AV?$basic_string@DU?$char_traits@D@std@@V?$allocator@D@2@@2@XZ 0049c200 f i AuthDialog.obj
 0002:0000b3f0       ??0?$basic_string@DU?$char_traits@D@std@@V?$allocator@D@2@@std@@QAE@XZ 0049c3f0 f i AuthDialog.obj
 0002:0000b470       ?_Tidy@?$basic_stringbuf@DU?$char_traits@D@std@@V?$allocator@D@2@@std@@IAEXXZ 0049c470 f i AuthDialog.obj
 0002:0000b530       ??0sentry@?$basic_ostream@DU?$char_traits@D@std@@@std@@QAE@AAV12@@Z 0049c530 f i AuthDialog.obj
 0002:0000b610       ?good@ios_base@std@@QBE_NXZ 0049c610 f i AuthDialog.obj
 0002:0000b630       ?flush@?$basic_ostream@DU?$char_traits@D@std@@@std@@QAEAAV12@XZ 0049c630 f i AuthDialog.obj
 0002:0000b6c0       ?fail@ios_base@std@@QBE_NXZ 0049c6c0 f i AuthDialog.obj
 0002:0000b6f0       ?pubsync@?$basic_streambuf@DU?$char_traits@D@std@@@std@@QAEHXZ 0049c6f0 f i AuthDialog.obj
 0002:0000b710       ??1sentry@?$basic_ostream@DU?$char_traits@D@std@@@std@@QAE@XZ 0049c710 f i AuthDialog.obj
 0002:0000b790       ??Bsentry@?$basic_ostream@DU?$char_traits@D@std@@@std@@QBE_NXZ 0049c790 f i AuthDialog.obj
 0002:0000b7b0       ?put@?$num_put@DV?$ostreambuf_iterator@DU?$char_traits@D@std@@@std@@@std@@QBE?AV?$ostreambuf_iterator@DU?$char_traits@D@std@@@2@V32@AAVios_base@2@DJ@Z 0049c7b0 f i AuthDialog.obj
 0002:0000b800       ??0?$ostreambuf_iterator@DU?$char_traits@D@std@@@std@@QAE@PAV?$basic_streambuf@DU?$char_traits@D@std@@@1@@Z 0049c800 f i AuthDialog.obj
 0002:0000b830       ?failed@?$ostreambuf_iterator@DU?$char_traits@D@std@@@std@@QBE_NXZ 0049c830 f i AuthDialog.obj
 0002:0000b850       ??0?$fpos@H@std@@QAE@J@Z   0049c850 f i AuthDialog.obj
 0002:0000b8a0       ??B?$fpos@H@std@@QBEJXZ    0049c8a0 f i AuthDialog.obj
 0002:0000b8c0       ??0_String_base@std@@QAE@XZ 0049c8c0 f i AuthDialog.obj
 0002:0000b8e0       ??0_Container_base_secure@std@@QAE@XZ 0049c8e0 f i AuthDialog.obj
 0002:0000b900       ??0?$_DebugHeapAllocator@D@std@@QAE@ABV01@@Z 0049c900 f i AuthDialog.obj
 0002:0000b930       ??0?$basic_string@DU?$char_traits@D@std@@V?$allocator@D@2@@std@@QAE@PBDI@Z 0049c930 f i AuthDialog.obj
 0002:0000b9d0       ?assign@?$basic_string@DU?$char_traits@D@std@@V?$allocator@D@2@@std@@QAEAAV12@PBDI@Z 0049c9d0 f i AuthDialog.obj
 0002:0000baa0       ?erase@?$basic_string@DU?$char_traits@D@std@@V?$allocator@D@2@@std@@QAEAAV12@II@Z 0049caa0 f i AuthDialog.obj
 0002:0000bb60       ?_Eos@?$basic_string@DU?$char_traits@D@std@@V?$allocator@D@2@@std@@IAEXI@Z 0049cb60 f i AuthDialog.obj
 0002:0000bbb0       ?assign@?$char_traits@D@std@@SAXAADABD@Z 0049cbb0 f i AuthDialog.obj
 0002:0000bbd0       ?_Grow@?$basic_string@DU?$char_traits@D@std@@V?$allocator@D@2@@std@@IAE_NI_N@Z 0049cbd0 f i AuthDialog.obj
 0002:0000bc90       ?_Myptr@?$basic_string@DU?$char_traits@D@std@@V?$allocator@D@2@@std@@IAEPADXZ 0049cc90 f i AuthDialog.obj
 0002:0000bcd0       ??0?$allocator@D@std@@QAE@ABV01@@Z 0049ccd0 f i AuthDialog.obj
 0002:0000bcf0       ??0?$basic_ostream@DU?$char_traits@D@std@@@std@@QAE@W4_Uninitialized@1@_N@Z 0049ccf0 f i AuthDialog.obj
 0002:0000bde0       ?_Osfx@?$basic_ostream@DU?$char_traits@D@std@@@std@@QAEXXZ 0049cde0 f i AuthDialog.obj
 0002:0000be90       ?tie@?$basic_ios@DU?$char_traits@D@std@@@std@@QBEPAV?$basic_ostream@DU?$char_traits@D@std@@@2@XZ 0049ce90 f i AuthDialog.obj
 0002:0000beb0       ??0?$basic_istream@DU?$char_traits@D@std@@@std@@QAE@PAV?$basic_streambuf@DU?$char_traits@D@std@@@1@_N@Z 0049ceb0 f i AuthDialog.obj
 0002:0000bf90       ??0?$basic_streambuf@DU?$char_traits@D@std@@@std@@IAE@XZ 0049cf90 f i AuthDialog.obj
 0002:0000c060       ??0locale@std@@QAE@XZ      0049d060 f i AuthDialog.obj
 0002:0000c090       ?_Init@?$basic_stringbuf@DU?$char_traits@D@std@@V?$allocator@D@2@@std@@IAEXPBDIH@Z 0049d090 f i AuthDialog.obj
 0002:0000c1e0       ?_Getstate@?$basic_stringbuf@DU?$char_traits@D@std@@V?$allocator@D@2@@std@@AAEHH@Z 0049d1e0 f i AuthDialog.obj
 0002:0000c260       ??0_Sentry_base@?$basic_ostream@DU?$char_traits@D@std@@@std@@QAE@AAV12@@Z 0049d260 f i AuthDialog.obj
 0002:0000c2c0       ?_Lock@?$basic_streambuf@DU?$char_traits@D@std@@@std@@QAEXXZ 0049d2c0 f i AuthDialog.obj
 0002:0000c2e0       ??1_Sentry_base@?$basic_ostream@DU?$char_traits@D@std@@@std@@QAE@XZ 0049d2e0 f i AuthDialog.obj
 0002:0000c330       ?_Unlock@?$basic_streambuf@DU?$char_traits@D@std@@@std@@QAEXXZ 0049d330 f i AuthDialog.obj
 0002:0000c350       ?max_size@?$basic_string@DU?$char_traits@D@std@@V?$allocator@D@2@@std@@QBEIXZ 0049d350 f i AuthDialog.obj
 0002:0000c3a0       ?_Copy@?$basic_string@DU?$char_traits@D@std@@V?$allocator@D@2@@std@@IAEXII@Z 0049d3a0 f i AuthDialog.obj
 0002:0000c590       ?_Inside@?$basic_string@DU?$char_traits@D@std@@V?$allocator@D@2@@std@@IAE_NPBD@Z 0049d590 f i AuthDialog.obj
 0002:0000c5e0       ?init@?$basic_ios@DU?$char_traits@D@std@@@std@@IAEXPAV?$basic_streambuf@DU?$char_traits@D@std@@@2@_N@Z 0049d5e0 f i AuthDialog.obj
 0002:0000c670       ?_Init@ios_base@std@@IAEXXZ 0049d670 f i AuthDialog.obj
 0002:0000c740       ?clear@ios_base@std@@QAEXH@Z 0049d740 f i AuthDialog.obj
 0002:0000c770       ?_Init@?$basic_streambuf@DU?$char_traits@D@std@@@std@@IAEXXZ 0049d770 f i AuthDialog.obj
 0002:0000c800       ?max_size@?$allocator@D@std@@QBEIXZ 0049d800 f i AuthDialog.obj
 0002:0000c840       ?widen@?$basic_ios@DU?$char_traits@D@std@@@std@@QBEDD@Z 0049d840 f i AuthDialog.obj
 0002:0000c8e0       ?widen@?$ctype@D@std@@QBEDD@Z 0049d8e0 f i AuthDialog.obj
 0002:0000c910       ??$_Debug_pointer@D@std@@YAXPBDPB_WI@Z 0049d910 f i AuthDialog.obj
 0002:0000c940       ??$_DebugHeapDelete@Vfacet@locale@std@@@std@@YAXPAVfacet@locale@0@@Z 0049d940 f i AuthDialog.obj
 0002:0000c970       ??$use_facet@V?$ctype@D@std@@@std@@YAABV?$ctype@D@0@ABVlocale@0@@Z 0049d970 f i AuthDialog.obj
 0002:0000caa0       ??Bid@locale@std@@QAEIXZ   0049daa0 f i AuthDialog.obj
 0002:0000cb10       ?_Register@facet@locale@std@@QAEXXZ 0049db10 f i AuthDialog.obj
 0002:0000cb30       ?_Getfacet@locale@std@@QBEPBVfacet@12@I@Z 0049db30 f i AuthDialog.obj
 0002:0000cbe0       ?_Getcat@?$ctype@D@std@@SAIPAPBVfacet@locale@2@PBV42@@Z 0049dbe0 f i AuthDialog.obj
 0002:0000cdd0       ??0_Locinfo@std@@QAE@ABV?$basic_string@DU?$char_traits@D@std@@V?$allocator@D@2@@1@@Z 0049ddd0 f i AuthDialog.obj
 0002:0000cea0       ??1_Locinfo@std@@QAE@XZ    0049dea0 f i AuthDialog.obj
 0002:0000cf60       ??2facet@locale@std@@SAPAXIABU_DebugHeapTag_t@2@PADH@Z 0049df60 f i AuthDialog.obj
 0002:0000cf90       ??3facet@locale@std@@SAXPAXABU_DebugHeapTag_t@2@PADH@Z 0049df90 f i AuthDialog.obj
 0002:0000cfb0       ??3facet@locale@std@@SAXPAX@Z 0049dfb0 f i AuthDialog.obj
 0002:0000cfd0       ?name@locale@std@@QBE?AV?$basic_string@DU?$char_traits@D@std@@V?$allocator@D@2@@2@XZ 0049dfd0 f i AuthDialog.obj
 0002:0000d070       ??B_DebugHeapString@std@@QBE?AV?$basic_string@DU?$char_traits@D@std@@V?$allocator@D@2@@1@XZ 0049e070 f i AuthDialog.obj
 0002:0000d0b0       ??0?$ctype@D@std@@QAE@ABV_Locinfo@1@I@Z 0049e0b0 f i AuthDialog.obj
 0002:0000d140       ??0ctype_base@std@@QAE@I@Z 0049e140 f i AuthDialog.obj
 0002:0000d170       ??0facet@locale@std@@IAE@I@Z 0049e170 f i AuthDialog.obj
 0002:0000d1a0       ??_Efacet@locale@std@@UAEPAXI@Z 0049e1a0 f i AuthDialog.obj
 0002:0000d1a0       ??_Gfacet@locale@std@@UAEPAXI@Z 0049e1a0 f i AuthDialog.obj
 0002:0000d1e0       ??1facet@locale@std@@UAE@XZ 0049e1e0 f i AuthDialog.obj
 0002:0000d200       ??1ctype_base@std@@UAE@XZ  0049e200 f i AuthDialog.obj
 0002:0000d230       ??_Ectype_base@std@@UAEPAXI@Z 0049e230 f i AuthDialog.obj
 0002:0000d230       ??_Gctype_base@std@@UAEPAXI@Z 0049e230 f i AuthDialog.obj
 0002:0000d270       ?_Init@?$ctype@D@std@@IAEXABV_Locinfo@2@@Z 0049e270 f i AuthDialog.obj
 0002:0000d2c0       ?_Getctype@_Locinfo@std@@QBE?AU_Ctypevec@@XZ 0049e2c0 f i AuthDialog.obj
 0002:0000d330       ?do_tolower@?$ctype@D@std@@MBEDD@Z 0049e330 f i AuthDialog.obj
 0002:0000d360       ?do_tolower@?$ctype@D@std@@MBEPBDPADPBD@Z 0049e360 f i AuthDialog.obj
 0002:0000d3d0       ?do_toupper@?$ctype@D@std@@MBEDD@Z 0049e3d0 f i AuthDialog.obj
 0002:0000d400       ?do_toupper@?$ctype@D@std@@MBEPBDPADPBD@Z 0049e400 f i AuthDialog.obj
 0002:0000d470       ?do_widen@?$ctype@D@std@@MBEDD@Z 0049e470 f i AuthDialog.obj
 0002:0000d490       ?do_widen@?$ctype@D@std@@MBEPBDPBD0PAD@Z 0049e490 f i AuthDialog.obj
 0002:0000d4d0       ?_Do_widen_s@?$ctype@D@std@@MBEPBDPBD0PADI@Z 0049e4d0 f i AuthDialog.obj
 0002:0000d5b0       ?do_narrow@?$ctype@D@std@@MBEDDD@Z 0049e5b0 f i AuthDialog.obj
 0002:0000d5d0       ?do_narrow@?$ctype@D@std@@MBEPBDPBD0DPAD@Z 0049e5d0 f i AuthDialog.obj
 0002:0000d610       ?_Do_narrow_s@?$ctype@D@std@@MBEPBDPBD0DPADI@Z 0049e610 f i AuthDialog.obj
 0002:0000d6f0       ??_G?$ctype@D@std@@MAEPAXI@Z 0049e6f0 f i AuthDialog.obj
 0002:0000d6f0       ??_E?$ctype@D@std@@MAEPAXI@Z 0049e6f0 f i AuthDialog.obj
 0002:0000d730       ??1?$ctype@D@std@@MAE@XZ   0049e730 f i AuthDialog.obj
 0002:0000d7b0       ?_Tidy@?$ctype@D@std@@IAEXXZ 0049e7b0 f i AuthDialog.obj
 0002:0000d810       ?c_str@?$basic_string@DU?$char_traits@D@std@@V?$_DebugHeapAllocator@D@2@@std@@QBEPBDXZ 0049e810 f i AuthDialog.obj
 0002:0000d830       ?_Myptr@?$basic_string@DU?$char_traits@D@std@@V?$_DebugHeapAllocator@D@2@@std@@IBEPBDXZ 0049e830 f i AuthDialog.obj
 0002:0000d870       ??$_Debug_range@PBD@std@@YAXPBD0PB_WI@Z 0049e870 f i AuthDialog.obj
 0002:0000d8c0       ??$_Debug_pointer@D@std@@YAXPADPB_WI@Z 0049e8c0 f i AuthDialog.obj
 0002:0000d8f0       ??$_DebugHeapDelete@X@std@@YAXPAX@Z 0049e8f0 f i AuthDialog.obj
 0002:0000d910       ??$use_facet@V?$num_put@DV?$ostreambuf_iterator@DU?$char_traits@D@std@@@std@@@std@@@std@@YAABV?$num_put@DV?$ostreambuf_iterator@DU?$char_traits@D@std@@@std@@@0@ABVlocale@0@@Z 0049e910 f i AuthDialog.obj
 0002:0000da40       ??$_DebugHeapDelete@Vlocale@std@@@std@@YAXPAVlocale@0@@Z 0049ea40 f i AuthDialog.obj
 0002:0000da70       ??$copy_s@U?$char_traits@D@std@@@_Traits_helper@std@@YAPADPADIPBDI@Z 0049ea70 f i AuthDialog.obj
 0002:0000dab0       ??$_Allocate@D@std@@YAPADIPAD@Z 0049eab0 f i AuthDialog.obj
 0002:0000db10       ??$move_s@U?$char_traits@D@std@@@_Traits_helper@std@@YAPADPADIPBDI@Z 0049eb10 f i AuthDialog.obj
 0002:0000db50       ??_Glocale@std@@QAEPAXI@Z  0049eb50 f i AuthDialog.obj
 0002:0000db90       ?_Getcat@?$num_put@DV?$ostreambuf_iterator@DU?$char_traits@D@std@@@std@@@std@@SAIPAPBVfacet@locale@2@PBV42@@Z 0049eb90 f i AuthDialog.obj
 0002:0000dd80       ??0?$num_put@DV?$ostreambuf_iterator@DU?$char_traits@D@std@@@std@@@std@@QAE@ABV_Locinfo@1@I@Z 0049ed80 f i AuthDialog.obj
 0002:0000de10       ?do_put@?$num_put@DV?$ostreambuf_iterator@DU?$char_traits@D@std@@@std@@@std@@MBE?AV?$ostreambuf_iterator@DU?$char_traits@D@std@@@2@V32@AAVios_base@2@D_N@Z 0049ee10 f i AuthDialog.obj
 0002:0000e160       ?width@ios_base@std@@QBEHXZ 0049f160 f i AuthDialog.obj
 0002:0000e180       ?width@ios_base@std@@QAEHH@Z 0049f180 f i AuthDialog.obj
 0002:0000e1b0       ?do_put@?$num_put@DV?$ostreambuf_iterator@DU?$char_traits@D@std@@@std@@@std@@MBE?AV?$ostreambuf_iterator@DU?$char_traits@D@std@@@2@V32@AAVios_base@2@DJ@Z 0049f1b0 f i AuthDialog.obj
 0002:0000e260       ?do_put@?$num_put@DV?$ostreambuf_iterator@DU?$char_traits@D@std@@@std@@@std@@MBE?AV?$ostreambuf_iterator@DU?$char_traits@D@std@@@2@V32@AAVios_base@2@DK@Z 0049f260 f i AuthDialog.obj
 0002:0000e310       ?do_put@?$num_put@DV?$ostreambuf_iterator@DU?$char_traits@D@std@@@std@@@std@@MBE?AV?$ostreambuf_iterator@DU?$char_traits@D@std@@@2@V32@AAVios_base@2@D_J@Z 0049f310 f i AuthDialog.obj
 0002:0000e3c0       ?do_put@?$num_put@DV?$ostreambuf_iterator@DU?$char_traits@D@std@@@std@@@std@@MBE?AV?$ostreambuf_iterator@DU?$char_traits@D@std@@@2@V32@AAVios_base@2@D_K@Z 0049f3c0 f i AuthDialog.obj
 0002:0000e470       ?do_put@?$num_put@DV?$ostreambuf_iterator@DU?$char_traits@D@std@@@std@@@std@@MBE?AV?$ostreambuf_iterator@DU?$char_traits@D@std@@@2@V32@AAVios_base@2@DN@Z 0049f470 f i AuthDialog.obj
 0002:0000e730       ?precision@ios_base@std@@QBEHXZ 0049f730 f i AuthDialog.obj
 0002:0000e750       ?do_put@?$num_put@DV?$ostreambuf_iterator@DU?$char_traits@D@std@@@std@@@std@@MBE?AV?$ostreambuf_iterator@DU?$char_traits@D@std@@@2@V32@AAVios_base@2@DO@Z 0049f750 f i AuthDialog.obj
 0002:0000ea00       ?do_put@?$num_put@DV?$ostreambuf_iterator@DU?$char_traits@D@std@@@std@@@std@@MBE?AV?$ostreambuf_iterator@DU?$char_traits@D@std@@@2@V32@AAVios_base@2@DPBX@Z 0049fa00 f i AuthDialog.obj
 0002:0000ea90       ??_E?$num_put@DV?$ostreambuf_iterator@DU?$char_traits@D@std@@@std@@@std@@MAEPAXI@Z 0049fa90 f i AuthDialog.obj
 0002:0000ea90       ??_G?$num_put@DV?$ostreambuf_iterator@DU?$char_traits@D@std@@@std@@@std@@MAEPAXI@Z 0049fa90 f i AuthDialog.obj
 0002:0000ead0       ??1?$num_put@DV?$ostreambuf_iterator@DU?$char_traits@D@std@@@std@@@std@@MAE@XZ 0049fad0 f i AuthDialog.obj
 0002:0000eb00       ?assign@?$basic_string@DU?$char_traits@D@std@@V?$allocator@D@2@@std@@QAEAAV12@ABV12@@Z 0049fb00 f i AuthDialog.obj
 0002:0000eb30       ?_Ffmt@?$num_put@DV?$ostreambuf_iterator@DU?$char_traits@D@std@@@std@@@std@@ABAPADPADDH@Z 0049fb30 f i AuthDialog.obj
 0002:0000ec50       ?_Fput@?$num_put@DV?$ostreambuf_iterator@DU?$char_traits@D@std@@@std@@@std@@ABA?AV?$ostreambuf_iterator@DU?$char_traits@D@std@@@2@V32@AAVios_base@2@DPBDIIII@Z 0049fc50 f i AuthDialog.obj
 0002:0000f4c0       ?_Ifmt@?$num_put@DV?$ostreambuf_iterator@DU?$char_traits@D@std@@@std@@@std@@ABAPADPADPBDH@Z 004a04c0 f i AuthDialog.obj
 0002:0000f600       ?_Iput@?$num_put@DV?$ostreambuf_iterator@DU?$char_traits@D@std@@@std@@@std@@ABA?AV?$ostreambuf_iterator@DU?$char_traits@D@std@@@2@V32@AAVios_base@2@DPADI@Z 004a0600 f i AuthDialog.obj
 0002:0000fa20       ?_Put@?$num_put@DV?$ostreambuf_iterator@DU?$char_traits@D@std@@@std@@@std@@ABA?AV?$ostreambuf_iterator@DU?$char_traits@D@std@@@2@V32@PBDI@Z 004a0a20 f i AuthDialog.obj
 0002:0000fa90       ?_Rep@?$num_put@DV?$ostreambuf_iterator@DU?$char_traits@D@std@@@std@@@std@@ABA?AV?$ostreambuf_iterator@DU?$char_traits@D@std@@@2@V32@DI@Z 004a0a90 f i AuthDialog.obj
 0002:0000faf0       ?falsename@?$numpunct@D@std@@QBE?AV?$basic_string@DU?$char_traits@D@std@@V?$allocator@D@2@@2@XZ 004a0af0 f i AuthDialog.obj
 0002:0000fb30       ?truename@?$numpunct@D@std@@QBE?AV?$basic_string@DU?$char_traits@D@std@@V?$allocator@D@2@@2@XZ 004a0b30 f i AuthDialog.obj
 0002:0000fb70       ?append@?$basic_string@DU?$char_traits@D@std@@V?$allocator@D@2@@std@@QAEAAV12@PBDI@Z 004a0b70 f i AuthDialog.obj
 0002:0000fca0       ?append@?$basic_string@DU?$char_traits@D@std@@V?$allocator@D@2@@std@@QAEAAV12@ID@Z 004a0ca0 f i AuthDialog.obj
 0002:0000fd30       ?insert@?$basic_string@DU?$char_traits@D@std@@V?$allocator@D@2@@std@@QAEAAV12@IID@Z 004a0d30 f i AuthDialog.obj
 0002:0000fe20       ??A?$basic_string@DU?$char_traits@D@std@@V?$allocator@D@2@@std@@QAEAADI@Z 004a0e20 f i AuthDialog.obj
 0002:0000fed0       ?_Putc@?$num_put@DV?$ostreambuf_iterator@DU?$char_traits@D@std@@@std@@@std@@ABA?AV?$ostreambuf_iterator@DU?$char_traits@D@std@@@2@V32@PBDI@Z 004a0ed0 f i AuthDialog.obj
 0002:0000ff50       ?_Putgrouped@?$num_put@DV?$ostreambuf_iterator@DU?$char_traits@D@std@@@std@@@std@@ABA?AV?$ostreambuf_iterator@DU?$char_traits@D@std@@@2@V32@PBDID@Z 004a0f50 f i AuthDialog.obj
 0002:00010060       ??4?$ostreambuf_iterator@DU?$char_traits@D@std@@@std@@QAEAAV01@D@Z 004a1060 f i AuthDialog.obj
 0002:000100d0       ?sputc@?$basic_streambuf@DU?$char_traits@D@std@@@std@@QAEHD@Z 004a10d0 f i AuthDialog.obj
 0002:00010150       ??D?$ostreambuf_iterator@DU?$char_traits@D@std@@@std@@QAEAAV01@XZ 004a1150 f i AuthDialog.obj
 0002:00010170       ??E?$ostreambuf_iterator@DU?$char_traits@D@std@@@std@@QAEAAV01@XZ 004a1170 f i AuthDialog.obj
 0002:00010190       ?decimal_point@?$numpunct@D@std@@QBEDXZ 004a1190 f i AuthDialog.obj
 0002:000101b0       ?thousands_sep@?$numpunct@D@std@@QBEDXZ 004a11b0 f i AuthDialog.obj
 0002:000101d0       ?grouping@?$numpunct@D@std@@QBE?AV?$basic_string@DU?$char_traits@D@std@@V?$allocator@D@2@@2@XZ 004a11d0 f i AuthDialog.obj
 0002:00010210       ?append@?$basic_string@DU?$char_traits@D@std@@V?$allocator@D@2@@std@@QAEAAV12@ABV12@II@Z 004a1210 f i AuthDialog.obj
 0002:00010310       ?_Chassign@?$basic_string@DU?$char_traits@D@std@@V?$allocator@D@2@@std@@IAEXIID@Z 004a1310 f i AuthDialog.obj
 0002:00010370       ?assign@?$char_traits@D@std@@SAPADPADID@Z 004a1370 f i AuthDialog.obj
 0002:00010390       ??$_Debug_pointer@V?$ostreambuf_iterator@DU?$char_traits@D@std@@@std@@@std@@YAXAAV?$ostreambuf_iterator@DU?$char_traits@D@std@@@0@PB_WI@Z 004a1390 f i AuthDialog.obj
 0002:000103a0       ??$use_facet@V?$numpunct@D@std@@@std@@YAABV?$numpunct@D@0@ABVlocale@0@@Z 004a13a0 f i AuthDialog.obj
 0002:000104d0       ??$_Maklocchr@D@std@@YADDPADABU_Cvtvec@@@Z 004a14d0 f i AuthDialog.obj
 0002:000104e0       ?_Getcat@?$numpunct@D@std@@SAIPAPBVfacet@locale@2@PBV42@@Z 004a14e0 f i AuthDialog.obj
 0002:000106c0       ??0?$numpunct@D@std@@QAE@ABV_Locinfo@1@I_N@Z 004a16c0 f i AuthDialog.obj
 0002:00010750       ?do_decimal_point@?$numpunct@D@std@@MBEDXZ 004a1750 f i AuthDialog.obj
 0002:00010770       ?do_thousands_sep@?$numpunct@D@std@@MBEDXZ 004a1770 f i AuthDialog.obj
 0002:00010790       ?do_grouping@?$numpunct@D@std@@MBE?AV?$basic_string@DU?$char_traits@D@std@@V?$allocator@D@2@@2@XZ 004a1790 f i AuthDialog.obj
 0002:000107d0       ?do_falsename@?$numpunct@D@std@@MBE?AV?$basic_string@DU?$char_traits@D@std@@V?$allocator@D@2@@2@XZ 004a17d0 f i AuthDialog.obj
 0002:00010810       ?do_truename@?$numpunct@D@std@@MBE?AV?$basic_string@DU?$char_traits@D@std@@V?$allocator@D@2@@2@XZ 004a1810 f i AuthDialog.obj
 0002:00010850       ??_E?$numpunct@D@std@@MAEPAXI@Z 004a1850 f i AuthDialog.obj
 0002:00010850       ??_G?$numpunct@D@std@@MAEPAXI@Z 004a1850 f i AuthDialog.obj
 0002:00010890       ??1?$numpunct@D@std@@MAE@XZ 004a1890 f i AuthDialog.obj
 0002:00010910       ?_Tidy@?$numpunct@D@std@@AAEXXZ 004a1910 f i AuthDialog.obj
 0002:00010960       ?_Init@?$num_put@DV?$ostreambuf_iterator@DU?$char_traits@D@std@@@std@@@std@@IAEXABV_Locinfo@2@@Z 004a1960 f i AuthDialog.obj
 0002:000109a0       ?_Getcvt@_Locinfo@std@@QBE?AU_Cvtvec@@XZ 004a19a0 f i AuthDialog.obj
 0002:000109e0       ?_Init@?$numpunct@D@std@@IAEXABV_Locinfo@2@_N@Z 004a19e0 f i AuthDialog.obj
 0002:00010c50       ?_Getlconv@_Locinfo@std@@QBEPBUlconv@@XZ 004a1c50 f i AuthDialog.obj
 0002:00010c70       ?_Getfalse@_Locinfo@std@@QBEPBDXZ 004a1c70 f i AuthDialog.obj
 0002:00010c90       ?_Gettrue@_Locinfo@std@@QBEPBDXZ 004a1c90 f i AuthDialog.obj
 0002:00010cb0       ??$_Iter_cat@PBD@std@@YA?AUrandom_access_iterator_tag@0@ABQBD@Z 004a1cb0 f i AuthDialog.obj
 0002:00010cc0       ??$_Debug_range2@PBD@std@@YAXPBD0PB_WIUrandom_access_iterator_tag@0@@Z 004a1cc0 f i AuthDialog.obj
 0002:00010d30       ??$_Char_traits_cat@U?$char_traits@D@std@@@std@@YA?AU_Secure_char_traits_tag@0@XZ 004a1d30 f i AuthDialog.obj
 0002:00010d40       ??$copy_s@U?$char_traits@D@std@@@_Traits_helper@std@@YAPADPADIPBDIU_Secure_char_traits_tag@1@@Z 004a1d40 f i AuthDialog.obj
 0002:00010d70       ?_Copy_s@?$char_traits@D@std@@SAPADPADIPBDI@Z 004a1d70 f i AuthDialog.obj
 0002:00010da0       ??$move_s@U?$char_traits@D@std@@@_Traits_helper@std@@YAPADPADIPBDIU_Secure_char_traits_tag@1@@Z 004a1da0 f i AuthDialog.obj
 0002:00010dd0       ?_Move_s@?$char_traits@D@std@@SAPADPADIPBDI@Z 004a1dd0 f i AuthDialog.obj
 0002:00010e00       ??$_Maklocstr@D@std@@YAPADPBDPADABU_Cvtvec@@@Z 004a1e00 f i AuthDialog.obj
 0002:00010ea0       ??0id@locale@std@@QAE@I@Z  004a1ea0 f i AuthDialog.obj
 0002:00010ec0       ?base64_encode@@YA?AV?$basic_string@DU?$char_traits@D@std@@V?$allocator@D@2@@std@@PBEI@Z 004a1ec0 f   base64.obj
 0002:000110f0       ?base64_decode@@YA?AV?$basic_string@DU?$char_traits@D@std@@V?$allocator@D@2@@std@@ABV12@@Z 004a20f0 f   base64.obj
 0002:00011520       ??Y?$basic_string@DU?$char_traits@D@std@@V?$allocator@D@2@@std@@QAEAAV01@D@Z 004a2520 f i base64.obj
 0002:00011550       ??A?$basic_string@DU?$char_traits@D@std@@V?$allocator@D@2@@std@@QBEABDI@Z 004a2550 f i base64.obj
 0002:00011600       ?find@?$basic_string@DU?$char_traits@D@std@@V?$allocator@D@2@@std@@QBEIDI@Z 004a2600 f i base64.obj
 0002:00011630       ?find@?$basic_string@DU?$char_traits@D@std@@V?$allocator@D@2@@std@@QBEIPBDII@Z 004a2630 f i base64.obj
 0002:00011760       ?compare@?$char_traits@D@std@@SAHPBD0I@Z 004a2760 f i base64.obj
 0002:00011780       ?find@?$char_traits@D@std@@SAPBDPBDIABD@Z 004a2780 f i base64.obj
 0002:000117b0       ?decodifica@CACIC_Crypt@@SA?AV?$basic_string@DU?$char_traits@D@std@@V?$allocator@D@2@@std@@PBD@Z 004a27b0 f   CACIC_Crypt.obj
 0002:000119b0       ?codifica@CACIC_Crypt@@SA?AV?$basic_string@DU?$char_traits@D@std@@V?$allocator@D@2@@std@@PBD@Z 004a29b0 f   CACIC_Crypt.obj
 0002:00011cd0       ?ceil@@YAMM@Z              004a2cd0 f i CACIC_Crypt.obj
 0002:00011cf0       _ceilf                     004a2cf0 f i CACIC_Crypt.obj
 0002:00011d20       ??4?$basic_string@DU?$char_traits@D@std@@V?$allocator@D@2@@std@@QAEAAV01@ABV01@@Z 004a2d20 f i CACIC_Crypt.obj
 0002:00011d40       ?length@?$basic_string@DU?$char_traits@D@std@@V?$allocator@D@2@@std@@QBEIXZ 004a2d40 f i CACIC_Crypt.obj
 0002:00011d60       ?leTag@CACIC_Utils@@SAXQAD0AAV?$basic_string@DU?$char_traits@D@std@@V?$allocator@D@2@@std@@@Z 004a2d60 f   CACIC_Utils.obj
 0002:00011f20       ?replaceAll@CACIC_Utils@@SAXAAV?$basic_string@DU?$char_traits@D@std@@V?$allocator@D@2@@std@@V23@1@Z 004a2f20 f   CACIC_Utils.obj
 0002:00011fd0       ?urlEncode@CACIC_Utils@@SAXAAV?$basic_string@DU?$char_traits@D@std@@V?$allocator@D@2@@std@@@Z 004a2fd0 f   CACIC_Utils.obj
 0002:000121c0       ?urlDecode@CACIC_Utils@@SAXAAV?$basic_string@DU?$char_traits@D@std@@V?$allocator@D@2@@std@@@Z 004a31c0 f   CACIC_Utils.obj
 0002:00012460       ?simpleUrlEncode@CACIC_Utils@@SAXAAV?$basic_string@DU?$char_traits@D@std@@V?$allocator@D@2@@std@@@Z 004a3460 f   CACIC_Utils.obj
 0002:00012610       ?simpleUrlDecode@CACIC_Utils@@SAXAAV?$basic_string@DU?$char_traits@D@std@@V?$allocator@D@2@@std@@@Z 004a3610 f   CACIC_Utils.obj
 0002:000127c0       ?hexToAscii@CACIC_Utils@@SADDD@Z 004a37c0 f   CACIC_Utils.obj
 0002:00012810       ?trim@CACIC_Utils@@SAXAAV?$basic_string@DU?$char_traits@D@std@@V?$allocator@D@2@@std@@@Z 004a3810 f   CACIC_Utils.obj
 0002:00012950       ?changeFont@CACIC_Utils@@SAXPAUHWND__@@HHV?$basic_string@DU?$char_traits@D@std@@V?$allocator@D@2@@std@@_N@Z 004a3950 f   CACIC_Utils.obj
 0002:00012a30       ?getMACAddress@CACIC_Utils@@SA?AV?$basic_string@DU?$char_traits@D@std@@V?$allocator@D@2@@std@@XZ 004a3a30 f   CACIC_Utils.obj
 0002:00012b70       ?getSOID@CACIC_Utils@@SA?AV?$basic_string@DU?$char_traits@D@std@@V?$allocator@D@2@@std@@XZ 004a3b70 f   CACIC_Utils.obj
 0002:00012fd0       ?DateCompare@CACIC_Utils@@SAHU_SYSTEMTIME@@0@Z 004a3fd0 f   CACIC_Utils.obj
 0002:00013500       ??0SRCException@@QAE@V?$basic_string@DU?$char_traits@D@std@@V?$allocator@D@2@@std@@@Z 004a4500 f i CACIC_Utils.obj
 0002:00013590       ??1SRCException@@QAE@XZ    004a4590 f i CACIC_Utils.obj
 0002:000135b0       ??0SRCException@@QAE@ABV0@@Z 004a45b0 f i CACIC_Utils.obj
 0002:000135e0       ??1?$_String_iterator@DU?$char_traits@D@std@@V?$allocator@D@2@@std@@QAE@XZ 004a45e0 f i CACIC_Utils.obj
 0002:00013600       ??0?$_String_const_iterator@DU?$char_traits@D@std@@V?$allocator@D@2@@std@@QAE@ABV01@@Z 004a4600 f i CACIC_Utils.obj
 0002:00013640       ??1?$_String_const_iterator@DU?$char_traits@D@std@@V?$allocator@D@2@@std@@QAE@XZ 004a4640 f i CACIC_Utils.obj
 0002:00013660       ??0?$_Ranit_base@DHPBDABDV_Iterator_base@std@@@std@@QAE@ABU01@@Z 004a4660 f i CACIC_Utils.obj
 0002:00013690       ??0_Iterator_base@std@@QAE@ABV01@@Z 004a4690 f i CACIC_Utils.obj
 0002:000136d0       ??4_Iterator_base@std@@QAEAAV01@ABV01@@Z 004a46d0 f i CACIC_Utils.obj
 0002:00013770       ?_Adopt@_Iterator_base@std@@QAEXPBV_Container_base_secure@2@@Z 004a4770 f i CACIC_Utils.obj
 0002:00013830       ?_Orphan_me@_Iterator_base@std@@QAEXXZ 004a4830 f i CACIC_Utils.obj
 0002:000138d0       ??1?$_Ranit_base@DHPBDABDV_Iterator_base@std@@@std@@QAE@XZ 004a48d0 f i CACIC_Utils.obj
 0002:000138f0       ??1_Iterator_base@std@@QAE@XZ 004a48f0 f i CACIC_Utils.obj
 0002:00013970       ??Y?$basic_string@DU?$char_traits@D@std@@V?$allocator@D@2@@std@@QAEAAV01@ABV01@@Z 004a4970 f i CACIC_Utils.obj
 0002:00013990       ??Y?$basic_string@DU?$char_traits@D@std@@V?$allocator@D@2@@std@@QAEAAV01@PBD@Z 004a4990 f i CACIC_Utils.obj
 0002:000139b0       ?erase@?$basic_string@DU?$char_traits@D@std@@V?$allocator@D@2@@std@@QAE?AV?$_String_iterator@DU?$char_traits@D@std@@V?$allocator@D@2@@2@V?$_String_const_iterator@DU?$char_traits@D@std@@V?$allocator@D@2@@2@0@Z 004a49b0 f i CACIC_Utils.obj
 0002:00013b40       ?replace@?$basic_string@DU?$char_traits@D@std@@V?$allocator@D@2@@std@@QAEAAV12@IIABV12@@Z 004a4b40 f i CACIC_Utils.obj
 0002:00013b80       ?begin@?$basic_string@DU?$char_traits@D@std@@V?$allocator@D@2@@std@@QAE?AV?$_String_iterator@DU?$char_traits@D@std@@V?$allocator@D@2@@2@XZ 004a4b80 f i CACIC_Utils.obj
 0002:00013bd0       ?end@?$basic_string@DU?$char_traits@D@std@@V?$allocator@D@2@@std@@QAE?AV?$_String_iterator@DU?$char_traits@D@std@@V?$allocator@D@2@@2@XZ 004a4bd0 f i CACIC_Utils.obj
 0002:00013c20       ?at@?$basic_string@DU?$char_traits@D@std@@V?$allocator@D@2@@std@@QAEAADI@Z 004a4c20 f i CACIC_Utils.obj
 0002:00013c60       ?swap@?$basic_string@DU?$char_traits@D@std@@V?$allocator@D@2@@std@@QAEXAAV12@@Z 004a4c60 f i CACIC_Utils.obj
 0002:00013e10       ?_Swap_all@_Container_base_secure@std@@QBEXAAV12@@Z 004a4e10 f i CACIC_Utils.obj
 0002:00013ed0       ?find@?$basic_string@DU?$char_traits@D@std@@V?$allocator@D@2@@std@@QBEIABV12@I@Z 004a4ed0 f i CACIC_Utils.obj
 0002:00013f10       ?find_first_not_of@?$basic_string@DU?$char_traits@D@std@@V?$allocator@D@2@@std@@QBEIPBDI@Z 004a4f10 f i CACIC_Utils.obj
 0002:00013f60       ?find_last_not_of@?$basic_string@DU?$char_traits@D@std@@V?$allocator@D@2@@std@@QBEIPBDI@Z 004a4f60 f i CACIC_Utils.obj
 0002:00013fb0       ?substr@?$basic_string@DU?$char_traits@D@std@@V?$allocator@D@2@@std@@QBE?AV12@II@Z 004a4fb0 f i CACIC_Utils.obj
 0002:00014010       ??6?$basic_ostream@DU?$char_traits@D@std@@@std@@QAEAAV01@G@Z 004a5010 f i CACIC_Utils.obj
 0002:00014210       ??6?$basic_ostream@DU?$char_traits@D@std@@@std@@QAEAAV01@K@Z 004a5210 f i CACIC_Utils.obj
 0002:00014410       ??5?$basic_istream@DU?$char_traits@D@std@@@std@@QAEAAV01@AAH@Z 004a5410 f i CACIC_Utils.obj
 0002:00014630       ??1sentry@?$basic_istream@DU?$char_traits@D@std@@@std@@QAE@XZ 004a5630 f i CACIC_Utils.obj
 0002:00014650       ??0sentry@?$basic_istream@DU?$char_traits@D@std@@@std@@QAE@AAV12@_N@Z 004a5650 f i CACIC_Utils.obj
 0002:000146e0       ??Bsentry@?$basic_istream@DU?$char_traits@D@std@@@std@@QBE_NXZ 004a56e0 f i CACIC_Utils.obj
 0002:00014700       ??1_Sentry_base@?$basic_istream@DU?$char_traits@D@std@@@std@@QAE@XZ 004a5700 f i CACIC_Utils.obj
 0002:00014750       ??0?$basic_string@DU?$char_traits@D@std@@V?$allocator@D@2@@std@@QAE@ABV01@IIABV?$allocator@D@1@@Z 004a5750 f i CACIC_Utils.obj
 0002:00014810       ?append@?$basic_string@DU?$char_traits@D@std@@V?$allocator@D@2@@std@@QAEAAV12@ABV12@@Z 004a5810 f i CACIC_Utils.obj
 0002:00014840       ?append@?$basic_string@DU?$char_traits@D@std@@V?$allocator@D@2@@std@@QAEAAV12@PBD@Z 004a5840 f i CACIC_Utils.obj
 0002:00014890       ?replace@?$basic_string@DU?$char_traits@D@std@@V?$allocator@D@2@@std@@QAEAAV12@IIABV12@II@Z 004a5890 f i CACIC_Utils.obj
 0002:00014ca0       ?find_first_not_of@?$basic_string@DU?$char_traits@D@std@@V?$allocator@D@2@@std@@QBEIPBDII@Z 004a5ca0 f i CACIC_Utils.obj
 0002:00014d60       ?find_last_not_of@?$basic_string@DU?$char_traits@D@std@@V?$allocator@D@2@@std@@QBEIPBDII@Z 004a5d60 f i CACIC_Utils.obj
 0002:00014e40       ?get_allocator@?$basic_string@DU?$char_traits@D@std@@V?$allocator@D@2@@std@@QBE?AV?$allocator@D@2@XZ 004a5e40 f i CACIC_Utils.obj
 0002:00014e70       ?_Pdif@?$basic_string@DU?$char_traits@D@std@@V?$allocator@D@2@@std@@KAIV?$_String_const_iterator@DU?$char_traits@D@std@@V?$allocator@D@2@@2@0@Z 004a5e70 f i CACIC_Utils.obj
 0002:00014f10       ?_Ipfx@?$basic_istream@DU?$char_traits@D@std@@@std@@QAE_N_N@Z 004a5f10 f i CACIC_Utils.obj
 0002:000151b0       ?is@?$ctype@D@std@@QBE_NFD@Z 004a61b0 f i CACIC_Utils.obj
 0002:000151e0       ?sgetc@?$basic_streambuf@DU?$char_traits@D@std@@@std@@QAEHXZ 004a61e0 f i CACIC_Utils.obj
 0002:00015240       ?snextc@?$basic_streambuf@DU?$char_traits@D@std@@@std@@QAEHXZ 004a6240 f i CACIC_Utils.obj
 0002:000152e0       ??0_Sentry_base@?$basic_istream@DU?$char_traits@D@std@@@std@@QAE@AAV12@@Z 004a62e0 f i CACIC_Utils.obj
 0002:00015340       ?sbumpc@?$basic_streambuf@DU?$char_traits@D@std@@@std@@QAEHXZ 004a6340 f i CACIC_Utils.obj
 0002:000153a0       ?_Gnpreinc@?$basic_streambuf@DU?$char_traits@D@std@@@std@@IAEPADXZ 004a63a0 f i CACIC_Utils.obj
 0002:000153f0       ??0?$_String_iterator@DU?$char_traits@D@std@@V?$allocator@D@2@@std@@QAE@PADPBV_Container_base_secure@1@@Z 004a63f0 f i CACIC_Utils.obj
 0002:00015420       ?put@?$num_put@DV?$ostreambuf_iterator@DU?$char_traits@D@std@@@std@@@std@@QBE?AV?$ostreambuf_iterator@DU?$char_traits@D@std@@@2@V32@AAVios_base@2@DK@Z 004a6420 f i CACIC_Utils.obj
 0002:00015470       ?get@?$num_get@DV?$istreambuf_iterator@DU?$char_traits@D@std@@@std@@@std@@QBE?AV?$istreambuf_iterator@DU?$char_traits@D@std@@@2@V32@0AAVios_base@2@AAHAAJ@Z 004a6470 f i CACIC_Utils.obj
 0002:000154c0       ??0?$istreambuf_iterator@DU?$char_traits@D@std@@@std@@QAE@PAV?$basic_streambuf@DU?$char_traits@D@std@@@1@@Z 004a64c0 f i CACIC_Utils.obj
 0002:000154f0       ??0?$_String_const_iterator@DU?$char_traits@D@std@@V?$allocator@D@2@@std@@QAE@PBDPBV_Container_base_secure@1@@Z 004a64f0 f i CACIC_Utils.obj
 0002:00015600       ??G?$_String_const_iterator@DU?$char_traits@D@std@@V?$allocator@D@2@@std@@QBEHABV01@@Z 004a6600 f i CACIC_Utils.obj
 0002:00015630       ??0?$_Ranit_base@DHPBDABDV_Iterator_base@std@@@std@@QAE@XZ 004a6630 f i CACIC_Utils.obj
 0002:00015650       ??0_Iterator_base@std@@QAE@XZ 004a6650 f i CACIC_Utils.obj
 0002:00015680       ?_Compat@?$_String_const_iterator@DU?$char_traits@D@std@@V?$allocator@D@2@@std@@QBEXABV12@@Z 004a6680 f i CACIC_Utils.obj
 0002:00015720       ??$sprintf_s@$07@@YAHAAY07DPBDZZ 004a6720 f i CACIC_Utils.obj
 0002:00015750       ??$?6U?$char_traits@D@std@@@std@@YAAAV?$basic_ostream@DU?$char_traits@D@std@@@0@AAV10@PBD@Z 004a6750 f i CACIC_Utils.obj
 0002:00015ac0       ??$?6U?$char_traits@D@std@@@std@@YAAAV?$basic_ostream@DU?$char_traits@D@std@@@0@AAV10@D@Z 004a6ac0 f i CACIC_Utils.obj
 0002:00015e20       ??$Compare@G@@YAHGG@Z      004a6e20 f i CACIC_Utils.obj
 0002:00015e60       ??$?8DD@std@@YA_NABV?$allocator@D@0@0@Z 004a6e60 f i CACIC_Utils.obj
 0002:00015e70       ??$use_facet@V?$num_get@DV?$istreambuf_iterator@DU?$char_traits@D@std@@@std@@@std@@@std@@YAABV?$num_get@DV?$istreambuf_iterator@DU?$char_traits@D@std@@@std@@@0@ABVlocale@0@@Z 004a6e70 f i CACIC_Utils.obj
 0002:00015fa0       ?sputn@?$basic_streambuf@DU?$char_traits@D@std@@@std@@QAEHPBDH@Z 004a6fa0 f i CACIC_Utils.obj
 0002:00015fd0       ?_Getcat@?$num_get@DV?$istreambuf_iterator@DU?$char_traits@D@std@@@std@@@std@@SAIPAPBVfacet@locale@2@PBV42@@Z 004a6fd0 f i CACIC_Utils.obj
 0002:000161c0       ??0?$num_get@DV?$istreambuf_iterator@DU?$char_traits@D@std@@@std@@@std@@QAE@ABV_Locinfo@1@I@Z 004a71c0 f i CACIC_Utils.obj
 0002:00016250       ?do_get@?$num_get@DV?$istreambuf_iterator@DU?$char_traits@D@std@@@std@@@std@@MBE?AV?$istreambuf_iterator@DU?$char_traits@D@std@@@2@V32@0AAVios_base@2@AAHAA_N@Z 004a7250 f i CACIC_Utils.obj
 0002:000165a0       ?do_get@?$num_get@DV?$istreambuf_iterator@DU?$char_traits@D@std@@@std@@@std@@MBE?AV?$istreambuf_iterator@DU?$char_traits@D@std@@@2@V32@0AAVios_base@2@AAHAAG@Z 004a75a0 f i CACIC_Utils.obj
 0002:00016780       ?do_get@?$num_get@DV?$istreambuf_iterator@DU?$char_traits@D@std@@@std@@@std@@MBE?AV?$istreambuf_iterator@DU?$char_traits@D@std@@@2@V32@0AAVios_base@2@AAHAAI@Z 004a7780 f i CACIC_Utils.obj
 0002:00016950       ?do_get@?$num_get@DV?$istreambuf_iterator@DU?$char_traits@D@std@@@std@@@std@@MBE?AV?$istreambuf_iterator@DU?$char_traits@D@std@@@2@V32@0AAVios_base@2@AAHAAJ@Z 004a7950 f i CACIC_Utils.obj
 0002:00016ad0       ?do_get@?$num_get@DV?$istreambuf_iterator@DU?$char_traits@D@std@@@std@@@std@@MBE?AV?$istreambuf_iterator@DU?$char_traits@D@std@@@2@V32@0AAVios_base@2@AAHAAK@Z 004a7ad0 f i CACIC_Utils.obj
 0002:00016c50       ?do_get@?$num_get@DV?$istreambuf_iterator@DU?$char_traits@D@std@@@std@@@std@@MBE?AV?$istreambuf_iterator@DU?$char_traits@D@std@@@2@V32@0AAVios_base@2@AAHAA_J@Z 004a7c50 f i CACIC_Utils.obj
 0002:00016de0       ?do_get@?$num_get@DV?$istreambuf_iterator@DU?$char_traits@D@std@@@std@@@std@@MBE?AV?$istreambuf_iterator@DU?$char_traits@D@std@@@2@V32@0AAVios_base@2@AAHAA_K@Z 004a7de0 f i CACIC_Utils.obj
 0002:00016f70       ?do_get@?$num_get@DV?$istreambuf_iterator@DU?$char_traits@D@std@@@std@@@std@@MBE?AV?$istreambuf_iterator@DU?$char_traits@D@std@@@2@V32@0AAVios_base@2@AAHAAM@Z 004a7f70 f i CACIC_Utils.obj
 0002:000170f0       ?do_get@?$num_get@DV?$istreambuf_iterator@DU?$char_traits@D@std@@@std@@@std@@MBE?AV?$istreambuf_iterator@DU?$char_traits@D@std@@@2@V32@0AAVios_base@2@AAHAAN@Z 004a80f0 f i CACIC_Utils.obj
 0002:00017270       ?do_get@?$num_get@DV?$istreambuf_iterator@DU?$char_traits@D@std@@@std@@@std@@MBE?AV?$istreambuf_iterator@DU?$char_traits@D@std@@@2@V32@0AAVios_base@2@AAHAAO@Z 004a8270 f i CACIC_Utils.obj
 0002:000173f0       ?do_get@?$num_get@DV?$istreambuf_iterator@DU?$char_traits@D@std@@@std@@@std@@MBE?AV?$istreambuf_iterator@DU?$char_traits@D@std@@@2@V32@0AAVios_base@2@AAHAAPAX@Z 004a83f0 f i CACIC_Utils.obj
 0002:000175c0       ??_E?$num_get@DV?$istreambuf_iterator@DU?$char_traits@D@std@@@std@@@std@@MAEPAXI@Z 004a85c0 f i CACIC_Utils.obj
 0002:000175c0       ??_G?$num_get@DV?$istreambuf_iterator@DU?$char_traits@D@std@@@std@@@std@@MAEPAXI@Z 004a85c0 f i CACIC_Utils.obj
 0002:00017600       ??1?$num_get@DV?$istreambuf_iterator@DU?$char_traits@D@std@@@std@@@std@@MAE@XZ 004a8600 f i CACIC_Utils.obj
 0002:00017630       ??0?$basic_string@DU?$char_traits@D@std@@V?$allocator@D@2@@std@@QAE@ID@Z 004a8630 f i CACIC_Utils.obj
 0002:000176d0       ?_Getifld@?$num_get@DV?$istreambuf_iterator@DU?$char_traits@D@std@@@std@@@std@@ABAHPADAAV?$istreambuf_iterator@DU?$char_traits@D@std@@@2@1HABVlocale@2@@Z 004a86d0 f i CACIC_Utils.obj
 0002:00017ce0       ?_Getffld@?$num_get@DV?$istreambuf_iterator@DU?$char_traits@D@std@@@std@@@std@@ABAHPADAAV?$istreambuf_iterator@DU?$char_traits@D@std@@@2@1ABVlocale@2@@Z 004a8ce0 f i CACIC_Utils.obj
 0002:00018660       ?assign@?$basic_string@DU?$char_traits@D@std@@V?$allocator@D@2@@std@@QAEAAV12@ID@Z 004a9660 f i CACIC_Utils.obj
 0002:000186d0       ??D?$istreambuf_iterator@DU?$char_traits@D@std@@@std@@QBEDXZ 004a96d0 f i CACIC_Utils.obj
 0002:00018730       ??E?$istreambuf_iterator@DU?$char_traits@D@std@@@std@@QAEAAV01@XZ 004a9730 f i CACIC_Utils.obj
 0002:00018780       ?_Inc@?$istreambuf_iterator@DU?$char_traits@D@std@@@std@@AAEXXZ 004a9780 f i CACIC_Utils.obj
 0002:000187f0       ?_Peek@?$istreambuf_iterator@DU?$char_traits@D@std@@@std@@AAEDXZ 004a97f0 f i CACIC_Utils.obj
 0002:00018880       ??$_Debug_range@V?$istreambuf_iterator@DU?$char_traits@D@std@@@std@@@std@@YAXV?$istreambuf_iterator@DU?$char_traits@D@std@@@0@0PB_WI@Z 004a9880 f i CACIC_Utils.obj
 0002:000188d0       ??$_Getloctxt@DV?$istreambuf_iterator@DU?$char_traits@D@std@@@std@@@std@@YAHAAV?$istreambuf_iterator@DU?$char_traits@D@std@@@0@0IPBD@Z 004a98d0 f i CACIC_Utils.obj
 0002:00018ba0       ??$?8DU?$char_traits@D@std@@@std@@YA_NABV?$istreambuf_iterator@DU?$char_traits@D@std@@@0@0@Z 004a9ba0 f i CACIC_Utils.obj
 0002:00018bc0       ??$?9DU?$char_traits@D@std@@@std@@YA_NABV?$istreambuf_iterator@DU?$char_traits@D@std@@@0@0@Z 004a9bc0 f i CACIC_Utils.obj
 0002:00018bf0       ??$_Maklocbyte@D@std@@YADDABU_Cvtvec@@@Z 004a9bf0 f i CACIC_Utils.obj
 0002:00018c00       ?equal@?$istreambuf_iterator@DU?$char_traits@D@std@@@std@@QBE_NABV12@@Z 004a9c00 f i CACIC_Utils.obj
 0002:00018c90       ?_Init@?$num_get@DV?$istreambuf_iterator@DU?$char_traits@D@std@@@std@@@std@@IAEXABV_Locinfo@2@@Z 004a9c90 f i CACIC_Utils.obj
 0002:00018cd0       ??$_Iter_cat@V?$istreambuf_iterator@DU?$char_traits@D@std@@@std@@@std@@YA?AUinput_iterator_tag@0@ABV?$istreambuf_iterator@DU?$char_traits@D@std@@@0@@Z 004a9cd0 f i CACIC_Utils.obj
 0002:00018ce0       ??$_Debug_range2@V?$istreambuf_iterator@DU?$char_traits@D@std@@@std@@@std@@YAXV?$istreambuf_iterator@DU?$char_traits@D@std@@@0@0PB_WIUinput_iterator_tag@0@@Z 004a9ce0 f i CACIC_Utils.obj
 0002:00018cf0       ??0ClientConnection@@QAE@XZ 004a9cf0 f   ClientConnection.obj
 0002:00018e90       ??0ClientConnection@@QAE@PAVVNCviewerApp@@@Z 004a9e90 f   ClientConnection.obj
 0002:00019040       ??0ClientConnection@@QAE@PAVVNCviewerApp@@I@Z 004aa040 f   ClientConnection.obj
 0002:000192a0       ??0ClientConnection@@QAE@PAVVNCviewerApp@@PADH@Z 004aa2a0 f   ClientConnection.obj
 0002:000194d0       ?Init@ClientConnection@@AAEXPAVVNCviewerApp@@@Z 004aa4d0 f   ClientConnection.obj
 0002:00019d90       ?Run@ClientConnection@@QAEXXZ 004aad90 f   ClientConnection.obj
 0002:00019f10       ?DoConnection@ClientConnection@@AAEXXZ 004aaf10 f   ClientConnection.obj
 0002:00019ff0       ?Reconnect@ClientConnection@@AAEXXZ 004aaff0 f   ClientConnection.obj
 0002:0001a0f0       ?GTGBS_ShowConnectWindow@ClientConnection@@AAEPAUHWND__@@XZ 004ab0f0 f   ClientConnection.obj
 0002:0001a140       ?CreateButtons@ClientConnection@@QAEXHH@Z 004ab140 f   ClientConnection.obj
 0002:0001b140       ?RebuildToolbar@ClientConnection@@QAEXPAUHWND__@@@Z 004ac140 f   ClientConnection.obj
 0002:0001b200       ?GTGBS_CreateToolbar@ClientConnection@@AAEXXZ 004ac200 f   ClientConnection.obj
 0002:0001b810       ?CreateDisplay@ClientConnection@@AAEXXZ 004ac810 f   ClientConnection.obj
 0002:0001c040       ?LoadDSMPlugin@ClientConnection@@AAEX_N@Z 004ad040 f   ClientConnection.obj
 0002:0001c180       ?SetDSMPluginStuff@ClientConnection@@AAEXXZ 004ad180 f   ClientConnection.obj
 0002:0001c360       ?HandleQuickOption@ClientConnection@@QAEXXZ 004ad360 f   ClientConnection.obj
 0002:0001c3b0       ?GetConnectDetails@ClientConnection@@AAEXXZ 004ad3b0 f   ClientConnection.obj
 0002:0001c750       ?SocketTimeout@@YGKPAX@Z   004ad750 f   ClientConnection.obj
 0002:0001c7c0       ?Connect@ClientConnection@@AAEXXZ 004ad7c0 f   ClientConnection.obj
 0002:0001cb90       ?ConnectProxy@ClientConnection@@AAEXXZ 004adb90 f   ClientConnection.obj
 0002:0001cef0       ?SetSocketOptions@ClientConnection@@AAEXXZ 004adef0 f   ClientConnection.obj
 0002:0001cfe0       ?NegotiateProtocolVersion@ClientConnection@@AAEXXZ 004adfe0 f   ClientConnection.obj
 0002:0001d460       ?NegotiateProxy@ClientConnection@@AAEXXZ 004ae460 f   ClientConnection.obj
 0002:0001d740       ?Authenticate@ClientConnection@@AAEXXZ 004ae740 f   ClientConnection.obj
 0002:0001e030       ?AuthMsLogon@ClientConnection@@AAEXXZ 004af030 f   ClientConnection.obj
 0002:0001e5d0       ?SendClientInit@ClientConnection@@AAEXXZ 004af5d0 f   ClientConnection.obj
 0002:0001e600       ?ReadServerInit@ClientConnection@@AAEXXZ 004af600 f   ClientConnection.obj
 0002:0001e970       ?SizeWindow@ClientConnection@@AAEXXZ 004af970 f   ClientConnection.obj
 0002:0001f100       ?CreateLocalFramebuffer@ClientConnection@@AAEXXZ 004b0100 f   ClientConnection.obj
 0002:0001f3b0       ?SetupPixelFormat@ClientConnection@@AAEXXZ 004b03b0 f   ClientConnection.obj
 0002:0001f690       ?SetFormatAndEncodings@ClientConnection@@AAEXXZ 004b0690 f   ClientConnection.obj
 0002:0001fd00       ?Createdib@ClientConnection@@AAEXXZ 004b0d00 f   ClientConnection.obj
 0002:00020220       ?KillThread@ClientConnection@@QAEXXZ 004b1220 f   ClientConnection.obj
 0002:00020290       ?SuspendThread@ClientConnection@@QAEXXZ 004b1290 f   ClientConnection.obj
 0002:00020460       ?CloseWindows@ClientConnection@@QAEXXZ 004b1460 f   ClientConnection.obj
 0002:000204d0       ??1ClientConnection@@UAE@XZ 004b14d0 f   ClientConnection.obj
 0002:00020b80       ?ScrollScreen@ClientConnection@@AAE_NHH@Z 004b1b80 f   ClientConnection.obj
 0002:00020d60       ?SendClientCutText@ClientConnection@@AAEXPADH@Z 004b1d60 f   ClientConnection.obj
 0002:00020e50       ?ShowConnInfo@ClientConnection@@AAEXXZ 004b1e50 f   ClientConnection.obj
 0002:00021090       ?run_undetached@ClientConnection@@EAEPAXPAX@Z 004b2090 f   ClientConnection.obj
 0002:00021630       ?SendFullFramebufferUpdateRequest@ClientConnection@@AAEXXZ 004b2630 f   ClientConnection.obj
 0002:000216b0       ?SendAppropriateFramebufferUpdateRequest@ClientConnection@@AAEXXZ 004b26b0 f   ClientConnection.obj
 0002:00021940       ?SendServerScale@ClientConnection@@AAE_NH@Z 004b2940 f   ClientConnection.obj
 0002:00021980       ?SendServerInput@ClientConnection@@AAE_NH@Z 004b2980 f   ClientConnection.obj
 0002:000219c0       ?SendSW@ClientConnection@@AAE_NHH@Z 004b29c0 f   ClientConnection.obj
 0002:00021ab0       ?SetDormant@ClientConnection@@AAEX_N@Z 004b2ab0 f   ClientConnection.obj
 0002:00021b50       ?ReadServerCutText@ClientConnection@@AAEXXZ 004b2b50 f   ClientConnection.obj
 0002:00021c20       ?ReadBell@ClientConnection@@AAEXXZ 004b2c20 f   ClientConnection.obj
 0002:00021cd0       ?ReadServerState@ClientConnection@@AAEXXZ 004b2cd0 f   ClientConnection.obj
 0002:00021e20       ?ReadExact@ClientConnection@@AAEXPADH@Z 004b2e20 f   ClientConnection.obj
 0002:00022100       ?ReadExactProxy@ClientConnection@@AAEXPADH@Z 004b3100 f   ClientConnection.obj
 0002:000221f0       ?ReadString@ClientConnection@@AAEXPADH@Z 004b31f0 f   ClientConnection.obj
 0002:00022240       ?WriteExact@ClientConnection@@AAEXPADHE@Z 004b3240 f   ClientConnection.obj
 0002:000222a0       ?WriteExact@ClientConnection@@AAEXPADH@Z 004b32a0 f   ClientConnection.obj
 0002:00022480       ?WriteExactProxy@ClientConnection@@AAEXPADH@Z 004b3480 f   ClientConnection.obj
 0002:000225e0       ?CheckBufferSize@ClientConnection@@AAEXH@Z 004b35e0 f   ClientConnection.obj
 0002:000226f0       ?CheckZipBufferSize@ClientConnection@@AAEXH@Z 004b36f0 f   ClientConnection.obj
 0002:00022800       ?CheckFileZipBufferSize@ClientConnection@@AAEXH@Z 004b3800 f   ClientConnection.obj
 0002:00022910       ?CheckFileChunkBufferSize@ClientConnection@@AAEXH@Z 004b3910 f   ClientConnection.obj
 0002:00022a20       ?ReadNewFBSize@ClientConnection@@AAEXPAUrfbFramebufferUpdateRectHeader@@@Z 004b3a20 f   ClientConnection.obj
 0002:00022b00       ?GetFriendlySizeString@ClientConnection@@AAEX_JPAD@Z 004b3b00 f   ClientConnection.obj
 0002:00022cc0       ?UpdateStatusFields@ClientConnection@@AAEXXZ 004b3cc0 f   ClientConnection.obj
 0002:00023240       ?GTGBS_ScrollToolbar@ClientConnection@@QAEXHH@Z 004b4240 f   ClientConnection.obj
 0002:00023250       ?GTGBS_CreateDisplay@ClientConnection@@QAEXXZ 004b4250 f   ClientConnection.obj
 0002:000233b0       ?GTGBS_ShowStatusWindow@ClientConnection@@CGJPAX@Z 004b43b0 f   ClientConnection.obj
 0002:00023400       ?GTGBS_StatusProc@ClientConnection@@CGJPAUHWND__@@IIJ@Z 004b4400 f   ClientConnection.obj
 0002:00023830       ?GTGBS_SendCustomKey_proc@ClientConnection@@CGJPAUHWND__@@IIJ@Z 004b4830 f   ClientConnection.obj
 0002:00023a20       ?WndProc@ClientConnection@@CGJPAUHWND__@@IIJ@Z 004b4a20 f   ClientConnection.obj
 0002:00025c00       ?WndProcTBwin@ClientConnection@@CGJPAUHWND__@@IIJ@Z 004b6c00 f   ClientConnection.obj
 0002:00026320       ?WndProchwnd@ClientConnection@@CGJPAUHWND__@@IIJ@Z 004b7320 f   ClientConnection.obj
 0002:00026eb0       ?ConvertAll@ClientConnection@@AAEXHHHHHPAE0H@Z 004b7eb0 f   ClientConnection.obj
 0002:00026f40       ?Check_Rectangle_borders@ClientConnection@@AAE_NHHHH@Z 004b7f40 f   ClientConnection.obj
 0002:0002a870       ?run@omni_thread@@EAEXPAX@Z 004bb870 f i ClientConnection.obj
 0002:0002a880       ??_EClientConnection@@UAEPAXI@Z 004bb880 f i ClientConnection.obj
 0002:0002a880       ??_GClientConnection@@UAEPAXI@Z 004bb880 f i ClientConnection.obj
 0002:0002a8c0       ?GetSafeHwnd@CTitleBar@@QAEPAUHWND__@@XZ 004bb8c0 f i ClientConnection.obj
 0002:0002a8e0       ?Print@Log@@QAAXHPADZZ     004bb8e0 f i ClientConnection.obj
 0002:0002a920       ?SetWindowHandle@AccelKeys@@QAEXPAUHWND__@@@Z 004bb920 f i ClientConnection.obj
 0002:0002a940       ?IsLoaded@CDSMPlugin@@QAE_NXZ 004bb940 f i ClientConnection.obj
 0002:0002a960       ?IsEnabled@CDSMPlugin@@QAE_NXZ 004bb960 f i ClientConnection.obj
 0002:0002a980       ??0WarningException@@QAE@ABV0@@Z 004bb980 f i ClientConnection.obj
 0002:0002a9c0       ??0Exception@@QAE@ABV0@@Z  004bb9c0 f i ClientConnection.obj
 0002:0002aa00       ??_GWarningException@@UAEPAXI@Z 004bba00 f i ClientConnection.obj
 0002:0002aa00       ??_EWarningException@@UAEPAXI@Z 004bba00 f i ClientConnection.obj
 0002:0002aa40       ??_GException@@UAEPAXI@Z   004bba40 f i ClientConnection.obj
 0002:0002aa40       ??_EException@@UAEPAXI@Z   004bba40 f i ClientConnection.obj
 0002:0002aa80       ??0QuietException@@QAE@ABV0@@Z 004bba80 f i ClientConnection.obj
 0002:0002aab0       ??_EQuietException@@UAEPAXI@Z 004bbab0 f i ClientConnection.obj
 0002:0002aab0       ??_GQuietException@@UAEPAXI@Z 004bbab0 f i ClientConnection.obj
 0002:0002aaf0       ?SetDSMMode@FdInStream@rdr@@QAEX_N@Z 004bbaf0 f i ClientConnection.obj
 0002:0002ab10       ??0ErrorException@@QAE@ABV0@@Z 004bbb10 f i ClientConnection.obj
 0002:0002ab40       ??_EErrorException@@UAEPAXI@Z 004bbb40 f i ClientConnection.obj
 0002:0002ab40       ??_GErrorException@@UAEPAXI@Z 004bbb40 f i ClientConnection.obj
 0002:0002ab80       ?GetPluginName@CDSMPlugin@@QAEPADXZ 004bbb80 f i ClientConnection.obj
 0002:0002aba0       ?GetPluginVersion@CDSMPlugin@@QAEPADXZ 004bbba0 f i ClientConnection.obj
 0002:0002abc0       ??0omni_mutex_lock@@QAE@AAVomni_mutex@@@Z 004bbbc0 f i ClientConnection.obj
 0002:0002abf0       ??1omni_mutex_lock@@QAE@XZ 004bbbf0 f i ClientConnection.obj
 0002:0002ac10       ?FillSolidRect@ClientConnection@@AAEXPAUtagRECT@@K@Z 004bbc10 f i ClientConnection.obj
 0002:0002ac70       ??0ObjectSelector@@QAE@PAUHDC__@@PAX@Z 004bbc70 f i ClientConnection.obj
 0002:0002acb0       ??1ObjectSelector@@QAE@XZ  004bbcb0 f i ClientConnection.obj
 0002:0002ace0       ??0PaletteSelector@@QAE@PAUHDC__@@PAUHPALETTE__@@@Z 004bbce0 f i ClientConnection.obj
 0002:0002ad50       ??1PaletteSelector@@QAE@XZ 004bbd50 f i ClientConnection.obj
 0002:0002ada0       ??0TempDC@@QAE@PAUHWND__@@@Z 004bbda0 f i ClientConnection.obj
 0002:0002ade0       ??1TempDC@@QAE@XZ          004bbde0 f i ClientConnection.obj
 0002:0002ae10       ??BTempDC@@QAEPAUHDC__@@XZ 004bbe10 f i ClientConnection.obj
 0002:0002ae30       ??_GKeyMap@@QAEPAXI@Z      004bbe30 f i ClientConnection.obj
 0002:0002ae70       ??1KeyMap@@QAE@XZ          004bbe70 f i ClientConnection.obj
 0002:0002b160       ??1?$map@_WKU?$less@_W@std@@V?$allocator@U?$pair@$$CB_WK@std@@@2@@std@@QAE@XZ 004bc160 f i ClientConnection.obj
 0002:0002b180       ??1?$map@K_WU?$less@K@std@@V?$allocator@U?$pair@$$CBK_W@std@@@2@@std@@QAE@XZ 004bc180 f i ClientConnection.obj
 0002:0002b1a0       ?UpdateScrollbars@ClientConnection@@AAEXXZ 004bc1a0 f i ClientConnection.obj
 0002:0002b2b0       ?readU8@InStream@rdr@@QAEEXZ 004bc2b0 f i ClientConnection.obj
 0002:0002b300       ?check@InStream@rdr@@QAEHHH@Z 004bc300 f i ClientConnection.obj
 0002:0002b380       ?SendFramebufferUpdateRequest@ClientConnection@@AAEXHHHH_N@Z 004bc380 f i ClientConnection.obj
 0002:0002b4d0       ?SendIncrementalFramebufferUpdateRequest@ClientConnection@@AAEXXZ 004bc4d0 f i ClientConnection.obj
 0002:0002b570       ?ReadScreenUpdate@ClientConnection@@AAEXXZ 004bc570 f i ClientConnection.obj
 0002:0002c610       ?GetReadFromMemoryBuffer@FdInStream@rdr@@QAE_NXZ 004bd610 f i ClientConnection.obj
 0002:0002c630       ?CheckNetRectBufferSize@ClientConnection@@AAEXH@Z 004bd630 f i ClientConnection.obj
 0002:0002c740       ?CheckZRLENetRectBufferSize@ClientConnection@@AAEXH@Z 004bd740 f i ClientConnection.obj
 0002:0002c850       ?GetBytesRead@FdInStream@rdr@@QAE_JXZ 004bd850 f i ClientConnection.obj
 0002:0002c870       ?ProcessMouseWheel@ClientConnection@@AAEXH@Z 004bd870 f i ClientConnection.obj
 0002:0002c930       ?SendPointerEvent@ClientConnection@@AAEXHHH@Z 004bd930 f i ClientConnection.obj
 0002:0002ca90       ?ProcessKeyEvent@ClientConnection@@AAEXHK@Z 004bda90 f i ClientConnection.obj
 0002:0002ce40       ?SendKeyEvent@ClientConnection@@QAEXK_N@Z 004bde40 f i ClientConnection.obj
 0002:0002cf40       ?ProcessPointerEvent@ClientConnection@@AAEXHHKI@Z 004bdf40 f i ClientConnection.obj
 0002:0002d2d0       ?SubProcessPointerEvent@ClientConnection@@AAEXHHK@Z 004be2d0 f i ClientConnection.obj
 0002:0002d510       ?DoBlit@ClientConnection@@AAEXXZ 004be510 f i ClientConnection.obj
 0002:0002dab0       ??1?$_Tree@V?$_Tmap_traits@_WKU?$less@_W@std@@V?$allocator@U?$pair@$$CB_WK@std@@@2@$0A@@std@@@std@@QAE@XZ 004beab0 f i ClientConnection.obj
 0002:0002db20       ??1?$_Tree@V?$_Tmap_traits@K_WU?$less@K@std@@V?$allocator@U?$pair@$$CBK_W@std@@@2@$0A@@std@@@std@@QAE@XZ 004beb20 f i ClientConnection.obj
 0002:0002db90       ??1?$_Tree_val@V?$_Tmap_traits@_WKU?$less@_W@std@@V?$allocator@U?$pair@$$CB_WK@std@@@2@$0A@@std@@@std@@QAE@XZ 004beb90 f i ClientConnection.obj
 0002:0002dbb0       ??1?$_Tree_val@V?$_Tmap_traits@K_WU?$less@K@std@@V?$allocator@U?$pair@$$CBK_W@std@@@2@$0A@@std@@@std@@QAE@XZ 004bebb0 f i ClientConnection.obj
 0002:0002dbd0       ??1?$_Tree_ptr@V?$_Tmap_traits@_WKU?$less@_W@std@@V?$allocator@U?$pair@$$CB_WK@std@@@2@$0A@@std@@@std@@QAE@XZ 004bebd0 f i ClientConnection.obj
 0002:0002dbf0       ??1?$_Tree_ptr@V?$_Tmap_traits@K_WU?$less@K@std@@V?$allocator@U?$pair@$$CBK_W@std@@@2@$0A@@std@@@std@@QAE@XZ 004bebf0 f i ClientConnection.obj
 0002:0002dc10       ??1?$_Tree_nod@V?$_Tmap_traits@_WKU?$less@_W@std@@V?$allocator@U?$pair@$$CB_WK@std@@@2@$0A@@std@@@std@@QAE@XZ 004bec10 f i ClientConnection.obj
 0002:0002dc30       ??1?$_Tree_nod@V?$_Tmap_traits@K_WU?$less@K@std@@V?$allocator@U?$pair@$$CBK_W@std@@@2@$0A@@std@@@std@@QAE@XZ 004bec30 f i ClientConnection.obj
 0002:0002dc50       ??1?$_Tmap_traits@_WKU?$less@_W@std@@V?$allocator@U?$pair@$$CB_WK@std@@@2@$0A@@std@@QAE@XZ 004bec50 f i ClientConnection.obj
 0002:0002dc70       ??1?$_Tmap_traits@K_WU?$less@K@std@@V?$allocator@U?$pair@$$CBK_W@std@@@2@$0A@@std@@QAE@XZ 004bec70 f i ClientConnection.obj
 0002:0002dc90       ?_Tidy@?$_Tree@V?$_Tmap_traits@_WKU?$less@_W@std@@V?$allocator@U?$pair@$$CB_WK@std@@@2@$0A@@std@@@std@@IAEXXZ 004bec90 f i ClientConnection.obj
 0002:0002de30       ??1?$_Container_base_aux_alloc_empty@V?$allocator@U?$pair@$$CB_WK@std@@@std@@@std@@IAE@XZ 004bee30 f i ClientConnection.obj
 0002:0002de50       ?_Tidy@?$_Tree@V?$_Tmap_traits@K_WU?$less@K@std@@V?$allocator@U?$pair@$$CBK_W@std@@@2@$0A@@std@@@std@@IAEXXZ 004bee50 f i ClientConnection.obj
 0002:0002dff0       ??1?$_Container_base_aux_alloc_empty@V?$allocator@U?$pair@$$CBK_W@std@@@std@@@std@@IAE@XZ 004beff0 f i ClientConnection.obj
 0002:0002e010       ??1iterator@?$_Tree@V?$_Tmap_traits@_WKU?$less@_W@std@@V?$allocator@U?$pair@$$CB_WK@std@@@2@$0A@@std@@@std@@QAE@XZ 004bf010 f i ClientConnection.obj
 0002:0002e030       ??0const_iterator@?$_Tree@V?$_Tmap_traits@_WKU?$less@_W@std@@V?$allocator@U?$pair@$$CB_WK@std@@@2@$0A@@std@@@std@@QAE@ABV012@@Z 004bf030 f i ClientConnection.obj
 0002:0002e070       ??1const_iterator@?$_Tree@V?$_Tmap_traits@_WKU?$less@_W@std@@V?$allocator@U?$pair@$$CB_WK@std@@@2@$0A@@std@@@std@@QAE@XZ 004bf070 f i ClientConnection.obj
 0002:0002e090       ??1iterator@?$_Tree@V?$_Tmap_traits@K_WU?$less@K@std@@V?$allocator@U?$pair@$$CBK_W@std@@@2@$0A@@std@@@std@@QAE@XZ 004bf090 f i ClientConnection.obj
 0002:0002e0b0       ??0const_iterator@?$_Tree@V?$_Tmap_traits@K_WU?$less@K@std@@V?$allocator@U?$pair@$$CBK_W@std@@@2@$0A@@std@@@std@@QAE@ABV012@@Z 004bf0b0 f i ClientConnection.obj
 0002:0002e0f0       ??1const_iterator@?$_Tree@V?$_Tmap_traits@K_WU?$less@K@std@@V?$allocator@U?$pair@$$CBK_W@std@@@2@$0A@@std@@@std@@QAE@XZ 004bf0f0 f i ClientConnection.obj
 0002:0002e110       ??0?$_Bidit@U?$pair@$$CB_WK@std@@HPBU12@ABU12@@std@@QAE@ABU01@@Z 004bf110 f i ClientConnection.obj
 0002:0002e140       ??1?$_Bidit@U?$pair@$$CB_WK@std@@HPBU12@ABU12@@std@@QAE@XZ 004bf140 f i ClientConnection.obj
 0002:0002e160       ??0?$_Bidit@U?$pair@$$CBK_W@std@@HPBU12@ABU12@@std@@QAE@ABU01@@Z 004bf160 f i ClientConnection.obj
 0002:0002e190       ??1?$_Bidit@U?$pair@$$CBK_W@std@@HPBU12@ABU12@@std@@QAE@XZ 004bf190 f i ClientConnection.obj
 0002:0002e1b0       ??0?$_Iterator_with_base@Ubidirectional_iterator_tag@std@@U?$pair@$$CB_WK@2@HPBU32@ABU32@V_Iterator_base@2@@std@@QAE@ABU01@@Z 004bf1b0 f i ClientConnection.obj
 0002:0002e1e0       ??1?$_Iterator_with_base@Ubidirectional_iterator_tag@std@@U?$pair@$$CB_WK@2@HPBU32@ABU32@V_Iterator_base@2@@std@@QAE@XZ 004bf1e0 f i ClientConnection.obj
 0002:0002e200       ??0?$_Iterator_with_base@Ubidirectional_iterator_tag@std@@U?$pair@$$CBK_W@2@HPBU32@ABU32@V_Iterator_base@2@@std@@QAE@ABU01@@Z 004bf200 f i ClientConnection.obj
 0002:0002e230       ??1?$_Iterator_with_base@Ubidirectional_iterator_tag@std@@U?$pair@$$CBK_W@2@HPBU32@ABU32@V_Iterator_base@2@@std@@QAE@XZ 004bf230 f i ClientConnection.obj
 0002:0002e250       ?_Left@?$_Tree@V?$_Tmap_traits@_WKU?$less@_W@std@@V?$allocator@U?$pair@$$CB_WK@std@@@2@$0A@@std@@@std@@KAAAPAU_Node@?$_Tree_nod@V?$_Tmap_traits@_WKU?$less@_W@std@@V?$allocator@U?$pair@$$CB_WK@std@@@2@$0A@@std@@@2@PAU342@@Z 004bf250 f i ClientConnection.obj
 0002:0002e260       ?_Parent@?$_Tree@V?$_Tmap_traits@_WKU?$less@_W@std@@V?$allocator@U?$pair@$$CB_WK@std@@@2@$0A@@std@@@std@@KAAAPAU_Node@?$_Tree_nod@V?$_Tmap_traits@_WKU?$less@_W@std@@V?$allocator@U?$pair@$$CB_WK@std@@@2@$0A@@std@@@2@PAU342@@Z 004bf260 f i ClientConnection.obj
 0002:0002e270       ?_Right@?$_Tree@V?$_Tmap_traits@_WKU?$less@_W@std@@V?$allocator@U?$pair@$$CB_WK@std@@@2@$0A@@std@@@std@@KAAAPAU_Node@?$_Tree_nod@V?$_Tmap_traits@_WKU?$less@_W@std@@V?$allocator@U?$pair@$$CB_WK@std@@@2@$0A@@std@@@2@PAU342@@Z 004bf270 f i ClientConnection.obj
 0002:0002e280       ?begin@?$_Tree@V?$_Tmap_traits@_WKU?$less@_W@std@@V?$allocator@U?$pair@$$CB_WK@std@@@2@$0A@@std@@@std@@QAE?AViterator@12@XZ 004bf280 f i ClientConnection.obj
 0002:0002e2d0       ?end@?$_Tree@V?$_Tmap_traits@_WKU?$less@_W@std@@V?$allocator@U?$pair@$$CB_WK@std@@@2@$0A@@std@@@std@@QAE?AViterator@12@XZ 004bf2d0 f i ClientConnection.obj
 0002:0002e320       ?erase@?$_Tree@V?$_Tmap_traits@_WKU?$less@_W@std@@V?$allocator@U?$pair@$$CB_WK@std@@@2@$0A@@std@@@std@@QAE?AViterator@12@Vconst_iterator@12@0@Z 004bf320 f i ClientConnection.obj
 0002:0002e590       ?deallocate@?$allocator@U_Node@?$_Tree_nod@V?$_Tmap_traits@_WKU?$less@_W@std@@V?$allocator@U?$pair@$$CB_WK@std@@@2@$0A@@std@@@std@@@std@@QAEXPAU_Node@?$_Tree_nod@V?$_Tmap_traits@_WKU?$less@_W@std@@V?$allocator@U?$pair@$$CB_WK@std@@@2@$0A@@std@@@2@I@Z 004bf590 f i ClientConnection.obj
 0002:0002e5b0       ?destroy@?$allocator@PAU_Node@?$_Tree_nod@V?$_Tmap_traits@_WKU?$less@_W@std@@V?$allocator@U?$pair@$$CB_WK@std@@@2@$0A@@std@@@std@@@std@@QAEXPAPAU_Node@?$_Tree_nod@V?$_Tmap_traits@_WKU?$less@_W@std@@V?$allocator@U?$pair@$$CB_WK@std@@@2@$0A@@std@@@2@@Z 004bf5b0 f i ClientConnection.obj
 0002:0002e5d0       ?_Left@?$_Tree@V?$_Tmap_traits@K_WU?$less@K@std@@V?$allocator@U?$pair@$$CBK_W@std@@@2@$0A@@std@@@std@@KAAAPAU_Node@?$_Tree_nod@V?$_Tmap_traits@K_WU?$less@K@std@@V?$allocator@U?$pair@$$CBK_W@std@@@2@$0A@@std@@@2@PAU342@@Z 004bf5d0 f i ClientConnection.obj
 0002:0002e5e0       ?_Parent@?$_Tree@V?$_Tmap_traits@K_WU?$less@K@std@@V?$allocator@U?$pair@$$CBK_W@std@@@2@$0A@@std@@@std@@KAAAPAU_Node@?$_Tree_nod@V?$_Tmap_traits@K_WU?$less@K@std@@V?$allocator@U?$pair@$$CBK_W@std@@@2@$0A@@std@@@2@PAU342@@Z 004bf5e0 f i ClientConnection.obj
 0002:0002e5f0       ?_Right@?$_Tree@V?$_Tmap_traits@K_WU?$less@K@std@@V?$allocator@U?$pair@$$CBK_W@std@@@2@$0A@@std@@@std@@KAAAPAU_Node@?$_Tree_nod@V?$_Tmap_traits@K_WU?$less@K@std@@V?$allocator@U?$pair@$$CBK_W@std@@@2@$0A@@std@@@2@PAU342@@Z 004bf5f0 f i ClientConnection.obj
 0002:0002e600       ?begin@?$_Tree@V?$_Tmap_traits@K_WU?$less@K@std@@V?$allocator@U?$pair@$$CBK_W@std@@@2@$0A@@std@@@std@@QAE?AViterator@12@XZ 004bf600 f i ClientConnection.obj
 0002:0002e650       ?end@?$_Tree@V?$_Tmap_traits@K_WU?$less@K@std@@V?$allocator@U?$pair@$$CBK_W@std@@@2@$0A@@std@@@std@@QAE?AViterator@12@XZ 004bf650 f i ClientConnection.obj
 0002:0002e6a0       ?erase@?$_Tree@V?$_Tmap_traits@K_WU?$less@K@std@@V?$allocator@U?$pair@$$CBK_W@std@@@2@$0A@@std@@@std@@QAE?AViterator@12@Vconst_iterator@12@0@Z 004bf6a0 f i ClientConnection.obj
 0002:0002e910       ?deallocate@?$allocator@U_Node@?$_Tree_nod@V?$_Tmap_traits@K_WU?$less@K@std@@V?$allocator@U?$pair@$$CBK_W@std@@@2@$0A@@std@@@std@@@std@@QAEXPAU_Node@?$_Tree_nod@V?$_Tmap_traits@K_WU?$less@K@std@@V?$allocator@U?$pair@$$CBK_W@std@@@2@$0A@@std@@@2@I@Z 004bf910 f i ClientConnection.obj
 0002:0002e930       ?destroy@?$allocator@PAU_Node@?$_Tree_nod@V?$_Tmap_traits@K_WU?$less@K@std@@V?$allocator@U?$pair@$$CBK_W@std@@@2@$0A@@std@@@std@@@std@@QAEXPAPAU_Node@?$_Tree_nod@V?$_Tmap_traits@K_WU?$less@K@std@@V?$allocator@U?$pair@$$CBK_W@std@@@2@$0A@@std@@@2@@Z 004bf930 f i ClientConnection.obj
 0002:0002e950       ?_Make_iter@?$_Tree@V?$_Tmap_traits@_WKU?$less@_W@std@@V?$allocator@U?$pair@$$CB_WK@std@@@2@$0A@@std@@@std@@QBE?AViterator@12@Vconst_iterator@12@@Z 004bf950 f i ClientConnection.obj
 0002:0002ea10       ?erase@?$_Tree@V?$_Tmap_traits@_WKU?$less@_W@std@@V?$allocator@U?$pair@$$CB_WK@std@@@2@$0A@@std@@@std@@QAE?AViterator@12@Vconst_iterator@12@@Z 004bfa10 f i ClientConnection.obj
 0002:0002f410       ?clear@?$_Tree@V?$_Tmap_traits@_WKU?$less@_W@std@@V?$allocator@U?$pair@$$CB_WK@std@@@2@$0A@@std@@@std@@QAEXXZ 004c0410 f i ClientConnection.obj
 0002:0002f490       ?_Lmost@?$_Tree@V?$_Tmap_traits@_WKU?$less@_W@std@@V?$allocator@U?$pair@$$CB_WK@std@@@2@$0A@@std@@@std@@IBEAAPAU_Node@?$_Tree_nod@V?$_Tmap_traits@_WKU?$less@_W@std@@V?$allocator@U?$pair@$$CB_WK@std@@@2@$0A@@std@@@2@XZ 004c0490 f i ClientConnection.obj
 0002:0002f4b0       ?_Make_iter@?$_Tree@V?$_Tmap_traits@K_WU?$less@K@std@@V?$allocator@U?$pair@$$CBK_W@std@@@2@$0A@@std@@@std@@QBE?AViterator@12@Vconst_iterator@12@@Z 004c04b0 f i ClientConnection.obj
 0002:0002f570       ?erase@?$_Tree@V?$_Tmap_traits@K_WU?$less@K@std@@V?$allocator@U?$pair@$$CBK_W@std@@@2@$0A@@std@@@std@@QAE?AViterator@12@Vconst_iterator@12@@Z 004c0570 f i ClientConnection.obj
 0002:0002ff70       ?clear@?$_Tree@V?$_Tmap_traits@K_WU?$less@K@std@@V?$allocator@U?$pair@$$CBK_W@std@@@2@$0A@@std@@@std@@QAEXXZ 004c0f70 f i ClientConnection.obj
 0002:0002fff0       ?_Lmost@?$_Tree@V?$_Tmap_traits@K_WU?$less@K@std@@V?$allocator@U?$pair@$$CBK_W@std@@@2@$0A@@std@@@std@@IBEAAPAU_Node@?$_Tree_nod@V?$_Tmap_traits@K_WU?$less@K@std@@V?$allocator@U?$pair@$$CBK_W@std@@@2@$0A@@std@@@2@XZ 004c0ff0 f i ClientConnection.obj
 0002:00030010       ??0iterator@?$_Tree@V?$_Tmap_traits@_WKU?$less@_W@std@@V?$allocator@U?$pair@$$CB_WK@std@@@2@$0A@@std@@@std@@QAE@PAU_Node@?$_Tree_nod@V?$_Tmap_traits@_WKU?$less@_W@std@@V?$allocator@U?$pair@$$CB_WK@std@@@2@$0A@@std@@@2@PBV12@@Z 004c1010 f i ClientConnection.obj
 0002:00030040       ??Econst_iterator@?$_Tree@V?$_Tmap_traits@_WKU?$less@_W@std@@V?$allocator@U?$pair@$$CB_WK@std@@@2@$0A@@std@@@std@@QAE?AV012@H@Z 004c1040 f i ClientConnection.obj
 0002:000300e0       ??8const_iterator@?$_Tree@V?$_Tmap_traits@_WKU?$less@_W@std@@V?$allocator@U?$pair@$$CB_WK@std@@@2@$0A@@std@@@std@@QBE_NABV012@@Z 004c10e0 f i ClientConnection.obj
 0002:00030190       ??9const_iterator@?$_Tree@V?$_Tmap_traits@_WKU?$less@_W@std@@V?$allocator@U?$pair@$$CB_WK@std@@@2@$0A@@std@@@std@@QBE_NABV012@@Z 004c1190 f i ClientConnection.obj
 0002:000301c0       ??0iterator@?$_Tree@V?$_Tmap_traits@K_WU?$less@K@std@@V?$allocator@U?$pair@$$CBK_W@std@@@2@$0A@@std@@@std@@QAE@PAU_Node@?$_Tree_nod@V?$_Tmap_traits@K_WU?$less@K@std@@V?$allocator@U?$pair@$$CBK_W@std@@@2@$0A@@std@@@2@PBV12@@Z 004c11c0 f i ClientConnection.obj
 0002:000301f0       ??Econst_iterator@?$_Tree@V?$_Tmap_traits@K_WU?$less@K@std@@V?$allocator@U?$pair@$$CBK_W@std@@@2@$0A@@std@@@std@@QAE?AV012@H@Z 004c11f0 f i ClientConnection.obj
 0002:00030290       ??8const_iterator@?$_Tree@V?$_Tmap_traits@K_WU?$less@K@std@@V?$allocator@U?$pair@$$CBK_W@std@@@2@$0A@@std@@@std@@QBE_NABV012@@Z 004c1290 f i ClientConnection.obj
 0002:00030340       ??9const_iterator@?$_Tree@V?$_Tmap_traits@K_WU?$less@K@std@@V?$allocator@U?$pair@$$CBK_W@std@@@2@$0A@@std@@@std@@QBE_NABV012@@Z 004c1340 f i ClientConnection.obj
 0002:00030370       ??0iterator@?$_Tree@V?$_Tmap_traits@_WKU?$less@_W@std@@V?$allocator@U?$pair@$$CB_WK@std@@@2@$0A@@std@@@std@@QAE@ABV012@@Z 004c1370 f i ClientConnection.obj
 0002:000303a0       ??0iterator@?$_Tree@V?$_Tmap_traits@K_WU?$less@K@std@@V?$allocator@U?$pair@$$CBK_W@std@@@2@$0A@@std@@@std@@QAE@ABV012@@Z 004c13a0 f i ClientConnection.obj
 0002:000303d0       ?_Color@?$_Tree@V?$_Tmap_traits@_WKU?$less@_W@std@@V?$allocator@U?$pair@$$CB_WK@std@@@2@$0A@@std@@@std@@KAAADPAU_Node@?$_Tree_nod@V?$_Tmap_traits@_WKU?$less@_W@std@@V?$allocator@U?$pair@$$CB_WK@std@@@2@$0A@@std@@@2@@Z 004c13d0 f i ClientConnection.obj
 0002:000303e0       ?_Isnil@?$_Tree@V?$_Tmap_traits@_WKU?$less@_W@std@@V?$allocator@U?$pair@$$CB_WK@std@@@2@$0A@@std@@@std@@KAAADPAU_Node@?$_Tree_nod@V?$_Tmap_traits@_WKU?$less@_W@std@@V?$allocator@U?$pair@$$CB_WK@std@@@2@$0A@@std@@@2@@Z 004c13e0 f i ClientConnection.obj
 0002:000303f0       ?_Erase@?$_Tree@V?$_Tmap_traits@_WKU?$less@_W@std@@V?$allocator@U?$pair@$$CB_WK@std@@@2@$0A@@std@@@std@@IAEXPAU_Node@?$_Tree_nod@V?$_Tmap_traits@_WKU?$less@_W@std@@V?$allocator@U?$pair@$$CB_WK@std@@@2@$0A@@std@@@2@@Z 004c13f0 f i ClientConnection.obj
 0002:00030490       ?_Lrotate@?$_Tree@V?$_Tmap_traits@_WKU?$less@_W@std@@V?$allocator@U?$pair@$$CB_WK@std@@@2@$0A@@std@@@std@@IAEXPAU_Node@?$_Tree_nod@V?$_Tmap_traits@_WKU?$less@_W@std@@V?$allocator@U?$pair@$$CB_WK@std@@@2@$0A@@std@@@2@@Z 004c1490 f i ClientConnection.obj
 0002:00030610       ?_Max@?$_Tree@V?$_Tmap_traits@_WKU?$less@_W@std@@V?$allocator@U?$pair@$$CB_WK@std@@@2@$0A@@std@@@std@@KAPAU_Node@?$_Tree_nod@V?$_Tmap_traits@_WKU?$less@_W@std@@V?$allocator@U?$pair@$$CB_WK@std@@@2@$0A@@std@@@2@PAU342@@Z 004c1610 f i ClientConnection.obj
 0002:00030660       ?_Min@?$_Tree@V?$_Tmap_traits@_WKU?$less@_W@std@@V?$allocator@U?$pair@$$CB_WK@std@@@2@$0A@@std@@@std@@KAPAU_Node@?$_Tree_nod@V?$_Tmap_traits@_WKU?$less@_W@std@@V?$allocator@U?$pair@$$CB_WK@std@@@2@$0A@@std@@@2@PAU342@@Z 004c1660 f i ClientConnection.obj
 0002:000306b0       ?_Rmost@?$_Tree@V?$_Tmap_traits@_WKU?$less@_W@std@@V?$allocator@U?$pair@$$CB_WK@std@@@2@$0A@@std@@@std@@IBEAAPAU_Node@?$_Tree_nod@V?$_Tmap_traits@_WKU?$less@_W@std@@V?$allocator@U?$pair@$$CB_WK@std@@@2@$0A@@std@@@2@XZ 004c16b0 f i ClientConnection.obj
 0002:000306d0       ?_Root@?$_Tree@V?$_Tmap_traits@_WKU?$less@_W@std@@V?$allocator@U?$pair@$$CB_WK@std@@@2@$0A@@std@@@std@@IBEAAPAU_Node@?$_Tree_nod@V?$_Tmap_traits@_WKU?$less@_W@std@@V?$allocator@U?$pair@$$CB_WK@std@@@2@$0A@@std@@@2@XZ 004c16d0 f i ClientConnection.obj
 0002:000306f0       ?_Rrotate@?$_Tree@V?$_Tmap_traits@_WKU?$less@_W@std@@V?$allocator@U?$pair@$$CB_WK@std@@@2@$0A@@std@@@std@@IAEXPAU_Node@?$_Tree_nod@V?$_Tmap_traits@_WKU?$less@_W@std@@V?$allocator@U?$pair@$$CB_WK@std@@@2@$0A@@std@@@2@@Z 004c16f0 f i ClientConnection.obj
 0002:00030870       ?_Orphan_ptr@?$_Tree@V?$_Tmap_traits@_WKU?$less@_W@std@@V?$allocator@U?$pair@$$CB_WK@std@@@2@$0A@@std@@@std@@IBEXAAV12@PAU_Node@?$_Tree_nod@V?$_Tmap_traits@_WKU?$less@_W@std@@V?$allocator@U?$pair@$$CB_WK@std@@@2@$0A@@std@@@2@@Z 004c1870 f i ClientConnection.obj
 0002:00030910       ?destroy@?$allocator@U_Node@?$_Tree_nod@V?$_Tmap_traits@_WKU?$less@_W@std@@V?$allocator@U?$pair@$$CB_WK@std@@@2@$0A@@std@@@std@@@std@@QAEXPAU_Node@?$_Tree_nod@V?$_Tmap_traits@_WKU?$less@_W@std@@V?$allocator@U?$pair@$$CB_WK@std@@@2@$0A@@std@@@2@@Z 004c1910 f i ClientConnection.obj
 0002:00030930       ?_Color@?$_Tree@V?$_Tmap_traits@K_WU?$less@K@std@@V?$allocator@U?$pair@$$CBK_W@std@@@2@$0A@@std@@@std@@KAAADPAU_Node@?$_Tree_nod@V?$_Tmap_traits@K_WU?$less@K@std@@V?$allocator@U?$pair@$$CBK_W@std@@@2@$0A@@std@@@2@@Z 004c1930 f i ClientConnection.obj
 0002:00030940       ?_Isnil@?$_Tree@V?$_Tmap_traits@K_WU?$less@K@std@@V?$allocator@U?$pair@$$CBK_W@std@@@2@$0A@@std@@@std@@KAAADPAU_Node@?$_Tree_nod@V?$_Tmap_traits@K_WU?$less@K@std@@V?$allocator@U?$pair@$$CBK_W@std@@@2@$0A@@std@@@2@@Z 004c1940 f i ClientConnection.obj
 0002:00030950       ?_Erase@?$_Tree@V?$_Tmap_traits@K_WU?$less@K@std@@V?$allocator@U?$pair@$$CBK_W@std@@@2@$0A@@std@@@std@@IAEXPAU_Node@?$_Tree_nod@V?$_Tmap_traits@K_WU?$less@K@std@@V?$allocator@U?$pair@$$CBK_W@std@@@2@$0A@@std@@@2@@Z 004c1950 f i ClientConnection.obj
 0002:000309f0       ?_Lrotate@?$_Tree@V?$_Tmap_traits@K_WU?$less@K@std@@V?$allocator@U?$pair@$$CBK_W@std@@@2@$0A@@std@@@std@@IAEXPAU_Node@?$_Tree_nod@V?$_Tmap_traits@K_WU?$less@K@std@@V?$allocator@U?$pair@$$CBK_W@std@@@2@$0A@@std@@@2@@Z 004c19f0 f i ClientConnection.obj
 0002:00030b70       ?_Max@?$_Tree@V?$_Tmap_traits@K_WU?$less@K@std@@V?$allocator@U?$pair@$$CBK_W@std@@@2@$0A@@std@@@std@@KAPAU_Node@?$_Tree_nod@V?$_Tmap_traits@K_WU?$less@K@std@@V?$allocator@U?$pair@$$CBK_W@std@@@2@$0A@@std@@@2@PAU342@@Z 004c1b70 f i ClientConnection.obj
 0002:00030bc0       ?_Min@?$_Tree@V?$_Tmap_traits@K_WU?$less@K@std@@V?$allocator@U?$pair@$$CBK_W@std@@@2@$0A@@std@@@std@@KAPAU_Node@?$_Tree_nod@V?$_Tmap_traits@K_WU?$less@K@std@@V?$allocator@U?$pair@$$CBK_W@std@@@2@$0A@@std@@@2@PAU342@@Z 004c1bc0 f i ClientConnection.obj
 0002:00030c10       ?_Rmost@?$_Tree@V?$_Tmap_traits@K_WU?$less@K@std@@V?$allocator@U?$pair@$$CBK_W@std@@@2@$0A@@std@@@std@@IBEAAPAU_Node@?$_Tree_nod@V?$_Tmap_traits@K_WU?$less@K@std@@V?$allocator@U?$pair@$$CBK_W@std@@@2@$0A@@std@@@2@XZ 004c1c10 f i ClientConnection.obj
 0002:00030c30       ?_Root@?$_Tree@V?$_Tmap_traits@K_WU?$less@K@std@@V?$allocator@U?$pair@$$CBK_W@std@@@2@$0A@@std@@@std@@IBEAAPAU_Node@?$_Tree_nod@V?$_Tmap_traits@K_WU?$less@K@std@@V?$allocator@U?$pair@$$CBK_W@std@@@2@$0A@@std@@@2@XZ 004c1c30 f i ClientConnection.obj
 0002:00030c50       ?_Rrotate@?$_Tree@V?$_Tmap_traits@K_WU?$less@K@std@@V?$allocator@U?$pair@$$CBK_W@std@@@2@$0A@@std@@@std@@IAEXPAU_Node@?$_Tree_nod@V?$_Tmap_traits@K_WU?$less@K@std@@V?$allocator@U?$pair@$$CBK_W@std@@@2@$0A@@std@@@2@@Z 004c1c50 f i ClientConnection.obj
 0002:00030dd0       ?_Orphan_ptr@?$_Tree@V?$_Tmap_traits@K_WU?$less@K@std@@V?$allocator@U?$pair@$$CBK_W@std@@@2@$0A@@std@@@std@@IBEXAAV12@PAU_Node@?$_Tree_nod@V?$_Tmap_traits@K_WU?$less@K@std@@V?$allocator@U?$pair@$$CBK_W@std@@@2@$0A@@std@@@2@@Z 004c1dd0 f i ClientConnection.obj
 0002:00030e70       ?destroy@?$allocator@U_Node@?$_Tree_nod@V?$_Tmap_traits@K_WU?$less@K@std@@V?$allocator@U?$pair@$$CBK_W@std@@@2@$0A@@std@@@std@@@std@@QAEXPAU_Node@?$_Tree_nod@V?$_Tmap_traits@K_WU?$less@K@std@@V?$allocator@U?$pair@$$CBK_W@std@@@2@$0A@@std@@@2@@Z 004c1e70 f i ClientConnection.obj
 0002:00030e90       ??0const_iterator@?$_Tree@V?$_Tmap_traits@_WKU?$less@_W@std@@V?$allocator@U?$pair@$$CB_WK@std@@@2@$0A@@std@@@std@@QAE@PAU_Node@?$_Tree_nod@V?$_Tmap_traits@_WKU?$less@_W@std@@V?$allocator@U?$pair@$$CB_WK@std@@@2@$0A@@std@@@2@PBV12@@Z 004c1e90 f i ClientConnection.obj
 0002:00030f10       ??Econst_iterator@?$_Tree@V?$_Tmap_traits@_WKU?$less@_W@std@@V?$allocator@U?$pair@$$CB_WK@std@@@2@$0A@@std@@@std@@QAEAAV012@XZ 004c1f10 f i ClientConnection.obj
 0002:00030f30       ?_Mynode@const_iterator@?$_Tree@V?$_Tmap_traits@_WKU?$less@_W@std@@V?$allocator@U?$pair@$$CB_WK@std@@@2@$0A@@std@@@std@@QBEPAU_Node@?$_Tree_nod@V?$_Tmap_traits@_WKU?$less@_W@std@@V?$allocator@U?$pair@$$CB_WK@std@@@2@$0A@@std@@@3@XZ 004c1f30 f i ClientConnection.obj
 0002:00030f50       ??0const_iterator@?$_Tree@V?$_Tmap_traits@K_WU?$less@K@std@@V?$allocator@U?$pair@$$CBK_W@std@@@2@$0A@@std@@@std@@QAE@PAU_Node@?$_Tree_nod@V?$_Tmap_traits@K_WU?$less@K@std@@V?$allocator@U?$pair@$$CBK_W@std@@@2@$0A@@std@@@2@PBV12@@Z 004c1f50 f i ClientConnection.obj
 0002:00030fd0       ??Econst_iterator@?$_Tree@V?$_Tmap_traits@K_WU?$less@K@std@@V?$allocator@U?$pair@$$CBK_W@std@@@2@$0A@@std@@@std@@QAEAAV012@XZ 004c1fd0 f i ClientConnection.obj
 0002:00030ff0       ?_Mynode@const_iterator@?$_Tree@V?$_Tmap_traits@K_WU?$less@K@std@@V?$allocator@U?$pair@$$CBK_W@std@@@2@$0A@@std@@@std@@QBEPAU_Node@?$_Tree_nod@V?$_Tmap_traits@K_WU?$less@K@std@@V?$allocator@U?$pair@$$CBK_W@std@@@2@$0A@@std@@@3@XZ 004c1ff0 f i ClientConnection.obj
 0002:00031010       ??0?$_Bidit@U?$pair@$$CB_WK@std@@HPBU12@ABU12@@std@@QAE@XZ 004c2010 f i ClientConnection.obj
 0002:00031030       ??0?$_Bidit@U?$pair@$$CBK_W@std@@HPBU12@ABU12@@std@@QAE@XZ 004c2030 f i ClientConnection.obj
 0002:00031050       ??0?$_Iterator_with_base@Ubidirectional_iterator_tag@std@@U?$pair@$$CB_WK@2@HPBU32@ABU32@V_Iterator_base@2@@std@@QAE@XZ 004c2050 f i ClientConnection.obj
 0002:00031070       ??0?$_Iterator_with_base@Ubidirectional_iterator_tag@std@@U?$pair@$$CBK_W@2@HPBU32@ABU32@V_Iterator_base@2@@std@@QAE@XZ 004c2070 f i ClientConnection.obj
 0002:00031090       ?_Inc@const_iterator@?$_Tree@V?$_Tmap_traits@_WKU?$less@_W@std@@V?$allocator@U?$pair@$$CB_WK@std@@@2@$0A@@std@@@std@@QAEXXZ 004c2090 f i ClientConnection.obj
 0002:00031200       ?_Inc@const_iterator@?$_Tree@V?$_Tmap_traits@K_WU?$less@K@std@@V?$allocator@U?$pair@$$CBK_W@std@@@2@$0A@@std@@@std@@QAEXXZ 004c2200 f i ClientConnection.obj
 0002:00031370       ??$_Destroy@PAU_Node@?$_Tree_nod@V?$_Tmap_traits@_WKU?$less@_W@std@@V?$allocator@U?$pair@$$CB_WK@std@@@2@$0A@@std@@@std@@@std@@YAXPAPAU_Node@?$_Tree_nod@V?$_Tmap_traits@_WKU?$less@_W@std@@V?$allocator@U?$pair@$$CB_WK@std@@@2@$0A@@std@@@0@@Z 004c2370 f i ClientConnection.obj
 0002:00031380       ??$_Destroy@PAU_Node@?$_Tree_nod@V?$_Tmap_traits@K_WU?$less@K@std@@V?$allocator@U?$pair@$$CBK_W@std@@@2@$0A@@std@@@std@@@std@@YAXPAPAU_Node@?$_Tree_nod@V?$_Tmap_traits@K_WU?$less@K@std@@V?$allocator@U?$pair@$$CBK_W@std@@@2@$0A@@std@@@0@@Z 004c2380 f i ClientConnection.obj
 0002:00031390       ??$swap@D@std@@YAXAAD0@Z   004c2390 f i ClientConnection.obj
 0002:000313d0       ??$_Destroy@U_Node@?$_Tree_nod@V?$_Tmap_traits@_WKU?$less@_W@std@@V?$allocator@U?$pair@$$CB_WK@std@@@2@$0A@@std@@@std@@@std@@YAXPAU_Node@?$_Tree_nod@V?$_Tmap_traits@_WKU?$less@_W@std@@V?$allocator@U?$pair@$$CB_WK@std@@@2@$0A@@std@@@0@@Z 004c23d0 f i ClientConnection.obj
 0002:000313e0       ??$_Destroy@U_Node@?$_Tree_nod@V?$_Tmap_traits@K_WU?$less@K@std@@V?$allocator@U?$pair@$$CBK_W@std@@@2@$0A@@std@@@std@@@std@@YAXPAU_Node@?$_Tree_nod@V?$_Tmap_traits@K_WU?$less@K@std@@V?$allocator@U?$pair@$$CBK_W@std@@@2@$0A@@std@@@0@@Z 004c23e0 f i ClientConnection.obj
 0002:000313f0       ?ReadCacheRect@ClientConnection@@AAEXPAUrfbFramebufferUpdateRectHeader@@@Z 004c23f0 f   ClientConnectionCacheRect.obj
 0002:00031480       ?SaveArea@ClientConnection@@AAEXAAUtagRECT@@@Z 004c2480 f   ClientConnectionCacheRect.obj
 0002:00031630       ?RestoreArea@ClientConnection@@AAEXAAUtagRECT@@@Z 004c2630 f   ClientConnectionCacheRect.obj
 0002:00031900       ?ClearCache@ClientConnection@@AAEXXZ 004c2900 f   ClientConnectionCacheRect.obj
 0002:00031980       ?ReadCacheZip@ClientConnection@@AAEXPAUrfbFramebufferUpdateRectHeader@@PAPAUHRGN__@@@Z 004c2980 f   ClientConnectionCacheRect.obj
 0002:00031da0       ?ProcessLocalClipboardChange@ClientConnection@@AAEXXZ 004c2da0 f   ClientConnectionClipboard.obj
 0002:00032030       ?UpdateLocalClipboard@ClientConnection@@AAEXPADH@Z 004c3030 f   ClientConnectionClipboard.obj
 0002:00032350       ?ReadCopyRect@ClientConnection@@AAEXPAUrfbFramebufferUpdateRectHeader@@@Z 004c3350 f   ClientConnectionCopyRect.obj
 0002:00032870       ?ReadCoRRERect@ClientConnection@@AAEXPAUrfbFramebufferUpdateRectHeader@@@Z 004c3870 f   ClientConnectionCoRRE.obj
 0002:00033000       ?FillSolidRect@ClientConnection@@AAEXHHHHK@Z 004c4000 f i ClientConnectionCoRRE.obj
 0002:00033050       ?ReadCursorShape@ClientConnection@@AAEXPAUrfbFramebufferUpdateRectHeader@@@Z 004c4050 f   ClientConnectionCursor.obj
 0002:00033a00       ?ReadCursorPos@ClientConnection@@AAEXPAUrfbFramebufferUpdateRectHeader@@@Z 004c4a00 f   ClientConnectionCursor.obj
 0002:00033a70       ?SoftCursorLockArea@ClientConnection@@AAEXHHHH@Z 004c4a70 f   ClientConnectionCursor.obj
 0002:00033c80       ?SoftCursorUnlockScreen@ClientConnection@@AAEXXZ 004c4c80 f   ClientConnectionCursor.obj
 0002:00033d30       ?SoftCursorMove@ClientConnection@@AAEXHH@Z 004c4d30 f   ClientConnectionCursor.obj
 0002:00033e20       ?SoftCursorFree@ClientConnection@@AAEXXZ 004c4e20 f   ClientConnectionCursor.obj
 0002:00033f20       ?SoftCursorInLockedArea@ClientConnection@@AAE_NXZ 004c4f20 f   ClientConnectionCursor.obj
 0002:00033fe0       ?SoftCursorSaveArea@ClientConnection@@AAEXXZ 004c4fe0 f   ClientConnectionCursor.obj
 0002:00034170       ?SoftCursorRestoreArea@ClientConnection@@AAEXXZ 004c5170 f   ClientConnectionCursor.obj
 0002:00034310       ?SoftCursorDraw@ClientConnection@@AAEXXZ 004c5310 f   ClientConnectionCursor.obj
 0002:00034530       ?SoftCursorToScreen@ClientConnection@@AAEXPAUtagRECT@@PAUtagPOINT@@@Z 004c5530 f   ClientConnectionCursor.obj
 0002:00034690       ?InvalidateScreenRect@ClientConnection@@AAEXPBUtagRECT@@@Z 004c5690 f   ClientConnectionCursor.obj
 0002:000347e0       ?InvalidateRegion@ClientConnection@@AAEXPBUtagRECT@@PAPAUHRGN__@@@Z 004c57e0 f   ClientConnectionCursor.obj
 0002:00034f80       ?ofnInit@@YAXXZ            004c5f80 f   ClientConnectionFile.obj
 0002:00034fd0       ?SaveConnection@ClientConnection@@AAEXXZ 004c5fd0 f   ClientConnectionFile.obj
 0002:000352f0       ?Save_Latest_Connection@ClientConnection@@AAEXXZ 004c62f0 f   ClientConnectionFile.obj
 0002:000354f0       ?LoadConnection@ClientConnection@@QAEHPAD_N@Z 004c64f0 f   ClientConnectionFile.obj
 0002:00035b60       ?InFullScreenMode@ClientConnection@@AAE_NXZ 004c6b60 f   ClientConnectionFullScreen.obj
 0002:00035b80       ?SetFullScreenMode@ClientConnection@@AAEX_N@Z 004c6b80 f   ClientConnectionFullScreen.obj
 0002:00035cd0       ?RealiseFullScreenMode@ClientConnection@@AAEXXZ 004c6cd0 f   ClientConnectionFullScreen.obj
 0002:00036010       ?BumpScroll@ClientConnection@@AAE_NHH@Z 004c7010 f   ClientConnectionFullScreen.obj
 0002:000362a0       ?ReadHextileRect@ClientConnection@@AAEXPAUrfbFramebufferUpdateRectHeader@@@Z 004c72a0 f   ClientConnectionHextile.obj
 0002:00036350       ?HandleHextileEncoding8@ClientConnection@@AAEXHHHH@Z 004c7350 f   ClientConnectionHextile.obj
 0002:000369b0       ?HandleHextileEncoding16@ClientConnection@@AAEXHHHH@Z 004c79b0 f   ClientConnectionHextile.obj
 0002:00037040       ?HandleHextileEncoding32@ClientConnection@@AAEXHHHH@Z 004c8040 f   ClientConnectionHextile.obj
 0002:00037bd0       ?ReadRawRect@ClientConnection@@AAEXPAUrfbFramebufferUpdateRectHeader@@@Z 004c8bd0 f   ClientConnectionRaw.obj
 0002:00038310       ?ReadRRERect@ClientConnection@@AAEXPAUrfbFramebufferUpdateRectHeader@@@Z 004c9310 f   ClientConnectionRRE.obj
 0002:00038b50       ?ReadTightRect@ClientConnection@@AAEXPAUrfbFramebufferUpdateRectHeader@@@Z 004c9b50 f   ClientConnectionTight.obj
 0002:000397d0       ?ReadCompactLen@ClientConnection@@AAEHXZ 004ca7d0 f   ClientConnectionTight.obj
 0002:00039850       ?InitFilterCopy@ClientConnection@@AAEHHH@Z 004ca850 f   ClientConnectionTight.obj
 0002:00039920       ?InitFilterGradient@ClientConnection@@AAEHHH@Z 004ca920 f   ClientConnectionTight.obj
 0002:000399d0       ?InitFilterPalette@ClientConnection@@AAEHHH@Z 004ca9d0 f   ClientConnectionTight.obj
 0002:00039e90       ?FilterCopy8@ClientConnection@@AAEXH@Z 004cae90 f   ClientConnectionTight.obj
 0002:0003a020       ?FilterCopy16@ClientConnection@@AAEXH@Z 004cb020 f   ClientConnectionTight.obj
 0002:0003a1b0       ?FilterCopy24@ClientConnection@@AAEXH@Z 004cb1b0 f   ClientConnectionTight.obj
 0002:0003a2f0       ?FilterCopy32@ClientConnection@@AAEXH@Z 004cb2f0 f   ClientConnectionTight.obj
 0002:0003a480       ?FilterGradient8@ClientConnection@@AAEXH@Z 004cb480 f   ClientConnectionTight.obj
 0002:0003a8f0       ?FilterGradient16@ClientConnection@@AAEXH@Z 004cb8f0 f   ClientConnectionTight.obj
 0002:0003ad60       ?FilterGradient32@ClientConnection@@AAEXH@Z 004cbd60 f   ClientConnectionTight.obj
 0002:0003b1d0       ?FilterGradient24@ClientConnection@@AAEXH@Z 004cc1d0 f   ClientConnectionTight.obj
 0002:0003b500       ?FilterPalette@ClientConnection@@AAEXH@Z 004cc500 f   ClientConnectionTight.obj
 0002:0003b6f0       ?DecompressJpegRect@ClientConnection@@AAEXHHHH@Z 004cc6f0 f   ClientConnectionTight.obj
 0002:0003c840       ?ReadUltraRect@ClientConnection@@AAEXPAUrfbFramebufferUpdateRectHeader@@@Z 004cd840 f   ClientConnectionUltra.obj
 0002:0003ca30       ?ReadUltraZip@ClientConnection@@AAEXPAUrfbFramebufferUpdateRectHeader@@PAPAUHRGN__@@@Z 004cda30 f   ClientConnectionUltra.obj
 0002:0003ceb0       ?ReadZlibRect@ClientConnection@@AAEXPAUrfbFramebufferUpdateRectHeader@@H@Z 004cdeb0 f   ClientConnectionZlib.obj
 0002:0003f7d0       ?CheckZlibBufferSize@ClientConnection@@AAEXH@Z 004d07d0 f   ClientConnectionZlib.obj
 0002:0003f8c0       ?ReadSolidRect@ClientConnection@@AAEXPAUrfbFramebufferUpdateRectHeader@@@Z 004d08c0 f   ClientConnectionZlib.obj
 0002:0003fdf0       ?ReadSolMonoZip@ClientConnection@@AAEXPAUrfbFramebufferUpdateRectHeader@@PAPAUHRGN__@@@Z 004d0df0 f   ClientConnectionZlib.obj
 0002:00043830       ?zlibDecompress@ClientConnection@@AAE_NPAE0IIPAUz_stream_s@@@Z 004d4830 f   ClientConnectionZlibHex.obj
 0002:00043920       ?ReadZlibHexRect@ClientConnection@@AAEXPAUrfbFramebufferUpdateRectHeader@@@Z 004d4920 f   ClientConnectionZlibHex.obj
 0002:000439d0       ?HandleZlibHexEncoding8@ClientConnection@@AAEXHHHH@Z 004d49d0 f   ClientConnectionZlibHex.obj
 0002:00043f10       ?HandleZlibHexSubencodingStream8@ClientConnection@@AAEXHHHHH@Z 004d4f10 f   ClientConnectionZlibHex.obj
 0002:000442c0       ?HandleZlibHexSubencodingBuf8@ClientConnection@@AAEXHHHHHPAE@Z 004d52c0 f   ClientConnectionZlibHex.obj
 0002:00044650       ?HandleZlibHexEncoding16@ClientConnection@@AAEXHHHH@Z 004d5650 f   ClientConnectionZlibHex.obj
 0002:00044b90       ?HandleZlibHexSubencodingStream16@ClientConnection@@AAEXHHHHH@Z 004d5b90 f   ClientConnectionZlibHex.obj
 0002:00044f40       ?HandleZlibHexSubencodingBuf16@ClientConnection@@AAEXHHHHHPAE@Z 004d5f40 f   ClientConnectionZlibHex.obj
 0002:000452e0       ?HandleZlibHexEncoding32@ClientConnection@@AAEXHHHH@Z 004d62e0 f   ClientConnectionZlibHex.obj
 0002:00045830       ?HandleZlibHexSubencodingStream32@ClientConnection@@AAEXHHHHH@Z 004d6830 f   ClientConnectionZlibHex.obj
 0002:00045be0       ?HandleZlibHexSubencodingBuf32@ClientConnection@@AAEXHHHHHPAE@Z 004d6be0 f   ClientConnectionZlibHex.obj
 0002:00046940       _deskey                    004d7940 f   d3des.obj
 0002:00046d50       _cpkey                     004d7d50 f   d3des.obj
 0002:00046d90       _usekey                    004d7d90 f   d3des.obj
 0002:00046dd0       _des                       004d7dd0 f   d3des.obj
 0002:00047690       ??0Daemon@@QAE@H@Z         004d8690 f   Daemon.obj
 0002:00047990       ?AddTrayIcon@Daemon@@IAEXXZ 004d8990 f   Daemon.obj
 0002:000479c0       ?CheckTrayIcon@Daemon@@IAEXXZ 004d89c0 f   Daemon.obj
 0002:00047a10       ?RemoveTrayIcon@Daemon@@IAEXXZ 004d8a10 f   Daemon.obj
 0002:00047a40       ?SendTrayMsg@Daemon@@IAE_NK@Z 004d8a40 f   Daemon.obj
 0002:00047b60       ?WndProc@Daemon@@SGJPAUHWND__@@IIJ@Z 004d8b60 f   Daemon.obj
 0002:00047e90       ??1Daemon@@UAE@XZ          004d8e90 f   Daemon.obj
 0002:00047f00       ?SetListenMode@@YAX_N@Z    004d8f00 f   Daemon.obj
 0002:00047f10       ?GetListenMode@@YA_NXZ     004d8f10 f   Daemon.obj
 0002:00048140       ??_EDaemon@@UAEPAXI@Z      004d9140 f i Daemon.obj
 0002:00048140       ??_GDaemon@@UAEPAXI@Z      004d9140 f i Daemon.obj
 0002:00048180       ??0Except@@QAE@PBD@Z       004d9180 f   dh.obj
 0002:000481e0       ??0DH@@QAE@XZ              004d91e0 f   dh.obj
 0002:00048240       ??0DH@@QAE@_K0@Z           004d9240 f   dh.obj
 0002:00048350       ??1DH@@QAE@XZ              004d9350 f   dh.obj
 0002:00048370       ?rng@@YA_K_K@Z             004d9370 f   dh.obj
 0002:000483c0       ?millerRabin@DH@@AAE_N_KI@Z 004d93c0 f   dh.obj
 0002:00048460       ?generatePrime@DH@@AAE_KXZ 004d9460 f   dh.obj
 0002:000484c0       ?tryToGeneratePrime@DH@@AAE_K_K@Z 004d94c0 f   dh.obj
 0002:00048610       ?XpowYmodN@DH@@AAE_K_K00@Z 004d9610 f   dh.obj
 0002:000486f0       ?createKeys@DH@@QAEXXZ     004d96f0 f   dh.obj
 0002:00048780       ?createInterKey@DH@@QAE_KXZ 004d9780 f   dh.obj
 0002:000487f0       ?createEncryptionKey@DH@@QAE_K_K@Z 004d97f0 f   dh.obj
 0002:00048870       ?cleanMem@DH@@AAEXK@Z      004d9870 f   dh.obj
 0002:000488e0       ?getValue@DH@@QAE_KK@Z     004d98e0 f   dh.obj
 0002:00048960       ?bits@@YAH_J@Z             004d9960 f   dh.obj
 0002:000489b0       ?int64ToBytes@@YA_N_KQAD@Z 004d99b0 f   dh.obj
 0002:00048a00       ?bytesToInt64@@YA_KQBD@Z   004d9a00 f   dh.obj
 0002:00048a70       ?vncWc2Mb@@YA_NPADPA_WH@Z  004d9a70 f   dh.obj
 0002:00048d30       ??_GExcept@@UAEPAXI@Z      004d9d30 f i dh.obj
 0002:00048d30       ??_EExcept@@UAEPAXI@Z      004d9d30 f i dh.obj
 0002:00048d70       ??1Except@@UAE@XZ          004d9d70 f i dh.obj
 0002:00048dc0       ??0Except@@QAE@ABV0@@Z     004d9dc0 f i dh.obj
 0002:00048df0       ?MyStrToken@@YAHPAD0HD@Z   004d9df0 f   DSMPlugin.obj
 0002:00048ea0       ??0CDSMPlugin@@QAE@XZ      004d9ea0 f   DSMPlugin.obj
 0002:00048ff0       ??1CDSMPlugin@@UAE@XZ      004d9ff0 f   DSMPlugin.obj
 0002:00049070       ?SetEnabled@CDSMPlugin@@QAEX_N@Z 004da070 f   DSMPlugin.obj
 0002:00049090       ?SetLoaded@CDSMPlugin@@QAEX_N@Z 004da090 f   DSMPlugin.obj
 0002:000490b0       ?DescribePlugin@CDSMPlugin@@QAEPADXZ 004da0b0 f   DSMPlugin.obj
 0002:00049180       ?InitPlugin@CDSMPlugin@@QAE_NXZ 004da180 f   DSMPlugin.obj
 0002:000491b0       ?ResetPlugin@CDSMPlugin@@QAE_NXZ 004da1b0 f   DSMPlugin.obj
 0002:000491e0       ?SetPluginParams@CDSMPlugin@@QAE_NPAUHWND__@@PAD@Z 004da1e0 f   DSMPlugin.obj
 0002:00049220       ?GetPluginParams@CDSMPlugin@@QAEPADXZ 004da220 f   DSMPlugin.obj
 0002:00049240       ?ListPlugins@CDSMPlugin@@QAEHPAUHWND__@@@Z 004da240 f   DSMPlugin.obj
 0002:000493a0       ?LoadPlugin@CDSMPlugin@@QAE_NPAD_N@Z 004da3a0 f   DSMPlugin.obj
 0002:000498c0       ?UnloadPlugin@CDSMPlugin@@QAE_NXZ 004da8c0 f   DSMPlugin.obj
 0002:00049990       ?TransformBuffer@CDSMPlugin@@QAEPAEPAEHPAH@Z 004da990 f   DSMPlugin.obj
 0002:00049a30       ?RestoreBufferStep1@CDSMPlugin@@QAEPAEPAEHPAH@Z 004daa30 f   DSMPlugin.obj
 0002:00049a70       ?RestoreBufferStep2@CDSMPlugin@@QAEPAEPAEHPAH@Z 004daa70 f   DSMPlugin.obj
 0002:00049ab0       ?RestoreBufferUnlock@CDSMPlugin@@QAEXXZ 004daab0 f   DSMPlugin.obj
 0002:00049df0       ??_GCDSMPlugin@@UAEPAXI@Z  004dadf0 f i DSMPlugin.obj
 0002:00049df0       ??_ECDSMPlugin@@UAEPAXI@Z  004dadf0 f i DSMPlugin.obj
 0002:00049e30       ?strrchr@@YAPADPADH@Z      004dae30 f i DSMPlugin.obj
 0002:00049e50       ??0Exception@@QAE@PBDH@Z   004dae50 f   Exception.obj
 0002:00049ee0       ??1Exception@@UAE@XZ       004daee0 f   Exception.obj
 0002:00049f10       ??0QuietException@@QAE@PBDH@Z 004daf10 f   Exception.obj
 0002:00049f40       ??1QuietException@@UAE@XZ  004daf40 f   Exception.obj
 0002:00049f60       ?Report@QuietException@@UAEXXZ 004daf60 f   Exception.obj
 0002:00049f90       ??0WarningException@@QAE@PBDH_N@Z 004daf90 f   Exception.obj
 0002:00049fd0       ??1WarningException@@UAE@XZ 004dafd0 f   Exception.obj
 0002:00049ff0       ?Report@WarningException@@UAEXXZ 004daff0 f   Exception.obj
 0002:0004a040       ??0ErrorException@@QAE@PBDH@Z 004db040 f   Exception.obj
 0002:0004a070       ??1ErrorException@@UAE@XZ  004db070 f   Exception.obj
 0002:0004a090       ?Report@ErrorException@@UAEXXZ 004db090 f   Exception.obj
 0002:0004a180       ?DeleteFileOrDirectory@FileTransfer@@QAE_NPAD@Z 004db180 f   FileTransfer.obj
 0002:0004a230       ??0FileTransfer@@QAE@PAVVNCviewerApp@@PAVClientConnection@@@Z 004db230 f   FileTransfer.obj
 0002:0004a490       ??1FileTransfer@@UAE@XZ    004db490 f   FileTransfer.obj
 0002:0004a5a0       ?InitFTTimer@FileTransfer@@QAEXXZ 004db5a0 f   FileTransfer.obj
 0002:0004a5f0       ?KillFTTimer@FileTransfer@@QAEXXZ 004db5f0 f   FileTransfer.obj
 0002:0004a620       ?fpTimer@FileTransfer@@SGXIIKKK@Z 004db620 f   FileTransfer.obj
 0002:0004a700       ?ShowFileTransferWindow@FileTransfer@@QAEX_N@Z 004db700 f   FileTransfer.obj
 0002:0004a7b0       ?PseudoYield@@YA_NPAUHWND__@@@Z 004db7b0 f   FileTransfer.obj
 0002:0004a800       ?ProcessFileTransferMsg@FileTransfer@@QAEXXZ 004db800 f   FileTransfer.obj
 0002:0004ae30       ?RequestPermission@FileTransfer@@QAEXXZ 004dbe30 f   FileTransfer.obj
 0002:0004ae70       ?TestPermission@FileTransfer@@QAE_NJH@Z 004dbe70 f   FileTransfer.obj
 0002:0004af60       ?ReceiveFiles@FileTransfer@@QAE_NKH@Z 004dbf60 f   FileTransfer.obj
 0002:0004afb0       ?RequestNextFile@FileTransfer@@QAE_NXZ 004dbfb0 f   FileTransfer.obj
 0002:0004b290       ?SendFiles@FileTransfer@@QAE_NJH@Z 004dc290 f   FileTransfer.obj
 0002:0004b2e0       ?OfferNextFile@FileTransfer@@QAE_NXZ 004dc2e0 f   FileTransfer.obj
 0002:0004b5f0       ?GetFriendlyFileSizeString@FileTransfer@@QAEX_JPAD@Z 004dc5f0 f   FileTransfer.obj
 0002:0004b790       ?MyGetFileSize@FileTransfer@@QAE_NPADPAT_ULARGE_INTEGER@@@Z 004dc790 f   FileTransfer.obj
 0002:0004b830       ?AddFileToFileList@FileTransfer@@QAEXPAUHWND__@@HAAU_WIN32_FIND_DATAA@@_N@Z 004dc830 f   FileTransfer.obj
 0002:0004bb80       ?HighlightTransferedFiles@FileTransfer@@QAEXPAUHWND__@@0@Z 004dcb80 f   FileTransfer.obj
 0002:0004bda0       ?IsShortcutFolder@FileTransfer@@QAE_NPAD@Z 004dcda0 f   FileTransfer.obj
 0002:0004bea0       ?ResolvePossibleShortcutFolder@FileTransfer@@QAE_NPAUHWND__@@PAD@Z 004dcea0 f   FileTransfer.obj
 0002:0004c010       ?GetSpecialFolderPath@FileTransfer@@QAE_NHPAD@Z 004dd010 f   FileTransfer.obj
 0002:0004c050       ?PopulateLocalListBox@FileTransfer@@QAEXPAUHWND__@@PAD@Z 004dd050 f   FileTransfer.obj
 0002:0004c690       ?RequestRemoteDirectoryContent@FileTransfer@@QAEXPAUHWND__@@PAD@Z 004dd690 f   FileTransfer.obj
 0002:0004cb40       ?PopulateRemoteListBox@FileTransfer@@QAEXPAUHWND__@@H@Z 004ddb40 f   FileTransfer.obj
 0002:0004cca0       ?ReceiveDirectoryItem@FileTransfer@@QAEXPAUHWND__@@H@Z 004ddca0 f   FileTransfer.obj
 0002:0004cdb0       ?FinishDirectoryReception@FileTransfer@@QAEXXZ 004dddb0 f   FileTransfer.obj
 0002:0004ce80       ?RequestRemoteDrives@FileTransfer@@QAEXXZ 004dde80 f   FileTransfer.obj
 0002:0004ced0       ?ListRemoteDrives@FileTransfer@@QAEXPAUHWND__@@H@Z 004dded0 f   FileTransfer.obj
 0002:0004d3a0       ?ListDrives@FileTransfer@@QAEXPAUHWND__@@@Z 004de3a0 f   FileTransfer.obj
 0002:0004d850       ?SetTotalSize@FileTransfer@@QAEXPAUHWND__@@K@Z 004de850 f   FileTransfer.obj
 0002:0004d8b0       ?SetGauge@FileTransfer@@QAEXPAUHWND__@@_J@Z 004de8b0 f   FileTransfer.obj
 0002:0004d9e0       ?SetGlobalCount@FileTransfer@@QAEXXZ 004de9e0 f   FileTransfer.obj
 0002:0004da40       ?SetStatus@FileTransfer@@QAEXPAD@Z 004dea40 f   FileTransfer.obj
 0002:0004db40       ?RequestRemoteFile@FileTransfer@@QAEXPAD@Z 004deb40 f   FileTransfer.obj
 0002:0004dd50       ?ReceiveFile@FileTransfer@@QAE_NKH@Z 004ded50 f   FileTransfer.obj
 0002:0004e780       ?ReceiveFileChunk@FileTransfer@@QAE_NHH@Z 004df780 f   FileTransfer.obj
 0002:0004eb30       ?FinishFileReception@FileTransfer@@QAE_NXZ 004dfb30 f   FileTransfer.obj
 0002:0004eda0       ?UnzipPossibleDirectory@FileTransfer@@QAEHPAD@Z 004dfda0 f   FileTransfer.obj
 0002:0004ef80       ?AbortFileReception@FileTransfer@@QAE_NXZ 004dff80 f   FileTransfer.obj
 0002:0004f020       ?OfferLocalFile@FileTransfer@@QAE_NPAD@Z 004e0020 f   FileTransfer.obj
 0002:0004f5d0       ?ZipPossibleDirectory@FileTransfer@@QAEHPAD@Z 004e05d0 f   FileTransfer.obj
 0002:0004f900       ?ReceiveDestinationFileChecksums@FileTransfer@@QAE_NHH@Z 004e0900 f   FileTransfer.obj
 0002:0004f980       ?SendFile@FileTransfer@@QAE_NJH@Z 004e0980 f   FileTransfer.obj
 0002:0004fc20       ?SendFileChunk@FileTransfer@@QAE_NXZ 004e0c20 f   FileTransfer.obj
 0002:00050090       ?FinishFileSending@FileTransfer@@QAE_NXZ 004e1090 f   FileTransfer.obj
 0002:00050330       ?CreateRemoteDirectory@FileTransfer@@QAEXPAD@Z 004e1330 f   FileTransfer.obj
 0002:000503f0       ?DeleteRemoteFile@FileTransfer@@QAEXPAD@Z 004e13f0 f   FileTransfer.obj
 0002:000504b0       ?RenameRemoteFileOrDirectory@FileTransfer@@QAEXPAD0@Z 004e14b0 f   FileTransfer.obj
 0002:000505e0       ?CreateRemoteDirectoryFeedback@FileTransfer@@QAE_NJH@Z 004e15e0 f   FileTransfer.obj
 0002:00050790       ?DeleteRemoteFileFeedback@FileTransfer@@QAE_NJH@Z 004e1790 f   FileTransfer.obj
 0002:000509b0       ?RenameRemoteFileOrDirectoryFeedback@FileTransfer@@QAE_NJH@Z 004e19b0 f   FileTransfer.obj
 0002:00050c10       ?GenerateFileChecksums@FileTransfer@@QAEHPAXPADH@Z 004e1c10 f   FileTransfer.obj
 0002:00050d30       ?IsDirectoryGetIt@FileTransfer@@QAE_NPAD@Z 004e1d30 f   FileTransfer.obj
 0002:00050de0       ?DoDialog@FileTransfer@@QAEHXZ 004e1de0 f   FileTransfer.obj
 0002:00050e10       ?FTAdjustLeft@@YAXPAUtagRECT@@@Z 004e1e10 f   FileTransfer.obj
 0002:00050e60       ?FTAdjustTop@@YAXPAUtagRECT@@@Z 004e1e60 f   FileTransfer.obj
 0002:00050eb0       ?FTAdjustRight@@YAXPAUtagRECT@@@Z 004e1eb0 f   FileTransfer.obj
 0002:00050f00       ?FTAdjustBottom@@YAXPAUtagRECT@@@Z 004e1f00 f   FileTransfer.obj
 0002:00050f50       ?FTAdjustFileNameColumns@@YAXPAUHWND__@@@Z 004e1f50 f   FileTransfer.obj
 0002:00051010       ?FileTransferDlgProc@FileTransfer@@SGHPAUHWND__@@IIJ@Z 004e2010 f   FileTransfer.obj
 0002:00053e50       ?DoFTParamDialog@FileTransfer@@QAEHPAD0@Z 004e4e50 f   FileTransfer.obj
 0002:00053eb0       ?FTParamDlgProc@FileTransfer@@SGHPAUHWND__@@IIJ@Z 004e4eb0 f   FileTransfer.obj
 0002:00054050       ?DoFTConfirmDialog@FileTransfer@@QAEHPAD0@Z 004e5050 f   FileTransfer.obj
 0002:000540b0       ?FTConfirmDlgProc@FileTransfer@@SGHPAUHWND__@@IIJ@Z 004e50b0 f   FileTransfer.obj
 0002:00054270       ?DisableButtons@FileTransfer@@QAEXPAUHWND__@@@Z 004e5270 f   FileTransfer.obj
 0002:000543f0       ?EnableButtons@FileTransfer@@QAEXPAUHWND__@@@Z 004e53f0 f   FileTransfer.obj
 0002:00054570       ?InitListViewImagesList@FileTransfer@@QAEXPAUHWND__@@@Z 004e5570 f   FileTransfer.obj
 0002:00054650       ?ListViewLocalCompareProc@FileTransfer@@SGHJJJ@Z 004e5650 f   FileTransfer.obj
 0002:000548d0       ?GetFileSizeFromString@FileTransfer@@SA_JPAD@Z 004e58d0 f   FileTransfer.obj
 0002:00054a60       ?GetFileTimeFromString@FileTransfer@@SA?AU_FILETIME@@PAD@Z 004e5a60 f   FileTransfer.obj
 0002:00057580       ??_GFileTransfer@@UAEPAXI@Z 004e8580 f i FileTransfer.obj
 0002:00057580       ??_EFileTransfer@@UAEPAXI@Z 004e8580 f i FileTransfer.obj
 0002:000575c0       ??1?$_Iterator@$00@?$list@HV?$allocator@H@std@@@std@@QAE@XZ 004e85c0 f i FileTransfer.obj
 0002:000575e0       ??1?$_Const_iterator@$00@?$list@HV?$allocator@H@std@@@std@@QAE@XZ 004e85e0 f i FileTransfer.obj
 0002:00057600       ??1?$_Bidit@HHPBHABH@std@@QAE@XZ 004e8600 f i FileTransfer.obj
 0002:00057620       ??1?$_Iterator_with_base@Ubidirectional_iterator_tag@std@@HHPBHABHV_Iterator_base@2@@std@@QAE@XZ 004e8620 f i FileTransfer.obj
 0002:00057640       ?IsDormant@ClientConnection@@QAE_NXZ 004e8640 f i FileTransfer.obj
 0002:00057660       ??4?$_Iterator@$00@?$list@HV?$allocator@H@std@@@std@@QAEAAV012@ABV012@@Z 004e8660 f i FileTransfer.obj
 0002:00057690       ??4?$_Const_iterator@$00@?$list@HV?$allocator@H@std@@@std@@QAEAAV012@ABV012@@Z 004e8690 f i FileTransfer.obj
 0002:000576d0       ??4?$_Bidit@HHPBHABH@std@@QAEAAU01@ABU01@@Z 004e86d0 f i FileTransfer.obj
 0002:00057700       ??4?$_Iterator_with_base@Ubidirectional_iterator_tag@std@@HHPBHABHV_Iterator_base@2@@std@@QAEAAU01@ABU01@@Z 004e8700 f i FileTransfer.obj
 0002:00057730       ?_mbsrchr@@YAPAEPAEI@Z     004e8730 f i FileTransfer.obj
 0002:00057750       _Int64ShraMod32@12         004e8750 f i FileTransfer.obj
 0002:00057770       ?_mbschr@@YAPAEPAEI@Z      004e8770 f i FileTransfer.obj
 0002:00057790       ??0?$list@HV?$allocator@H@std@@@std@@QAE@XZ 004e8790 f i FileTransfer.obj
 0002:00057820       ??1?$list@HV?$allocator@H@std@@@std@@QAE@XZ 004e8820 f i FileTransfer.obj
 0002:00057890       ?begin@?$list@HV?$allocator@H@std@@@std@@QAE?AV?$_Iterator@$00@12@XZ 004e8890 f i FileTransfer.obj
 0002:000578e0       ?end@?$list@HV?$allocator@H@std@@@std@@QAE?AV?$_Iterator@$00@12@XZ 004e88e0 f i FileTransfer.obj
 0002:00057930       ?size@?$list@HV?$allocator@H@std@@@std@@QBEIXZ 004e8930 f i FileTransfer.obj
 0002:00057950       ?push_back@?$list@HV?$allocator@H@std@@@std@@QAEXABH@Z 004e8950 f i FileTransfer.obj
 0002:00057a00       ?clear@?$list@HV?$allocator@H@std@@@std@@QAEXXZ 004e8a00 f i FileTransfer.obj
 0002:00057ae0       ??0?$_Iterator@$00@?$list@HV?$allocator@H@std@@@std@@QAE@XZ 004e8ae0 f i FileTransfer.obj
 0002:00057b00       ??D?$_Iterator@$00@?$list@HV?$allocator@H@std@@@std@@QBEAAHXZ 004e8b00 f i FileTransfer.obj
 0002:00057b20       ??E?$_Iterator@$00@?$list@HV?$allocator@H@std@@@std@@QAE?AV012@H@Z 004e8b20 f i FileTransfer.obj
 0002:00057bc0       ??9?$_Const_iterator@$00@?$list@HV?$allocator@H@std@@@std@@QBE_NABV012@@Z 004e8bc0 f i FileTransfer.obj
 0002:00057bf0       ??1?$_List_val@HV?$allocator@H@std@@@std@@QAE@XZ 004e8bf0 f i FileTransfer.obj
 0002:00057c10       ??0?$_Const_iterator@$00@?$list@HV?$allocator@H@std@@@std@@QAE@ABV012@@Z 004e8c10 f i FileTransfer.obj
 0002:00057c50       ??0?$_Iterator@$00@?$list@HV?$allocator@H@std@@@std@@QAE@ABV012@@Z 004e8c50 f i FileTransfer.obj
 0002:00057c80       ??1?$_List_ptr@HV?$allocator@H@std@@@std@@QAE@XZ 004e8c80 f i FileTransfer.obj
 0002:00057ca0       ??0?$_Bidit@HHPBHABH@std@@QAE@ABU01@@Z 004e8ca0 f i FileTransfer.obj
 0002:00057cd0       ??1?$_List_nod@HV?$allocator@H@std@@@std@@QAE@XZ 004e8cd0 f i FileTransfer.obj
 0002:00057cf0       ??0?$_Iterator_with_base@Ubidirectional_iterator_tag@std@@HHPBHABHV_Iterator_base@2@@std@@QAE@ABU01@@Z 004e8cf0 f i FileTransfer.obj
 0002:00057d20       ?_Nextnode@?$list@HV?$allocator@H@std@@@std@@KAAAPAU_Node@?$_List_nod@HV?$allocator@H@std@@@2@PAU342@@Z 004e8d20 f i FileTransfer.obj
 0002:00057d30       ?_Prevnode@?$list@HV?$allocator@H@std@@@std@@KAAAPAU_Node@?$_List_nod@HV?$allocator@H@std@@@2@PAU342@@Z 004e8d30 f i FileTransfer.obj
 0002:00057d40       ?_Insert@?$list@HV?$allocator@H@std@@@std@@QAEXV?$_Const_iterator@$00@12@ABH@Z 004e8d40 f i FileTransfer.obj
 0002:00057e50       ?_Buynode@?$list@HV?$allocator@H@std@@@std@@IAEPAU_Node@?$_List_nod@HV?$allocator@H@std@@@2@XZ 004e8e50 f i FileTransfer.obj
 0002:00057f90       ?_Tidy@?$list@HV?$allocator@H@std@@@std@@IAEXXZ 004e8f90 f i FileTransfer.obj
 0002:00058010       ?_Orphan_ptr@?$list@HV?$allocator@H@std@@@std@@IBEXAAV12@PAU_Node@?$_List_nod@HV?$allocator@H@std@@@2@@Z 004e9010 f i FileTransfer.obj
 0002:000580b0       ??0?$_List_val@HV?$allocator@H@std@@@std@@QAE@V?$allocator@H@1@@Z 004e90b0 f i FileTransfer.obj
 0002:00058100       ??1?$_Container_base_aux_alloc_empty@V?$allocator@H@std@@@std@@IAE@XZ 004e9100 f i FileTransfer.obj
 0002:00058120       ??0?$allocator@H@std@@QAE@XZ 004e9120 f i FileTransfer.obj
 0002:00058140       ?deallocate@?$allocator@U_Node@?$_List_nod@HV?$allocator@H@std@@@std@@@std@@QAEXPAU_Node@?$_List_nod@HV?$allocator@H@std@@@2@I@Z 004e9140 f i FileTransfer.obj
 0002:00058160       ?destroy@?$allocator@U_Node@?$_List_nod@HV?$allocator@H@std@@@std@@@std@@QAEXPAU_Node@?$_List_nod@HV?$allocator@H@std@@@2@@Z 004e9160 f i FileTransfer.obj
 0002:00058180       ??0?$_Iterator@$00@?$list@HV?$allocator@H@std@@@std@@QAE@PAU_Node@?$_List_nod@HV?$allocator@H@std@@@2@PBV12@@Z 004e9180 f i FileTransfer.obj
 0002:000581b0       ??E?$_Iterator@$00@?$list@HV?$allocator@H@std@@@std@@QAEAAV012@XZ 004e91b0 f i FileTransfer.obj
 0002:000581d0       ??0?$_Const_iterator@$00@?$list@HV?$allocator@H@std@@@std@@QAE@XZ 004e91d0 f i FileTransfer.obj
 0002:00058200       ??D?$_Const_iterator@$00@?$list@HV?$allocator@H@std@@@std@@QBEABHXZ 004e9200 f i FileTransfer.obj
 0002:000582d0       ??8?$_Const_iterator@$00@?$list@HV?$allocator@H@std@@@std@@QBE_NABV012@@Z 004e92d0 f i FileTransfer.obj
 0002:00058310       ??0?$_Bidit@HHPBHABH@std@@QAE@XZ 004e9310 f i FileTransfer.obj
 0002:00058330       ??0?$_Iterator_with_base@Ubidirectional_iterator_tag@std@@HHPBHABHV_Iterator_base@2@@std@@QAE@XZ 004e9330 f i FileTransfer.obj
 0002:00058350       ?_Myval@?$list@HV?$allocator@H@std@@@std@@KAAAHPAU_Node@?$_List_nod@HV?$allocator@H@std@@@2@@Z 004e9350 f i FileTransfer.obj
 0002:00058360       ?_Buynode@?$list@HV?$allocator@H@std@@@std@@IAEPAU_Node@?$_List_nod@HV?$allocator@H@std@@@2@PAU342@0ABH@Z 004e9360 f i FileTransfer.obj
 0002:00058500       ?_Incsize@?$list@HV?$allocator@H@std@@@std@@IAEXI@Z 004e9500 f i FileTransfer.obj
 0002:000585c0       ??0length_error@std@@QAE@ABV?$basic_string@DU?$char_traits@D@std@@V?$allocator@D@2@@1@@Z 004e95c0 f i FileTransfer.obj
 0002:000585f0       ??0logic_error@std@@QAE@ABV?$basic_string@DU?$char_traits@D@std@@V?$allocator@D@2@@1@@Z 004e95f0 f i FileTransfer.obj
 0002:00058680       ?what@logic_error@std@@UBEPBDXZ 004e9680 f i FileTransfer.obj
 0002:000586a0       ??_Glogic_error@std@@UAEPAXI@Z 004e96a0 f i FileTransfer.obj
 0002:000586a0       ??_Elogic_error@std@@UAEPAXI@Z 004e96a0 f i FileTransfer.obj
 0002:000586e0       ??1logic_error@std@@UAE@XZ 004e96e0 f i FileTransfer.obj
 0002:00058710       ??1length_error@std@@UAE@XZ 004e9710 f i FileTransfer.obj
 0002:00058740       ??_Elength_error@std@@UAEPAXI@Z 004e9740 f i FileTransfer.obj
 0002:00058740       ??_Glength_error@std@@UAEPAXI@Z 004e9740 f i FileTransfer.obj
 0002:00058780       ??0?$_List_ptr@HV?$allocator@H@std@@@std@@IAE@V?$allocator@H@1@@Z 004e9780 f i FileTransfer.obj
 0002:000587d0       ??0?$allocator@H@std@@QAE@ABV01@@Z 004e97d0 f i FileTransfer.obj
 0002:000587f0       ?allocate@?$allocator@U_Node@?$_List_nod@HV?$allocator@H@std@@@std@@@std@@QAEPAU_Node@?$_List_nod@HV?$allocator@H@std@@@2@I@Z 004e97f0 f i FileTransfer.obj
 0002:00058820       ?construct@?$allocator@PAU_Node@?$_List_nod@HV?$allocator@H@std@@@std@@@std@@QAEXPAPAU_Node@?$_List_nod@HV?$allocator@H@std@@@2@ABQAU342@@Z 004e9820 f i FileTransfer.obj
 0002:00058850       ?destroy@?$allocator@PAU_Node@?$_List_nod@HV?$allocator@H@std@@@std@@@std@@QAEXPAPAU_Node@?$_List_nod@HV?$allocator@H@std@@@2@@Z 004e9850 f i FileTransfer.obj
 0002:00058870       ??0?$_Const_iterator@$00@?$list@HV?$allocator@H@std@@@std@@QAE@PAU_Node@?$_List_nod@HV?$allocator@H@std@@@2@PBV12@@Z 004e9870 f i FileTransfer.obj
 0002:000588f0       ??E?$_Const_iterator@$00@?$list@HV?$allocator@H@std@@@std@@QAEAAV012@XZ 004e98f0 f i FileTransfer.obj
 0002:000589d0       ?_Mynode@?$_Const_iterator@$00@?$list@HV?$allocator@H@std@@@std@@QBEPAU_Node@?$_List_nod@HV?$allocator@H@std@@@3@XZ 004e99d0 f i FileTransfer.obj
 0002:000589f0       ?_Compat@?$_Const_iterator@$00@?$list@HV?$allocator@H@std@@@std@@QBEXABV123@@Z 004e99f0 f i FileTransfer.obj
 0002:00058aa0       ??0length_error@std@@QAE@ABV01@@Z 004e9aa0 f i FileTransfer.obj
 0002:00058ad0       ??0logic_error@std@@QAE@ABV01@@Z 004e9ad0 f i FileTransfer.obj
 0002:00058b60       ?max_size@?$list@HV?$allocator@H@std@@@std@@QBEIXZ 004e9b60 f i FileTransfer.obj
 0002:00058b80       ??0?$_List_nod@HV?$allocator@H@std@@@std@@IAE@V?$allocator@H@1@@Z 004e9b80 f i FileTransfer.obj
 0002:00058bd0       ?construct@?$allocator@H@std@@QAEXPAHABH@Z 004e9bd0 f i FileTransfer.obj
 0002:00058c00       ??0?$_Container_base_aux_alloc_empty@V?$allocator@H@std@@@std@@IAE@V?$allocator@H@1@@Z 004e9c00 f i FileTransfer.obj
 0002:00058c20       ?max_size@?$allocator@H@std@@QBEIXZ 004e9c20 f i FileTransfer.obj
 0002:00058c60       ??$_Destroy@U_Node@?$_List_nod@HV?$allocator@H@std@@@std@@@std@@YAXPAU_Node@?$_List_nod@HV?$allocator@H@std@@@0@@Z 004e9c60 f i FileTransfer.obj
 0002:00058c70       ??$?0H@?$allocator@PAU_Node@?$_List_nod@HV?$allocator@H@std@@@std@@@std@@QAE@ABV?$allocator@H@1@@Z 004e9c70 f i FileTransfer.obj
 0002:00058c90       ??$_Allocate@U_Node@?$_List_nod@HV?$allocator@H@std@@@std@@@std@@YAPAU_Node@?$_List_nod@HV?$allocator@H@std@@@0@IPAU120@@Z 004e9c90 f i FileTransfer.obj
 0002:00058cf0       ??$_Construct@PAU_Node@?$_List_nod@HV?$allocator@H@std@@@std@@PAU123@@std@@YAXPAPAU_Node@?$_List_nod@HV?$allocator@H@std@@@0@ABQAU120@@Z 004e9cf0 f i FileTransfer.obj
 0002:00058d40       ??2@YAPAXIPAX@Z            004e9d40 f i FileTransfer.obj
 0002:00058d50       ??$_Destroy@PAU_Node@?$_List_nod@HV?$allocator@H@std@@@std@@@std@@YAXPAPAU_Node@?$_List_nod@HV?$allocator@H@std@@@0@@Z 004e9d50 f i FileTransfer.obj
 0002:00058d60       ??$?0H@?$allocator@U_Node@?$_List_nod@HV?$allocator@H@std@@@std@@@std@@QAE@ABV?$allocator@H@1@@Z 004e9d60 f i FileTransfer.obj
 0002:00058d80       ??$_Construct@HH@std@@YAXPAHABH@Z 004e9d80 f i FileTransfer.obj
 0002:00058dd0       ??0Flasher@@QAE@H@Z        004e9dd0 f   Flasher.obj
 0002:00059100       ?KillScreenSaverFunc@@YGHPAUHWND__@@J@Z 004ea100 f   Flasher.obj
 0002:00059170       ?WndProc@Flasher@@SGJPAUHWND__@@IIJ@Z 004ea170 f   Flasher.obj
 0002:00059590       ?CloseScreenSaver@Flasher@@SAXXZ 004ea590 f   Flasher.obj
 0002:00059680       ??1Flasher@@UAE@XZ         004ea680 f   Flasher.obj
 0002:00059910       ??_EFlasher@@UAEPAXI@Z     004ea910 f i Flasher.obj
 0002:00059910       ??_GFlasher@@UAEPAXI@Z     004ea910 f i Flasher.obj
 0002:00059950       ?scalechar@@YAHD@Z         004ea950 f i Flasher.obj
 0002:00059980       _InitMultipleMonitorStubs  004ea980 f   FullScreenTitleBar.obj
 0002:00059b30       _xGetSystemMetrics@4       004eab30 f   FullScreenTitleBar.obj
 0002:00059bb0       _xMonitorFromRect@8        004eabb0 f   FullScreenTitleBar.obj
 0002:00059c20       _xMonitorFromWindow@8      004eac20 f   FullScreenTitleBar.obj
 0002:00059c80       _xMonitorFromPoint@12      004eac80 f   FullScreenTitleBar.obj
 0002:00059ce0       _xGetMonitorInfo@8         004eace0 f   FullScreenTitleBar.obj
 0002:00059dc0       _xEnumDisplayMonitors@16   004eadc0 f   FullScreenTitleBar.obj
 0002:00059ef0       _xEnumDisplayDevices@16    004eaef0 f   FullScreenTitleBar.obj
 0002:00059f20       ??0CTitleBar@@QAE@XZ       004eaf20 f   FullScreenTitleBar.obj
 0002:00059f80       ??0CTitleBar@@QAE@PAUHINSTANCE__@@PAUHWND__@@@Z 004eaf80 f   FullScreenTitleBar.obj
 0002:00059fc0       ??1CTitleBar@@UAE@XZ       004eafc0 f   FullScreenTitleBar.obj
 0002:0005a050       ?Init@CTitleBar@@AAEXXZ    004eb050 f   FullScreenTitleBar.obj
 0002:0005a120       ?Create@CTitleBar@@QAEXPAUHINSTANCE__@@PAUHWND__@@@Z 004eb120 f   FullScreenTitleBar.obj
 0002:0005a150       ?CreateDisplay@CTitleBar@@AAEXXZ 004eb150 f   FullScreenTitleBar.obj
 0002:0005a3f0       ?WndProc@CTitleBar@@CGJPAUHWND__@@IIJ@Z 004eb3f0 f   FullScreenTitleBar.obj
 0002:0005ade0       ?LoadPictures@CTitleBar@@AAEXXZ 004ebde0 f   FullScreenTitleBar.obj
 0002:0005ae70       ?FreePictures@CTitleBar@@AAEXXZ 004ebe70 f   FullScreenTitleBar.obj
 0002:0005aec0       ?Draw@CTitleBar@@AAEXXZ    004ebec0 f   FullScreenTitleBar.obj
 0002:0005b2e0       ?SetText@CTitleBar@@QAEXPAD@Z 004ec2e0 f   FullScreenTitleBar.obj
 0002:0005b300       ?DisplayWindow@CTitleBar@@QAEXHH@Z 004ec300 f   FullScreenTitleBar.obj
 0002:0005b420       ?MoveToMonitor@CTitleBar@@QAEXPAUHMONITOR__@@@Z 004ec420 f   FullScreenTitleBar.obj
 0002:0005bb90       ??_GCTitleBar@@UAEPAXI@Z   004ecb90 f i FullScreenTitleBar.obj
 0002:0005bb90       ??_ECTitleBar@@UAEPAXI@Z   004ecb90 f i FullScreenTitleBar.obj
 0002:0005bbd0       ??0KeyMap@@QAE@XZ          004ecbd0 f   KeyMap.obj
 0002:0005be60       ?SetKeyMapOption1@KeyMap@@QAEX_N@Z 004ece60 f   KeyMap.obj
 0002:0005be90       ?SetKeyMapOption2@KeyMap@@QAEX_N@Z 004ece90 f   KeyMap.obj
 0002:0005beb0       ?Reset@KeyMap@@QAEXXZ      004eceb0 f   KeyMap.obj
 0002:0005bf60       ?ReleaseAllKeys@KeyMap@@QAEXPAVClientConnection@@@Z 004ecf60 f   KeyMap.obj
 0002:0005c020       ?FlushDeadKey@KeyMap@@AAEXPAE@Z 004ed020 f   KeyMap.obj
 0002:0005c110       ?StoreModifier@KeyMap@@AAEXPAE0@Z 004ed110 f   KeyMap.obj
 0002:0005c180       ?SetModifier@KeyMap@@AAEXEPAE@Z 004ed180 f   KeyMap.obj
 0002:0005c320       ?BuildUCS2KS_Map@KeyMap@@AAEXXZ 004ed320 f   KeyMap.obj
 0002:0005e7e0       ?UCS2X@KeyMap@@AAEK_W@Z    004ef7e0 f   KeyMap.obj
 0002:0005fa20       ?PCtoX@KeyMap@@QAEXEKPAVClientConnection@@@Z 004f0a20 f   KeyMap.obj
 0002:000601b0       ?releaseKey@KeyMap@@AAEXPAVClientConnection@@I@Z 004f11b0 f   KeyMap.obj
 0002:00060240       ?pressKey@KeyMap@@AAEXPAVClientConnection@@IK@Z 004f1240 f   KeyMap.obj
 0002:00061500       ??0ModifierKeyReleaser@@QAE@PAVClientConnection@@E_N@Z 004f2500 f i KeyMap.obj
 0002:00061690       ?release@ModifierKeyReleaser@@QAEXPAK@Z 004f2690 f i KeyMap.obj
 0002:00061750       ??1ModifierKeyReleaser@@QAE@XZ 004f2750 f i KeyMap.obj
 0002:000617e0       ??0?$map@_WKU?$less@_W@std@@V?$allocator@U?$pair@$$CB_WK@std@@@2@@std@@QAE@XZ 004f27e0 f i KeyMap.obj
 0002:00061810       ??A?$map@_WKU?$less@_W@std@@V?$allocator@U?$pair@$$CB_WK@std@@@2@@std@@QAEAAKAB_W@Z 004f2810 f i KeyMap.obj
 0002:000619e0       ?find@?$_Tree@V?$_Tmap_traits@_WKU?$less@_W@std@@V?$allocator@U?$pair@$$CB_WK@std@@@2@$0A@@std@@@std@@QAE?AViterator@12@AB_W@Z 004f29e0 f i KeyMap.obj
 0002:00061b90       ??0?$map@K_WU?$less@K@std@@V?$allocator@U?$pair@$$CBK_W@std@@@2@@std@@QAE@XZ 004f2b90 f i KeyMap.obj
 0002:00061bc0       ??A?$map@K_WU?$less@K@std@@V?$allocator@U?$pair@$$CBK_W@std@@@2@@std@@QAEAA_WABK@Z 004f2bc0 f i KeyMap.obj
 0002:00061d90       ??4iterator@?$_Tree@V?$_Tmap_traits@_WKU?$less@_W@std@@V?$allocator@U?$pair@$$CB_WK@std@@@2@$0A@@std@@@std@@QAEAAV012@ABV012@@Z 004f2d90 f i KeyMap.obj
 0002:00061dc0       ??4iterator@?$_Tree@V?$_Tmap_traits@K_WU?$less@K@std@@V?$allocator@U?$pair@$$CBK_W@std@@@2@$0A@@std@@@std@@QAEAAV012@ABV012@@Z 004f2dc0 f i KeyMap.obj
 0002:00061df0       ??4const_iterator@?$_Tree@V?$_Tmap_traits@_WKU?$less@_W@std@@V?$allocator@U?$pair@$$CB_WK@std@@@2@$0A@@std@@@std@@QAEAAV012@ABV012@@Z 004f2df0 f i KeyMap.obj
 0002:00061e30       ??4const_iterator@?$_Tree@V?$_Tmap_traits@K_WU?$less@K@std@@V?$allocator@U?$pair@$$CBK_W@std@@@2@$0A@@std@@@std@@QAEAAV012@ABV012@@Z 004f2e30 f i KeyMap.obj
 0002:00061e70       ??4?$_Bidit@U?$pair@$$CB_WK@std@@HPBU12@ABU12@@std@@QAEAAU01@ABU01@@Z 004f2e70 f i KeyMap.obj
 0002:00061ea0       ??4?$_Bidit@U?$pair@$$CBK_W@std@@HPBU12@ABU12@@std@@QAEAAU01@ABU01@@Z 004f2ea0 f i KeyMap.obj
 0002:00061ed0       ??4?$_Iterator_with_base@Ubidirectional_iterator_tag@std@@U?$pair@$$CB_WK@2@HPBU32@ABU32@V_Iterator_base@2@@std@@QAEAAU01@ABU01@@Z 004f2ed0 f i KeyMap.obj
 0002:00061f00       ??4?$_Iterator_with_base@Ubidirectional_iterator_tag@std@@U?$pair@$$CBK_W@2@HPBU32@ABU32@V_Iterator_base@2@@std@@QAEAAU01@ABU01@@Z 004f2f00 f i KeyMap.obj
 0002:00061f30       ?_Key@?$_Tree@V?$_Tmap_traits@_WKU?$less@_W@std@@V?$allocator@U?$pair@$$CB_WK@std@@@2@$0A@@std@@@std@@KAAB_WPAU_Node@?$_Tree_nod@V?$_Tmap_traits@_WKU?$less@_W@std@@V?$allocator@U?$pair@$$CB_WK@std@@@2@$0A@@std@@@2@@Z 004f2f30 f i KeyMap.obj
 0002:00061f50       ??0?$_Tree@V?$_Tmap_traits@_WKU?$less@_W@std@@V?$allocator@U?$pair@$$CB_WK@std@@@2@$0A@@std@@@std@@QAE@ABU?$less@_W@1@ABV?$allocator@U?$pair@$$CB_WK@std@@@1@@Z 004f2f50 f i KeyMap.obj
 0002:00061fe0       ?insert@?$_Tree@V?$_Tmap_traits@_WKU?$less@_W@std@@V?$allocator@U?$pair@$$CB_WK@std@@@2@$0A@@std@@@std@@QAE?AViterator@12@Vconst_iterator@12@ABU?$pair@$$CB_WK@2@@Z 004f2fe0 f i KeyMap.obj
 0002:00062e80       ?lower_bound@?$_Tree@V?$_Tmap_traits@_WKU?$less@_W@std@@V?$allocator@U?$pair@$$CB_WK@std@@@2@$0A@@std@@@std@@QAE?AViterator@12@AB_W@Z 004f3e80 f i KeyMap.obj
 0002:00062ed0       ??0?$allocator@U?$pair@$$CB_WK@std@@@std@@QAE@XZ 004f3ed0 f i KeyMap.obj
 0002:00062ef0       ??R?$less@_W@std@@QBE_NAB_W0@Z 004f3ef0 f i KeyMap.obj
 0002:00062f20       ?_Key@?$_Tree@V?$_Tmap_traits@K_WU?$less@K@std@@V?$allocator@U?$pair@$$CBK_W@std@@@2@$0A@@std@@@std@@KAABKPAU_Node@?$_Tree_nod@V?$_Tmap_traits@K_WU?$less@K@std@@V?$allocator@U?$pair@$$CBK_W@std@@@2@$0A@@std@@@2@@Z 004f3f20 f i KeyMap.obj
 0002:00062f40       ??0?$_Tree@V?$_Tmap_traits@K_WU?$less@K@std@@V?$allocator@U?$pair@$$CBK_W@std@@@2@$0A@@std@@@std@@QAE@ABU?$less@K@1@ABV?$allocator@U?$pair@$$CBK_W@std@@@1@@Z 004f3f40 f i KeyMap.obj
 0002:00062fd0       ?insert@?$_Tree@V?$_Tmap_traits@K_WU?$less@K@std@@V?$allocator@U?$pair@$$CBK_W@std@@@2@$0A@@std@@@std@@QAE?AViterator@12@Vconst_iterator@12@ABU?$pair@$$CBK_W@2@@Z 004f3fd0 f i KeyMap.obj
 0002:00063e70       ?lower_bound@?$_Tree@V?$_Tmap_traits@K_WU?$less@K@std@@V?$allocator@U?$pair@$$CBK_W@std@@@2@$0A@@std@@@std@@QAE?AViterator@12@ABK@Z 004f4e70 f i KeyMap.obj
 0002:00063ec0       ??0?$allocator@U?$pair@$$CBK_W@std@@@std@@QAE@XZ 004f4ec0 f i KeyMap.obj
 0002:00063ee0       ??R?$less@K@std@@QBE_NABK0@Z 004f4ee0 f i KeyMap.obj
 0002:00063f10       ??Diterator@?$_Tree@V?$_Tmap_traits@_WKU?$less@_W@std@@V?$allocator@U?$pair@$$CB_WK@std@@@2@$0A@@std@@@std@@QBEAAU?$pair@$$CB_WK@2@XZ 004f4f10 f i KeyMap.obj
 0002:00063f30       ??0?$pair@$$CB_WK@std@@QAE@AB_WABK@Z 004f4f30 f i KeyMap.obj
 0002:00063f60       ??Diterator@?$_Tree@V?$_Tmap_traits@K_WU?$less@K@std@@V?$allocator@U?$pair@$$CBK_W@std@@@2@$0A@@std@@@std@@QBEAAU?$pair@$$CBK_W@2@XZ 004f4f60 f i KeyMap.obj
 0002:00063f80       ??0?$pair@$$CBK_W@std@@QAE@ABKAB_W@Z 004f4f80 f i KeyMap.obj
 0002:00063fb0       ??1?$pair@Viterator@?$_Tree@V?$_Tmap_traits@_WKU?$less@_W@std@@V?$allocator@U?$pair@$$CB_WK@std@@@2@$0A@@std@@@std@@_N@std@@QAE@XZ 004f4fb0 f i KeyMap.obj
 0002:00063fd0       ??1?$pair@Viterator@?$_Tree@V?$_Tmap_traits@K_WU?$less@K@std@@V?$allocator@U?$pair@$$CBK_W@std@@@2@$0A@@std@@@std@@_N@std@@QAE@XZ 004f4fd0 f i KeyMap.obj
 0002:00063ff0       ?_Myval@?$_Tree@V?$_Tmap_traits@_WKU?$less@_W@std@@V?$allocator@U?$pair@$$CB_WK@std@@@2@$0A@@std@@@std@@KAAAU?$pair@$$CB_WK@2@PAU_Node@?$_Tree_nod@V?$_Tmap_traits@_WKU?$less@_W@std@@V?$allocator@U?$pair@$$CB_WK@std@@@2@$0A@@std@@@2@@Z 004f4ff0 f i KeyMap.obj
 0002:00064000       ?size@?$_Tree@V?$_Tmap_traits@_WKU?$less@_W@std@@V?$allocator@U?$pair@$$CB_WK@std@@@2@$0A@@std@@@std@@QBEIXZ 004f5000 f i KeyMap.obj
 0002:00064020       ?insert@?$_Tree@V?$_Tmap_traits@_WKU?$less@_W@std@@V?$allocator@U?$pair@$$CB_WK@std@@@2@$0A@@std@@@std@@QAE?AU?$pair@Viterator@?$_Tree@V?$_Tmap_traits@_WKU?$less@_W@std@@V?$allocator@U?$pair@$$CB_WK@std@@@2@$0A@@std@@@std@@_N@2@ABU?$pair@$$CB_WK@2@@Z 004f5020 f i KeyMap.obj
 0002:000643f0       ?_Init@?$_Tree@V?$_Tmap_traits@_WKU?$less@_W@std@@V?$allocator@U?$pair@$$CB_WK@std@@@2@$0A@@std@@@std@@IAEXXZ 004f53f0 f i KeyMap.obj
 0002:00064470       ?_Insert@?$_Tree@V?$_Tmap_traits@_WKU?$less@_W@std@@V?$allocator@U?$pair@$$CB_WK@std@@@2@$0A@@std@@@std@@IAE?AViterator@12@_NPAU_Node@?$_Tree_nod@V?$_Tmap_traits@_WKU?$less@_W@std@@V?$allocator@U?$pair@$$CB_WK@std@@@2@$0A@@std@@@2@ABU?$pair@$$CB_WK@2@@Z 004f5470 f i KeyMap.obj
 0002:00064a20       ?_Lbound@?$_Tree@V?$_Tmap_traits@_WKU?$less@_W@std@@V?$allocator@U?$pair@$$CB_WK@std@@@2@$0A@@std@@@std@@IBEPAU_Node@?$_Tree_nod@V?$_Tmap_traits@_WKU?$less@_W@std@@V?$allocator@U?$pair@$$CB_WK@std@@@2@$0A@@std@@@2@AB_W@Z 004f5a20 f i KeyMap.obj
 0002:00064ae0       ??0?$_Tree_val@V?$_Tmap_traits@_WKU?$less@_W@std@@V?$allocator@U?$pair@$$CB_WK@std@@@2@$0A@@std@@@std@@IAE@ABU?$less@_W@1@V?$allocator@U?$pair@$$CB_WK@std@@@1@@Z 004f5ae0 f i KeyMap.obj
 0002:00064b30       ?_Kfn@?$_Tmap_traits@_WKU?$less@_W@std@@V?$allocator@U?$pair@$$CB_WK@std@@@2@$0A@@std@@SAAB_WABU?$pair@$$CB_WK@2@@Z 004f5b30 f i KeyMap.obj
 0002:00064b40       ??0?$allocator@U?$pair@$$CB_WK@std@@@std@@QAE@ABV01@@Z 004f5b40 f i KeyMap.obj
 0002:00064b60       ?_Myval@?$_Tree@V?$_Tmap_traits@K_WU?$less@K@std@@V?$allocator@U?$pair@$$CBK_W@std@@@2@$0A@@std@@@std@@KAAAU?$pair@$$CBK_W@2@PAU_Node@?$_Tree_nod@V?$_Tmap_traits@K_WU?$less@K@std@@V?$allocator@U?$pair@$$CBK_W@std@@@2@$0A@@std@@@2@@Z 004f5b60 f i KeyMap.obj
 0002:00064b70       ?size@?$_Tree@V?$_Tmap_traits@K_WU?$less@K@std@@V?$allocator@U?$pair@$$CBK_W@std@@@2@$0A@@std@@@std@@QBEIXZ 004f5b70 f i KeyMap.obj
 0002:00064b90       ?insert@?$_Tree@V?$_Tmap_traits@K_WU?$less@K@std@@V?$allocator@U?$pair@$$CBK_W@std@@@2@$0A@@std@@@std@@QAE?AU?$pair@Viterator@?$_Tree@V?$_Tmap_traits@K_WU?$less@K@std@@V?$allocator@U?$pair@$$CBK_W@std@@@2@$0A@@std@@@std@@_N@2@ABU?$pair@$$CBK_W@2@@Z 004f5b90 f i KeyMap.obj
 0002:00064f60       ?_Init@?$_Tree@V?$_Tmap_traits@K_WU?$less@K@std@@V?$allocator@U?$pair@$$CBK_W@std@@@2@$0A@@std@@@std@@IAEXXZ 004f5f60 f i KeyMap.obj
 0002:00064fe0       ?_Insert@?$_Tree@V?$_Tmap_traits@K_WU?$less@K@std@@V?$allocator@U?$pair@$$CBK_W@std@@@2@$0A@@std@@@std@@IAE?AViterator@12@_NPAU_Node@?$_Tree_nod@V?$_Tmap_traits@K_WU?$less@K@std@@V?$allocator@U?$pair@$$CBK_W@std@@@2@$0A@@std@@@2@ABU?$pair@$$CBK_W@2@@Z 004f5fe0 f i KeyMap.obj
 0002:00065590       ?_Lbound@?$_Tree@V?$_Tmap_traits@K_WU?$less@K@std@@V?$allocator@U?$pair@$$CBK_W@std@@@2@$0A@@std@@@std@@IBEPAU_Node@?$_Tree_nod@V?$_Tmap_traits@K_WU?$less@K@std@@V?$allocator@U?$pair@$$CBK_W@std@@@2@$0A@@std@@@2@ABK@Z 004f6590 f i KeyMap.obj
 0002:00065650       ??0?$_Tree_val@V?$_Tmap_traits@K_WU?$less@K@std@@V?$allocator@U?$pair@$$CBK_W@std@@@2@$0A@@std@@@std@@IAE@ABU?$less@K@1@V?$allocator@U?$pair@$$CBK_W@std@@@1@@Z 004f6650 f i KeyMap.obj
 0002:000656a0       ?_Kfn@?$_Tmap_traits@K_WU?$less@K@std@@V?$allocator@U?$pair@$$CBK_W@std@@@2@$0A@@std@@SAABKABU?$pair@$$CBK_W@2@@Z 004f66a0 f i KeyMap.obj
 0002:000656b0       ??0?$allocator@U?$pair@$$CBK_W@std@@@std@@QAE@ABV01@@Z 004f66b0 f i KeyMap.obj
 0002:000656d0       ??0const_iterator@?$_Tree@V?$_Tmap_traits@_WKU?$less@_W@std@@V?$allocator@U?$pair@$$CB_WK@std@@@2@$0A@@std@@@std@@QAE@XZ 004f66d0 f i KeyMap.obj
 0002:00065700       ??Dconst_iterator@?$_Tree@V?$_Tmap_traits@_WKU?$less@_W@std@@V?$allocator@U?$pair@$$CB_WK@std@@@2@$0A@@std@@@std@@QBEABU?$pair@$$CB_WK@2@XZ 004f6700 f i KeyMap.obj
 0002:000657c0       ??Fconst_iterator@?$_Tree@V?$_Tmap_traits@_WKU?$less@_W@std@@V?$allocator@U?$pair@$$CB_WK@std@@@2@$0A@@std@@@std@@QAEAAV012@XZ 004f67c0 f i KeyMap.obj
 0002:000657e0       ??0const_iterator@?$_Tree@V?$_Tmap_traits@K_WU?$less@K@std@@V?$allocator@U?$pair@$$CBK_W@std@@@2@$0A@@std@@@std@@QAE@XZ 004f67e0 f i KeyMap.obj
 0002:00065810       ??Dconst_iterator@?$_Tree@V?$_Tmap_traits@K_WU?$less@K@std@@V?$allocator@U?$pair@$$CBK_W@std@@@2@$0A@@std@@@std@@QBEABU?$pair@$$CBK_W@2@XZ 004f6810 f i KeyMap.obj
 0002:000658d0       ??Fconst_iterator@?$_Tree@V?$_Tmap_traits@K_WU?$less@K@std@@V?$allocator@U?$pair@$$CBK_W@std@@@2@$0A@@std@@@std@@QAEAAV012@XZ 004f68d0 f i KeyMap.obj
 0002:000658f0       ?max_size@?$_Tree@V?$_Tmap_traits@_WKU?$less@_W@std@@V?$allocator@U?$pair@$$CB_WK@std@@@2@$0A@@std@@@std@@QBEIXZ 004f68f0 f i KeyMap.obj
 0002:00065910       ?_Buynode@?$_Tree@V?$_Tmap_traits@_WKU?$less@_W@std@@V?$allocator@U?$pair@$$CB_WK@std@@@2@$0A@@std@@@std@@IAEPAU_Node@?$_Tree_nod@V?$_Tmap_traits@_WKU?$less@_W@std@@V?$allocator@U?$pair@$$CB_WK@std@@@2@$0A@@std@@@2@XZ 004f6910 f i KeyMap.obj
 0002:00065af0       ?_Buynode@?$_Tree@V?$_Tmap_traits@_WKU?$less@_W@std@@V?$allocator@U?$pair@$$CB_WK@std@@@2@$0A@@std@@@std@@IAEPAU_Node@?$_Tree_nod@V?$_Tmap_traits@_WKU?$less@_W@std@@V?$allocator@U?$pair@$$CB_WK@std@@@2@$0A@@std@@@2@PAU342@00ABU?$pair@$$CB_WK@2@D@Z 004f6af0 f i KeyMap.obj
 0002:00065c10       ??3@YAXPAX0@Z              004f6c10 f i KeyMap.obj
 0002:00065c20       ??0?$_Tree_ptr@V?$_Tmap_traits@_WKU?$less@_W@std@@V?$allocator@U?$pair@$$CB_WK@std@@@2@$0A@@std@@@std@@QAE@ABU?$less@_W@1@V?$allocator@U?$pair@$$CB_WK@std@@@1@@Z 004f6c20 f i KeyMap.obj
 0002:00065c70       ?max_size@?$_Tree@V?$_Tmap_traits@K_WU?$less@K@std@@V?$allocator@U?$pair@$$CBK_W@std@@@2@$0A@@std@@@std@@QBEIXZ 004f6c70 f i KeyMap.obj
 0002:00065c90       ?_Buynode@?$_Tree@V?$_Tmap_traits@K_WU?$less@K@std@@V?$allocator@U?$pair@$$CBK_W@std@@@2@$0A@@std@@@std@@IAEPAU_Node@?$_Tree_nod@V?$_Tmap_traits@K_WU?$less@K@std@@V?$allocator@U?$pair@$$CBK_W@std@@@2@$0A@@std@@@2@XZ 004f6c90 f i KeyMap.obj
 0002:00065e70       ?_Buynode@?$_Tree@V?$_Tmap_traits@K_WU?$less@K@std@@V?$allocator@U?$pair@$$CBK_W@std@@@2@$0A@@std@@@std@@IAEPAU_Node@?$_Tree_nod@V?$_Tmap_traits@K_WU?$less@K@std@@V?$allocator@U?$pair@$$CBK_W@std@@@2@$0A@@std@@@2@PAU342@00ABU?$pair@$$CBK_W@2@D@Z 004f6e70 f i KeyMap.obj
 0002:00065f90       ??0?$_Tree_ptr@V?$_Tmap_traits@K_WU?$less@K@std@@V?$allocator@U?$pair@$$CBK_W@std@@@2@$0A@@std@@@std@@QAE@ABU?$less@K@1@V?$allocator@U?$pair@$$CBK_W@std@@@1@@Z 004f6f90 f i KeyMap.obj
 0002:00065fe0       ??Fiterator@?$_Tree@V?$_Tmap_traits@_WKU?$less@_W@std@@V?$allocator@U?$pair@$$CB_WK@std@@@2@$0A@@std@@@std@@QAEAAV012@XZ 004f6fe0 f i KeyMap.obj
 0002:00066000       ?_Dec@const_iterator@?$_Tree@V?$_Tmap_traits@_WKU?$less@_W@std@@V?$allocator@U?$pair@$$CB_WK@std@@@2@$0A@@std@@@std@@QAEXXZ 004f7000 f i KeyMap.obj
 0002:000662b0       ??Fiterator@?$_Tree@V?$_Tmap_traits@K_WU?$less@K@std@@V?$allocator@U?$pair@$$CBK_W@std@@@2@$0A@@std@@@std@@QAEAAV012@XZ 004f72b0 f i KeyMap.obj
 0002:000662d0       ?_Dec@const_iterator@?$_Tree@V?$_Tmap_traits@K_WU?$less@K@std@@V?$allocator@U?$pair@$$CBK_W@std@@@2@$0A@@std@@@std@@QAEXXZ 004f72d0 f i KeyMap.obj
 0002:00066580       ??0?$pair@Viterator@?$_Tree@V?$_Tmap_traits@_WKU?$less@_W@std@@V?$allocator@U?$pair@$$CB_WK@std@@@2@$0A@@std@@@std@@_N@std@@QAE@ABViterator@?$_Tree@V?$_Tmap_traits@_WKU?$less@_W@std@@V?$allocator@U?$pair@$$CB_WK@std@@@2@$0A@@std@@@1@AB_N@Z 004f7580 f i KeyMap.obj
 0002:000665b0       ??0?$pair@Viterator@?$_Tree@V?$_Tmap_traits@K_WU?$less@K@std@@V?$allocator@U?$pair@$$CBK_W@std@@@2@$0A@@std@@@std@@_N@std@@QAE@ABViterator@?$_Tree@V?$_Tmap_traits@K_WU?$less@K@std@@V?$allocator@U?$pair@$$CBK_W@std@@@2@$0A@@std@@@1@AB_N@Z 004f75b0 f i KeyMap.obj
 0002:000665e0       ??0?$_Tree_nod@V?$_Tmap_traits@_WKU?$less@_W@std@@V?$allocator@U?$pair@$$CB_WK@std@@@2@$0A@@std@@@std@@IAE@ABU?$less@_W@1@V?$allocator@U?$pair@$$CB_WK@std@@@1@@Z 004f75e0 f i KeyMap.obj
 0002:00066630       ?max_size@?$allocator@U?$pair@$$CB_WK@std@@@std@@QBEIXZ 004f7630 f i KeyMap.obj
 0002:00066670       ?allocate@?$allocator@U_Node@?$_Tree_nod@V?$_Tmap_traits@_WKU?$less@_W@std@@V?$allocator@U?$pair@$$CB_WK@std@@@2@$0A@@std@@@std@@@std@@QAEPAU_Node@?$_Tree_nod@V?$_Tmap_traits@_WKU?$less@_W@std@@V?$allocator@U?$pair@$$CB_WK@std@@@2@$0A@@std@@@2@I@Z 004f7670 f i KeyMap.obj
 0002:000666a0       ?construct@?$allocator@PAU_Node@?$_Tree_nod@V?$_Tmap_traits@_WKU?$less@_W@std@@V?$allocator@U?$pair@$$CB_WK@std@@@2@$0A@@std@@@std@@@std@@QAEXPAPAU_Node@?$_Tree_nod@V?$_Tmap_traits@_WKU?$less@_W@std@@V?$allocator@U?$pair@$$CB_WK@std@@@2@$0A@@std@@@2@ABQAU342@@Z 004f76a0 f i KeyMap.obj
 0002:000666d0       ??0?$_Tree_nod@V?$_Tmap_traits@K_WU?$less@K@std@@V?$allocator@U?$pair@$$CBK_W@std@@@2@$0A@@std@@@std@@IAE@ABU?$less@K@1@V?$allocator@U?$pair@$$CBK_W@std@@@1@@Z 004f76d0 f i KeyMap.obj
 0002:00066720       ?max_size@?$allocator@U?$pair@$$CBK_W@std@@@std@@QBEIXZ 004f7720 f i KeyMap.obj
 0002:00066760       ?allocate@?$allocator@U_Node@?$_Tree_nod@V?$_Tmap_traits@K_WU?$less@K@std@@V?$allocator@U?$pair@$$CBK_W@std@@@2@$0A@@std@@@std@@@std@@QAEPAU_Node@?$_Tree_nod@V?$_Tmap_traits@K_WU?$less@K@std@@V?$allocator@U?$pair@$$CBK_W@std@@@2@$0A@@std@@@2@I@Z 004f7760 f i KeyMap.obj
 0002:00066790       ?construct@?$allocator@PAU_Node@?$_Tree_nod@V?$_Tmap_traits@K_WU?$less@K@std@@V?$allocator@U?$pair@$$CBK_W@std@@@2@$0A@@std@@@std@@@std@@QAEXPAPAU_Node@?$_Tree_nod@V?$_Tmap_traits@K_WU?$less@K@std@@V?$allocator@U?$pair@$$CBK_W@std@@@2@$0A@@std@@@2@ABQAU342@@Z 004f7790 f i KeyMap.obj
 0002:000667c0       ??0_Node@?$_Tree_nod@V?$_Tmap_traits@_WKU?$less@_W@std@@V?$allocator@U?$pair@$$CB_WK@std@@@2@$0A@@std@@@std@@QAE@PAU012@00ABU?$pair@$$CB_WK@2@D@Z 004f77c0 f i KeyMap.obj
 0002:00066820       ??0_Node@?$_Tree_nod@V?$_Tmap_traits@K_WU?$less@K@std@@V?$allocator@U?$pair@$$CBK_W@std@@@2@$0A@@std@@@std@@QAE@PAU012@00ABU?$pair@$$CBK_W@2@D@Z 004f7820 f i KeyMap.obj
 0002:00066880       ??0?$_Tmap_traits@_WKU?$less@_W@std@@V?$allocator@U?$pair@$$CB_WK@std@@@2@$0A@@std@@QAE@U?$less@_W@1@V?$allocator@U?$pair@$$CB_WK@std@@@1@@Z 004f7880 f i KeyMap.obj
 0002:000668c0       ??0?$_Tmap_traits@K_WU?$less@K@std@@V?$allocator@U?$pair@$$CBK_W@std@@@2@$0A@@std@@QAE@U?$less@K@1@V?$allocator@U?$pair@$$CBK_W@std@@@1@@Z 004f78c0 f i KeyMap.obj
 0002:00066900       ??0?$_Container_base_aux_alloc_empty@V?$allocator@U?$pair@$$CB_WK@std@@@std@@@std@@IAE@V?$allocator@U?$pair@$$CB_WK@std@@@1@@Z 004f7900 f i KeyMap.obj
 0002:00066920       ??0?$_Container_base_aux_alloc_empty@V?$allocator@U?$pair@$$CBK_W@std@@@std@@@std@@IAE@V?$allocator@U?$pair@$$CBK_W@std@@@1@@Z 004f7920 f i KeyMap.obj
 0002:00066940       ??$_Debug_lt_pred@U?$less@_W@std@@_W_W@std@@YA_NU?$less@_W@0@AB_W1PB_WI@Z 004f7940 f i KeyMap.obj
 0002:000669b0       ??$_Debug_lt_pred@U?$less@K@std@@KK@std@@YA_NU?$less@K@0@ABK1PB_WI@Z 004f79b0 f i KeyMap.obj
 0002:00066a20       ??$?0U?$pair@$$CB_WK@std@@@?$allocator@PAU_Node@?$_Tree_nod@V?$_Tmap_traits@_WKU?$less@_W@std@@V?$allocator@U?$pair@$$CB_WK@std@@@2@$0A@@std@@@std@@@std@@QAE@ABV?$allocator@U?$pair@$$CB_WK@std@@@1@@Z 004f7a20 f i KeyMap.obj
 0002:00066a40       ??$?0U?$pair@$$CBK_W@std@@@?$allocator@PAU_Node@?$_Tree_nod@V?$_Tmap_traits@K_WU?$less@K@std@@V?$allocator@U?$pair@$$CBK_W@std@@@2@$0A@@std@@@std@@@std@@QAE@ABV?$allocator@U?$pair@$$CBK_W@std@@@1@@Z 004f7a40 f i KeyMap.obj
 0002:00066a60       ??$?0U?$pair@$$CB_WK@std@@@?$allocator@U_Node@?$_Tree_nod@V?$_Tmap_traits@_WKU?$less@_W@std@@V?$allocator@U?$pair@$$CB_WK@std@@@2@$0A@@std@@@std@@@std@@QAE@ABV?$allocator@U?$pair@$$CB_WK@std@@@1@@Z 004f7a60 f i KeyMap.obj
 0002:00066a80       ??$_Allocate@U_Node@?$_Tree_nod@V?$_Tmap_traits@_WKU?$less@_W@std@@V?$allocator@U?$pair@$$CB_WK@std@@@2@$0A@@std@@@std@@@std@@YAPAU_Node@?$_Tree_nod@V?$_Tmap_traits@_WKU?$less@_W@std@@V?$allocator@U?$pair@$$CB_WK@std@@@2@$0A@@std@@@0@IPAU120@@Z 004f7a80 f i KeyMap.obj
 0002:00066ae0       ??$_Construct@PAU_Node@?$_Tree_nod@V?$_Tmap_traits@_WKU?$less@_W@std@@V?$allocator@U?$pair@$$CB_WK@std@@@2@$0A@@std@@@std@@PAU123@@std@@YAXPAPAU_Node@?$_Tree_nod@V?$_Tmap_traits@_WKU?$less@_W@std@@V?$allocator@U?$pair@$$CB_WK@std@@@2@$0A@@std@@@0@ABQAU120@@Z 004f7ae0 f i KeyMap.obj
 0002:00066b30       ??$?0U?$pair@$$CBK_W@std@@@?$allocator@U_Node@?$_Tree_nod@V?$_Tmap_traits@K_WU?$less@K@std@@V?$allocator@U?$pair@$$CBK_W@std@@@2@$0A@@std@@@std@@@std@@QAE@ABV?$allocator@U?$pair@$$CBK_W@std@@@1@@Z 004f7b30 f i KeyMap.obj
 0002:00066b50       ??$_Allocate@U_Node@?$_Tree_nod@V?$_Tmap_traits@K_WU?$less@K@std@@V?$allocator@U?$pair@$$CBK_W@std@@@2@$0A@@std@@@std@@@std@@YAPAU_Node@?$_Tree_nod@V?$_Tmap_traits@K_WU?$less@K@std@@V?$allocator@U?$pair@$$CBK_W@std@@@2@$0A@@std@@@0@IPAU120@@Z 004f7b50 f i KeyMap.obj
 0002:00066bb0       ??$_Construct@PAU_Node@?$_Tree_nod@V?$_Tmap_traits@K_WU?$less@K@std@@V?$allocator@U?$pair@$$CBK_W@std@@@2@$0A@@std@@@std@@PAU123@@std@@YAXPAPAU_Node@?$_Tree_nod@V?$_Tmap_traits@K_WU?$less@K@std@@V?$allocator@U?$pair@$$CBK_W@std@@@2@$0A@@std@@@0@ABQAU120@@Z 004f7bb0 f i KeyMap.obj
 0002:00066c00       ??0KeyMapJap@@QAE@XZ       004f7c00 f   KeyMapjap.obj
 0002:00066c10       ?ToAsciiJp@KeyMapJap@@AAEHI@Z 004f7c10 f   KeyMapjap.obj
 0002:00066e80       ?PCtoX@KeyMapJap@@QAE?AUKeyActionSpec@@IK@Z 004f7e80 f   KeyMapjap.obj
 0002:00067480       ??0Log@@QAE@HHPAD_N@Z      004f8480 f   Log.obj
 0002:000674e0       ?SetMode@Log@@QAEXH@Z      004f84e0 f   Log.obj
 0002:000675f0       ?SetLevel@Log@@QAEXH@Z     004f85f0 f   Log.obj
 0002:00067610       ?SetFile@Log@@QAEXPAD_N@Z  004f8610 f   Log.obj
 0002:000676b0       ?CloseFile@Log@@AAEXXZ     004f86b0 f   Log.obj
 0002:000676e0       ?ReallyPrint@Log@@AAEXPAD0@Z 004f86e0 f   Log.obj
 0002:000677d0       ??1Log@@UAE@XZ             004f87d0 f   Log.obj
 0002:000678d0       ??_ELog@@UAEPAXI@Z         004f88d0 f i Log.obj
 0002:000678d0       ??_GLog@@UAEPAXI@Z         004f88d0 f i Log.obj
 0002:00067910       ?Initialize@LowLevelHook@@SAHPAUHWND__@@@Z 004f8910 f   LowLevelHook.obj
 0002:000679d0       ?Release@LowLevelHook@@SAHXZ 004f89d0 f   LowLevelHook.obj
 0002:000679f0       ?GetScrollLockState@LowLevelHook@@CAHXZ 004f89f0 f   LowLevelHook.obj
 0002:00067a30       ?VncLowLevelKbHookProc@LowLevelHook@@CGJHIJ@Z 004f8a30 f   LowLevelHook.obj
 0002:00067fb0       ?ShowMessageBox@@YAXPADH@Z 004f8fb0 f   MessBox.obj
 0002:00068120       ___lzo_ptr_linear          004f9120 f   minilzo.obj
 0002:00068140       ___lzo_align_gap           004f9140 f   minilzo.obj
 0002:00068180       _lzo_copyright             004f9180 f   minilzo.obj
 0002:00068190       _lzo_version               004f9190 f   minilzo.obj
 0002:000681a0       _lzo_version_string        004f91a0 f   minilzo.obj
 0002:000681b0       _lzo_version_date          004f91b0 f   minilzo.obj
 0002:000681c0       __lzo_version_string       004f91c0 f   minilzo.obj
 0002:000681d0       __lzo_version_date         004f91d0 f   minilzo.obj
 0002:000681e0       _lzo_adler32               004f91e0 f   minilzo.obj
 0002:00068430       _lzo_memcmp                004f9430 f   minilzo.obj
 0002:00068450       _lzo_memcpy                004f9450 f   minilzo.obj
 0002:00068470       _lzo_memmove               004f9470 f   minilzo.obj
 0002:00068490       _lzo_memset                004f9490 f   minilzo.obj
 0002:000684b0       __lzo_config_check         004f94b0 f   minilzo.obj
 0002:00068540       ___lzo_init_v2             004f9540 f   minilzo.obj
 0002:00068610       _lzo1x_1_compress          004f9610 f   minilzo.obj
 0002:00068cf0       _lzo1x_decompress          004f9cf0 f   minilzo.obj
 0002:000692b0       _lzo1x_decompress_safe     004fa2b0 f   minilzo.obj
 0002:0006a0a0       ??0MRU@@QAE@PADI@Z         004fb0a0 f   MRU.obj
 0002:0006a110       ?AddItem@MRU@@QAEXPAD@Z    004fb110 f   MRU.obj
 0002:0006a350       ?NumItems@MRU@@QAEHXZ      004fb350 f   MRU.obj
 0002:0006a380       ?GetItem@MRU@@QAEHHPADH@Z  004fb380 f   MRU.obj
 0002:0006a410       ?RemoveItem@MRU@@QAEXPAD@Z 004fb410 f   MRU.obj
 0002:0006a4c0       ?RemoveItem@MRU@@QAEXH@Z   004fb4c0 f   MRU.obj
 0002:0006a550       ?ReadIndex@MRU@@AAEXXZ     004fb550 f   MRU.obj
 0002:0006a5b0       ?WriteIndex@MRU@@IAEXXZ    004fb5b0 f   MRU.obj
 0002:0006a600       ?Tidy@MRU@@AAEXXZ          004fb600 f   MRU.obj
 0002:0006a9e0       ??1MRU@@UAE@XZ             004fb9e0 f   MRU.obj
 0002:0006ac80       ??_EMRU@@UAEPAXI@Z         004fbc80 f i MRU.obj
 0002:0006ac80       ??_GMRU@@UAEPAXI@Z         004fbc80 f i MRU.obj
 0002:0006acc0       ?strchr@@YAPADPADH@Z       004fbcc0 f i MRU.obj
 0002:0006ace0       ??0CRijndael@@QAE@XZ       004fbce0 f   Rijndael.obj
 0002:0006ad00       ??1CRijndael@@UAE@XZ       004fbd00 f   Rijndael.obj
 0002:0006ad20       ?MakeKey@CRijndael@@QAEXPBD0HH@Z 004fbd20 f   Rijndael.obj
 0002:0006b480       ?DefEncryptBlock@CRijndael@@AAEXPBDPAD@Z 004fc480 f   Rijndael.obj
 0002:0006ba10       ?DefDecryptBlock@CRijndael@@AAEXPBDPAD@Z 004fca10 f   Rijndael.obj
 0002:0006bfb0       ?EncryptBlock@CRijndael@@QAEXPBDPAD@Z 004fcfb0 f   Rijndael.obj
 0002:0006c370       ?DecryptBlock@CRijndael@@QAEXPBDPAD@Z 004fd370 f   Rijndael.obj
 0002:0006c730       ?Encrypt@CRijndael@@QAEXPBDPADIH@Z 004fd730 f   Rijndael.obj
 0002:0006c950       ?Decrypt@CRijndael@@QAEXPBDPADIH@Z 004fd950 f   Rijndael.obj
 0002:0006d310       ??_GCRijndael@@UAEPAXI@Z   004fe310 f i Rijndael.obj
 0002:0006d310       ??_ECRijndael@@UAEPAXI@Z   004fe310 f i Rijndael.obj
 0002:0006d350       ?Xor@CRijndael@@AAEXPADPBD@Z 004fe350 f i Rijndael.obj
 0002:0006d3f0       ??0SessionDialog@@QAE@PAVVNCOptions@@PAVClientConnection@@PAVCDSMPlugin@@@Z 004fe3f0 f   SessionDialog.obj
 0002:0006d4b0       ??1SessionDialog@@UAE@XZ   004fe4b0 f   SessionDialog.obj
 0002:0006d500       ?DoDialog@SessionDialog@@QAEHXZ 004fe500 f   SessionDialog.obj
 0002:0006d530       ?SessDlgProc@SessionDialog@@CGHPAUHWND__@@IIJ@Z 004fe530 f   SessionDialog.obj
 0002:0006e680       ?SetQuickOption@SessionDialog@@QAEHPAV1@PAUHWND__@@@Z 004ff680 f   SessionDialog.obj
 0002:0006e8b0       ?ManageQuickOptions@SessionDialog@@QAEHPAV1@PAUHWND__@@@Z 004ff8b0 f   SessionDialog.obj
 0002:0006efd0       ??_ESessionDialog@@UAEPAXI@Z 004fffd0 f i SessionDialog.obj
 0002:0006efd0       ??_GSessionDialog@@UAEPAXI@Z 004fffd0 f i SessionDialog.obj
 0002:0006f010       ?GetPluginFileName@CDSMPlugin@@QAEPADXZ 00500010 f i SessionDialog.obj
 0002:0006f030       ??0TextChat@@QAE@PAVVNCviewerApp@@PAVClientConnection@@@Z 00500030 f   TextChat.obj
 0002:0006f210       ??1TextChat@@UAE@XZ        00500210 f   TextChat.obj
 0002:0006f310       ?SetTextFormat@TextChat@@QAEX_N0JPBDK@Z 00500310 f   TextChat.obj
 0002:0006f3e0       ?ProcessTextChatMsg@TextChat@@QAEXXZ 005003e0 f   TextChat.obj
 0002:0006f580       ?SendTextChatRequest@TextChat@@QAEXH@Z 00500580 f   TextChat.obj
 0002:0006f5e0       ?PrintMessage@TextChat@@QAEXPBD0K@Z 005005e0 f   TextChat.obj
 0002:0006f8c0       ?SendLocalText@TextChat@@QAEXXZ 005008c0 f   TextChat.obj
 0002:0006f9d0       ?DoDialog@TextChat@@QAEHXZ 005009d0 f   TextChat.obj
 0002:0006fa00       ?KillDialog@TextChat@@QAEXXZ 00500a00 f   TextChat.obj
 0002:0006fa10       ?ShowChatWindow@TextChat@@QAEX_N@Z 00500a10 f   TextChat.obj
 0002:0006fac0       ?AdjustLeft@@YAXPAUtagRECT@@@Z 00500ac0 f   TextChat.obj
 0002:0006fb10       ?AdjustTop@@YAXPAUtagRECT@@@Z 00500b10 f   TextChat.obj
 0002:0006fb60       ?AdjustRight@@YAXPAUtagRECT@@@Z 00500b60 f   TextChat.obj
 0002:0006fbb0       ?AdjustBottom@@YAXPAUtagRECT@@@Z 00500bb0 f   TextChat.obj
 0002:0006fc00       ?TextChatDlgProc@TextChat@@SGHPAUHWND__@@IIJ@Z 00500c00 f   TextChat.obj
 0002:00070470       ?DrawResizeLine@@YAXPAUHWND__@@H@Z 00501470 f   TextChat.obj
 0002:00070590       ?SBProc@@YGJPAUHWND__@@IIJ@Z 00501590 f   TextChat.obj
 0002:00070e00       ??_GTextChat@@UAEPAXI@Z    00501e00 f i TextChat.obj
 0002:00070e00       ??_ETextChat@@UAEPAXI@Z    00501e00 f i TextChat.obj
 0002:00070e40       ?strstr@@YAPADPADPBD@Z     00501e40 f i TextChat.obj
 0002:00070e60       _vncEncryptBytes           00501e60 f   vncauth.obj
 0002:00070f00       _vncEncryptPasswd          00501f00 f   vncauth.obj
 0002:00070f70       _vncEncryptPasswdMs        00501f70 f   vncauth.obj
 0002:00070fe0       _vncDecryptPasswd          00501fe0 f   vncauth.obj
 0002:00071060       _vncDecryptPasswdMs        00502060 f   vncauth.obj
 0002:000710e0       _vncEncryptBytes2          005020e0 f   vncauth.obj
 0002:00071290       ??0VNCOptions@@QAE@XZ      00502290 f   VNCOptions.obj
 0002:000715d0       ??4VNCOptions@@QAEAAV0@AAV0@@Z 005025d0 f   VNCOptions.obj
 0002:00071a30       ??1VNCOptions@@UAE@XZ      00502a30 f   VNCOptions.obj
 0002:00071a50       ?gcd@@YAHHH@Z              00502a50 f   VNCOptions.obj
 0002:00071a90       ?FixScaling@VNCOptions@@AAEXXZ 00502a90 f   VNCOptions.obj
 0002:00071b80       ?SetFromCommandLine@VNCOptions@@QAEXPAD@Z 00502b80 f   VNCOptions.obj
 0002:00072f90       ?saveInt@@YAXPADH0@Z       00503f90 f   VNCOptions.obj
 0002:00072fd0       ?readInt@@YAHPADH0@Z       00503fd0 f   VNCOptions.obj
 0002:00072ff0       ?Save@VNCOptions@@QAEXPAD@Z 00503ff0 f   VNCOptions.obj
 0002:000734d0       ?Load@VNCOptions@@QAEXPAD@Z 005044d0 f   VNCOptions.obj
 0002:00073be0       ?Register@VNCOptions@@SAXXZ 00504be0 f   VNCOptions.obj
 0002:00073df0       ?ShowUsage@VNCOptions@@AAEXPAD@Z 00504df0 f   VNCOptions.obj
 0002:00073e60       ?DoDialog@VNCOptions@@QAEH_N@Z 00504e60 f   VNCOptions.obj
 0002:00073e80       ?OptDlgProc@VNCOptions@@SGHPAUHWND__@@IIJ@Z 00504e80 f   VNCOptions.obj
 0002:00076710       ??_EVNCOptions@@UAEPAXI@Z  00507710 f i VNCOptions.obj
 0002:00076710       ??_GVNCOptions@@UAEPAXI@Z  00507710 f i VNCOptions.obj
 0002:00076750       ?SwitchMatch@@YA_NPBD0@Z   00507750 f i VNCOptions.obj
 0002:000767b0       _WinMain@16                005077b0 f   vncviewer.obj
 0002:00078150       ?CentreWindow@@YAXPAUHWND__@@@Z 00509150 f   vncviewer.obj
 0002:00078220       ?ParseDisplay@@YA_NPAD0HPAH@Z 00509220 f   vncviewer.obj
 0002:000789f0       ??0VNCviewerApp@@QAE@PAUHINSTANCE__@@PAD@Z 005099f0 f   VNCviewerApp.obj
 0002:00078bc0       ?RegisterConnection@VNCviewerApp@@QAEXPAVClientConnection@@@Z 00509bc0 f   VNCviewerApp.obj
 0002:00078cc0       ?DeregisterConnection@VNCviewerApp@@QAEXPAVClientConnection@@@Z 00509cc0 f   VNCviewerApp.obj
 0002:00078e10       ??1VNCviewerApp@@QAE@XZ    00509e10 f   VNCviewerApp.obj
 0002:00078fc0       ??0VNCviewerApp32@@QAE@PAUHINSTANCE__@@PAD@Z 00509fc0 f   VNCviewerApp32.obj
 0002:00079250       ?NewConnection@VNCviewerApp32@@UAEXXZ 0050a250 f   VNCviewerApp32.obj
 0002:00079340       ?NewConnection@VNCviewerApp32@@UAEXPADH@Z 0050a340 f   VNCviewerApp32.obj
 0002:00079440       ?NewConnection@VNCviewerApp32@@UAEXI@Z 0050a440 f   VNCviewerApp32.obj
 0002:00079540       ?RegisterSounds@VNCviewerApp32@@AAEXXZ 0050a540 f   VNCviewerApp32.obj
 0002:000797b0       ??1VNCviewerApp32@@QAE@XZ  0050a7b0 f   VNCviewerApp32.obj
 0002:00079ac0       ??0CZipUnZip32@@QAE@XZ     0050aac0 f   ZipUnzip32.obj
 0002:00079c30       ??1CZipUnZip32@@UAE@XZ     0050ac30 f   ZipUnzip32.obj
 0002:00079c80       ?ZipDirectory@CZipUnZip32@@QAE_NPAD00_N@Z 0050ac80 f   ZipUnzip32.obj
 0002:0007a0a0       ?FreeUpZipMemory@CZipUnZip32@@AAEXXZ 0050b0a0 f   ZipUnzip32.obj
 0002:0007a0e0       ?DummyPassword@@YGHPADHPBD1@Z 0050b0e0 f   ZipUnzip32.obj
 0002:0007a0f0       ?DummyPrint@@YGHPADK@Z     0050b0f0 f   ZipUnzip32.obj
 0002:0007a100       ?DummyComment@@YGHPAD@Z    0050b100 f   ZipUnzip32.obj
 0002:0007a120       ?UnZipDirectory@CZipUnZip32@@QAE_NPAD0@Z 0050b120 f   ZipUnzip32.obj
 0002:0007a510       ?GetReplaceDlgRetVal@@YGHPAD@Z 0050b510 f   ZipUnzip32.obj
 0002:0007a520       ?FreeUpUnzipMemory@CZipUnZip32@@AAEXXZ 0050b520 f   ZipUnzip32.obj
 0002:0007a590       ?ReceiveDllMessage@@YGXKKIIIIIIDPAD0KD@Z 0050b590 f   ZipUnzip32.obj
 0002:0007a5a0       ?password@@YGHPADHPBD1@Z   0050b5a0 f   ZipUnzip32.obj
 0002:0007a5b0       ?DisplayBuf@@YGHPADK@Z     0050b5b0 f   ZipUnzip32.obj
 0002:0007a880       ??_GCZipUnZip32@@UAEPAXI@Z 0050b880 f i ZipUnzip32.obj
 0002:0007a880       ??_ECZipUnZip32@@UAEPAXI@Z 0050b880 f i ZipUnzip32.obj
 0002:0007a8c0       ?zrleDecode8NE@ClientConnection@@AAEXHHHHPAVInStream@rdr@@PAVZlibInStream@3@PAE@Z 0050b8c0 f   zrle.obj
 0002:0007af90       ?zywrleSynthesize16LE@@YAPAGPAG0HHHHPAH@Z 0050bf90 f   zrle.obj
 0002:0007ba00       ?zrleDecode16LE@ClientConnection@@AAEXHHHHPAVInStream@rdr@@PAVZlibInStream@3@PAG@Z 0050ca00 f   zrle.obj
 0002:0007c1a0       ?zywrleSynthesize15LE@@YAPAGPAG0HHHHPAH@Z 0050d1a0 f   zrle.obj
 0002:0007c9c0       ?zrleDecode15LE@ClientConnection@@AAEXHHHHPAVInStream@rdr@@PAVZlibInStream@3@PAG@Z 0050d9c0 f   zrle.obj
 0002:0007d160       ?zywrleSynthesize32LE@@YAPAIPAI0HHHHPAH@Z 0050e160 f   zrle.obj
 0002:0007d8a0       ?zrleDecode32LE@ClientConnection@@AAEXHHHHPAVInStream@rdr@@PAVZlibInStream@3@PAI@Z 0050e8a0 f   zrle.obj
 0002:0007e020       ?zrleDecode24ALE@ClientConnection@@AAEXHHHHPAVInStream@rdr@@PAVZlibInStream@3@PAI@Z 0050f020 f   zrle.obj
 0002:0007e7c0       ?zrleDecode24BLE@ClientConnection@@AAEXHHHHPAVInStream@rdr@@PAVZlibInStream@3@PAI@Z 0050f7c0 f   zrle.obj
 0002:0007ef60       ?zrleDecode@ClientConnection@@AAEXHHHH@Z 0050ff60 f   zrle.obj
 0002:00080640       ?readU32@InStream@rdr@@QAEIXZ 00511640 f i zrle.obj
 0002:00080710       ?readOpaque8@InStream@rdr@@QAEEXZ 00511710 f i zrle.obj
 0002:00080730       ?readOpaque16@InStream@rdr@@QAEGXZ 00511730 f i zrle.obj
 0002:000807a0       ?readOpaque32@InStream@rdr@@QAEIXZ 005117a0 f i zrle.obj
 0002:00080850       ?readOpaque24A@InStream@rdr@@QAEIXZ 00511850 f i zrle.obj
 0002:000808e0       ?readOpaque24B@InStream@rdr@@QAEIXZ 005118e0 f i zrle.obj
 0002:0008096e       _CreateToolbarEx@52        0051196e f   comctl32:COMCTL32.dll
 0002:00080974       _InitCommonControls@0      00511974 f   comctl32:COMCTL32.dll
 0002:0008097a       _CreateStatusWindowA@16    0051197a f   comctl32:COMCTL32.dll
 0002:00080980       _ImageList_ReplaceIcon@12  00511980 f   comctl32:COMCTL32.dll
 0002:00080986       _ImageList_Create@20       00511986 f   comctl32:COMCTL32.dll
 0002:0008098c       _timeGetTime@0             0051198c f   winmm:WINMM.dll
 0002:00080992       _PlaySoundA@12             00511992 f   winmm:WINMM.dll
 0002:00080998       _timeSetEvent@20           00511998 f   winmm:WINMM.dll
 0002:0008099e       _timeKillEvent@4           0051199e f   winmm:WINMM.dll
 0002:000809b0       ??0omni_mutex@@QAE@XZ      005119b0 f   omnithread:nt.obj
 0002:000809d0       ??1omni_mutex@@QAE@XZ      005119d0 f   omnithread:nt.obj
 0002:000809f0       ?lock@omni_mutex@@QAEXXZ   005119f0 f   omnithread:nt.obj
 0002:00080a10       ?unlock@omni_mutex@@QAEXXZ 00511a10 f   omnithread:nt.obj
 0002:00080a30       ??0omni_condition@@QAE@PAVomni_mutex@@@Z 00511a30 f   omnithread:nt.obj
 0002:00080a70       ??1omni_condition@@QAE@XZ  00511a70 f   omnithread:nt.obj
 0002:00080a90       ?wait@omni_condition@@QAEXXZ 00511a90 f   omnithread:nt.obj
 0002:00080bc0       ?timedwait@omni_condition@@QAEHKK@Z 00511bc0 f   omnithread:nt.obj
 0002:00080e60       ?signal@omni_condition@@QAEXXZ 00511e60 f   omnithread:nt.obj
 0002:00080f20       ?broadcast@omni_condition@@QAEXXZ 00511f20 f   omnithread:nt.obj
 0002:00080ff0       ??0omni_semaphore@@QAE@I@Z 00511ff0 f   omnithread:nt.obj
 0002:00081050       ??1omni_semaphore@@QAE@XZ  00512050 f   omnithread:nt.obj
 0002:00081090       ?wait@omni_semaphore@@QAEXXZ 00512090 f   omnithread:nt.obj
 0002:000810e0       ?trywait@omni_semaphore@@QAEHXZ 005120e0 f   omnithread:nt.obj
 0002:00081140       ?post@omni_semaphore@@QAEXXZ 00512140 f   omnithread:nt.obj
 0002:00081190       ??0init_t@omni_thread@@QAE@XZ 00512190 f   omnithread:nt.obj
 0002:00081380       _omni_thread_wrapper@4     00512380 f   omnithread:nt.obj
 0002:00081470       ??0omni_thread@@QAE@P6AXPAX@Z0W4priority_t@0@@Z 00512470 f   omnithread:nt.obj
 0002:00081500       ??0omni_thread@@QAE@P6APAXPAX@Z0W4priority_t@0@@Z 00512500 f   omnithread:nt.obj
 0002:00081590       ??0omni_thread@@IAE@PAXW4priority_t@0@@Z 00512590 f   omnithread:nt.obj
 0002:00081620       ?common_constructor@omni_thread@@AAEXPAXW4priority_t@1@H@Z 00512620 f   omnithread:nt.obj
 0002:000816f0       ??1omni_thread@@MAE@XZ     005126f0 f   omnithread:nt.obj
 0002:000817c0       ?start@omni_thread@@QAEXXZ 005127c0 f   omnithread:nt.obj
 0002:00081910       ?start_undetached@omni_thread@@IAEXXZ 00512910 f   omnithread:nt.obj
 0002:00081960       ?join@omni_thread@@QAEXPAPAX@Z 00512960 f   omnithread:nt.obj
 0002:00081a80       ?set_priority@omni_thread@@QAEXW4priority_t@1@@Z 00512a80 f   omnithread:nt.obj
 0002:00081b50       ?create@omni_thread@@SAPAV1@P6AXPAX@Z0W4priority_t@1@@Z 00512b50 f   omnithread:nt.obj
 0002:00081be0       ?create@omni_thread@@SAPAV1@P6APAXPAX@Z0W4priority_t@1@@Z 00512be0 f   omnithread:nt.obj
 0002:00081c70       ?exit@omni_thread@@SAXPAX@Z 00512c70 f   omnithread:nt.obj
 0002:00081d00       ?self@omni_thread@@SAPAV1@XZ 00512d00 f   omnithread:nt.obj
 0002:00081d20       ?yield@omni_thread@@SAXXZ  00512d20 f   omnithread:nt.obj
 0002:00081d30       ?sleep@omni_thread@@SAXKK@Z 00512d30 f   omnithread:nt.obj
 0002:00081dd0       ?get_time@omni_thread@@SAXPAK0KK@Z 00512dd0 f   omnithread:nt.obj
 0002:00081e20       ?nt_priority@omni_thread@@CAHW4priority_t@1@@Z 00512e20 f   omnithread:nt.obj
 0002:00081f30       ??0omni_thread_fatal@@QAE@H@Z 00512f30 f i omnithread:nt.obj
 0002:00081f50       ??0_internal_omni_thread_helper@@QAE@XZ 00512f50 f i omnithread:nt.obj
 0002:00082040       ??0_internal_omni_thread_dummy@@QAE@XZ 00513040 f i omnithread:nt.obj
 0002:00082070       ?run_undetached@omni_thread@@EAEPAXPAX@Z 00513070 f i omnithread:nt.obj
 0002:00082080       ??_G_internal_omni_thread_dummy@@UAEPAXI@Z 00513080 f i omnithread:nt.obj
 0002:00082080       ??_E_internal_omni_thread_dummy@@UAEPAXI@Z 00513080 f i omnithread:nt.obj
 0002:000820b0       ??1_internal_omni_thread_dummy@@UAE@XZ 005130b0 f i omnithread:nt.obj
 0002:000820d0       ??1_internal_omni_thread_helper@@QAE@XZ 005130d0 f i omnithread:nt.obj
 0002:00082120       ??B_internal_omni_thread_helper@@QAEPAVomni_thread@@XZ 00513120 f i omnithread:nt.obj
 0002:00082140       ??C_internal_omni_thread_helper@@QAEPAVomni_thread@@XZ 00513140 f i omnithread:nt.obj
 0002:00082160       ??_Gomni_thread@@MAEPAXI@Z 00513160 f i omnithread:nt.obj
 0002:00082160       ??_Eomni_thread@@MAEPAXI@Z 00513160 f i omnithread:nt.obj
 0002:0008218c       _getpeername@12            0051318c f   wsock32:WSOCK32.dll
 0002:00082192       _closesocket@4             00513192 f   wsock32:WSOCK32.dll
 0002:00082198       _connect@12                00513198 f   wsock32:WSOCK32.dll
 0002:0008219e       _htons@4                   0051319e f   wsock32:WSOCK32.dll
 0002:000821a4       _gethostbyname@4           005131a4 f   wsock32:WSOCK32.dll
 0002:000821aa       _inet_addr@4               005131aa f   wsock32:WSOCK32.dll
 0002:000821b0       _socket@12                 005131b0 f   wsock32:WSOCK32.dll
 0002:000821b6       _setsockopt@20             005131b6 f   wsock32:WSOCK32.dll
 0002:000821bc       _shutdown@8                005131bc f   wsock32:WSOCK32.dll
 0002:000821c2       _send@16                   005131c2 f   wsock32:WSOCK32.dll
 0002:000821c8       _WSAAsyncSelect@16         005131c8 f   wsock32:WSOCK32.dll
 0002:000821ce       _listen@8                  005131ce f   wsock32:WSOCK32.dll
 0002:000821d4       _bind@12                   005131d4 f   wsock32:WSOCK32.dll
 0002:000821da       _recv@16                   005131da f   wsock32:WSOCK32.dll
 0002:000821e0       _ioctlsocket@12            005131e0 f   wsock32:WSOCK32.dll
 0002:000821e6       _accept@12                 005131e6 f   wsock32:WSOCK32.dll
 0002:000821ec       _WSACleanup@0              005131ec f   wsock32:WSOCK32.dll
 0002:000821f2       _WSAStartup@8              005131f2 f   wsock32:WSOCK32.dll
 0002:000821f8       _GetModuleHandleA@4        005131f8 f   kernel32:KERNEL32.dll
 0002:000821fe       _GetVersionExA@4           005131fe f   kernel32:KERNEL32.dll
 0002:00082204       _CreateEventA@16           00513204 f   kernel32:KERNEL32.dll
 0002:0008220a       _Sleep@4                   0051320a f   kernel32:KERNEL32.dll
 0002:00082210       _ResumeThread@4            00513210 f   kernel32:KERNEL32.dll
 0002:00082216       _CreateThread@24           00513216 f   kernel32:KERNEL32.dll
 0002:0008221c       _SetEvent@4                0051321c f   kernel32:KERNEL32.dll
 0002:00082222       _WaitForSingleObject@8     00513222 f   kernel32:KERNEL32.dll
 0002:00082228       _CloseHandle@4             00513228 f   kernel32:KERNEL32.dll
 0002:0008222e       _Beep@8                    0051322e f   kernel32:KERNEL32.dll
 0002:00082234       _LocalFree@4               00513234 f   kernel32:KERNEL32.dll
 0002:0008223a       _FormatMessageA@28         0051323a f   kernel32:KERNEL32.dll
 0002:00082240       _GetLastError@0            00513240 f   kernel32:KERNEL32.dll
 0002:00082246       _GlobalUnlock@4            00513246 f   kernel32:KERNEL32.dll
 0002:0008224c       _GlobalLock@4              0051324c f   kernel32:KERNEL32.dll
 0002:00082252       _GlobalAlloc@8             00513252 f   kernel32:KERNEL32.dll
 0002:00082258       _WritePrivateProfileStringA@16 00513258 f   kernel32:KERNEL32.dll
 0002:0008225e       _GetPrivateProfileIntA@16  0051325e f   kernel32:KERNEL32.dll
 0002:00082264       _GetPrivateProfileStringA@24 00513264 f   kernel32:KERNEL32.dll
 0002:0008226a       _WideCharToMultiByte@32    0051326a f   kernel32:KERNEL32.dll
 0002:00082270       _FindClose@4               00513270 f   kernel32:KERNEL32.dll
 0002:00082276       _FindNextFileA@8           00513276 f   kernel32:KERNEL32.dll
 0002:0008227c       _FindFirstFileA@8          0051327c f   kernel32:KERNEL32.dll
 0002:00082282       _GetModuleFileNameA@12     00513282 f   kernel32:KERNEL32.dll
 0002:00082288       _DeleteFileA@4             00513288 f   kernel32:KERNEL32.dll
 0002:0008228e       _FreeLibrary@4             0051328e f   kernel32:KERNEL32.dll
 0002:00082294       _GetProcAddress@8          00513294 f   kernel32:KERNEL32.dll
 0002:0008229a       _LoadLibraryA@4            0051329a f   kernel32:KERNEL32.dll
 0002:000822a0       _CopyFileA@12              005132a0 f   kernel32:KERNEL32.dll
 0002:000822a6       _SetErrorMode@4            005132a6 f   kernel32:KERNEL32.dll
 0002:000822ac       _FileTimeToSystemTime@8    005132ac f   kernel32:KERNEL32.dll
 0002:000822b2       _FileTimeToLocalFileTime@8 005132b2 f   kernel32:KERNEL32.dll
 0002:000822b8       _lstrlenA@4                005132b8 f   kernel32:KERNEL32.dll
 0002:000822be       _GetDriveTypeA@4           005132be f   kernel32:KERNEL32.dll
 0002:000822c4       _GetLogicalDriveStringsA@8 005132c4 f   kernel32:KERNEL32.dll
 0002:000822ca       _CreateFileA@28            005132ca f   kernel32:KERNEL32.dll
 0002:000822d0       _WriteFile@20              005132d0 f   kernel32:KERNEL32.dll
 0002:000822d6       _SetFilePointer@16         005132d6 f   kernel32:KERNEL32.dll
 0002:000822dc       _SetFileTime@16            005132dc f   kernel32:KERNEL32.dll
 0002:000822e2       _SystemTimeToFileTime@8    005132e2 f   kernel32:KERNEL32.dll
 0002:000822e8       _FlushFileBuffers@4        005132e8 f   kernel32:KERNEL32.dll
 0002:000822ee       _SetEndOfFile@4            005132ee f   kernel32:KERNEL32.dll
 0002:000822f4       _GetFileTime@16            005132f4 f   kernel32:KERNEL32.dll
 0002:000822fa       _ReadFile@20               005132fa f   kernel32:KERNEL32.dll
 0002:00082300       _MoveFileA@8               00513300 f   kernel32:KERNEL32.dll
 0002:00082306       _CreateDirectoryA@8        00513306 f   kernel32:KERNEL32.dll
 0002:0008230c       _CompareFileTime@8         0051330c f   kernel32:KERNEL32.dll
 0002:00082312       _lstrcmpiA@8               00513312 f   kernel32:KERNEL32.dll
 0002:00082318       _lstrcpyA@8                00513318 f   kernel32:KERNEL32.dll
 0002:0008231e       _MulDiv@12                 0051331e f   kernel32:KERNEL32.dll
 0002:00082324       _GetStdHandle@4            00513324 f   kernel32:KERNEL32.dll
 0002:0008232a       _AllocConsole@0            0051332a f   kernel32:KERNEL32.dll
 0002:00082330       _WriteConsoleA@20          00513330 f   kernel32:KERNEL32.dll
 0002:00082336       _OutputDebugStringA@4      00513336 f   kernel32:KERNEL32.dll
 0002:0008233c       _GetComputerNameA@8        0051333c f   kernel32:KERNEL32.dll
 0002:00082342       _SearchPathA@24            00513342 f   kernel32:KERNEL32.dll
 0002:00082348       _GlobalFree@4              00513348 f   kernel32:KERNEL32.dll
 0002:0008234e       _InitializeCriticalSection@4 0051334e f   kernel32:KERNEL32.dll
 0002:00082354       _DeleteCriticalSection@4   00513354 f   kernel32:KERNEL32.dll
 0002:0008235a       _EnterCriticalSection@4    0051335a f   kernel32:KERNEL32.dll
 0002:00082360       _LeaveCriticalSection@4    00513360 f   kernel32:KERNEL32.dll
 0002:00082366       _ReleaseSemaphore@12       00513366 f   kernel32:KERNEL32.dll
 0002:0008236c       _CreateSemaphoreA@16       0051336c f   kernel32:KERNEL32.dll
 0002:00082372       _SetThreadPriority@8       00513372 f   kernel32:KERNEL32.dll
 0002:00082378       _TlsSetValue@8             00513378 f   kernel32:KERNEL32.dll
 0002:0008237e       _GetCurrentThreadId@0      0051337e f   kernel32:KERNEL32.dll
 0002:00082384       _DuplicateHandle@28        00513384 f   kernel32:KERNEL32.dll
 0002:0008238a       _GetCurrentThread@0        0051338a f   kernel32:KERNEL32.dll
 0002:00082390       _GetCurrentProcess@0       00513390 f   kernel32:KERNEL32.dll
 0002:00082396       _TlsAlloc@0                00513396 f   kernel32:KERNEL32.dll
 0002:0008239c       _TlsGetValue@4             0051339c f   kernel32:KERNEL32.dll
 0002:000823a2       _GetSystemTime@4           005133a2 f   kernel32:KERNEL32.dll
 0002:000823a8       _LoadImageA@24             005133a8 f   user32:USER32.dll
 0002:000823ae       _IsRectEmpty@4             005133ae f   user32:USER32.dll
 0002:000823b4       _DialogBoxParamA@20        005133b4 f   user32:USER32.dll
 0002:000823ba       _EndDialog@8               005133ba f   user32:USER32.dll
 0002:000823c0       _SetDlgItemTextA@12        005133c0 f   user32:USER32.dll
 0002:000823c6       _SetForegroundWindow@4     005133c6 f   user32:USER32.dll
 0002:000823cc       _CreateAcceleratorTableA@8 005133cc f   user32:USER32.dll
 0002:000823d2       _TranslateAcceleratorA@12  005133d2 f   user32:USER32.dll
 0002:000823d8       _DestroyAcceleratorTable@4 005133d8 f   user32:USER32.dll
 0002:000823de       _GetDlgItemTextA@16        005133de f   user32:USER32.dll
 0002:000823e4       _MessageBoxA@16            005133e4 f   user32:USER32.dll
 0002:000823ea       _GetWindowTextLengthA@4    005133ea f   user32:USER32.dll
 0002:000823f0       _SendMessageA@16           005133f0 f   user32:USER32.dll
 0002:000823f6       _GetDlgItem@8              005133f6 f   user32:USER32.dll
 0002:000823fc       _SetWindowLongA@12         005133fc f   user32:USER32.dll
 0002:00082402       _GetWindowLongA@8          00513402 f   user32:USER32.dll
 0002:00082408       _PostMessageA@16           00513408 f   user32:USER32.dll
 0002:0008240e       _ShowWindow@8              0051340e f   user32:USER32.dll
 0002:00082414       _SetWindowPos@28           00513414 f   user32:USER32.dll
 0002:0008241a       _CreateWindowExA@48        0051341a f   user32:USER32.dll
 0002:00082420       _GetClientRect@8           00513420 f   user32:USER32.dll
 0002:00082426       _DestroyWindow@4           00513426 f   user32:USER32.dll
 0002:0008242c       _GetWindowRect@8           0051342c f   user32:USER32.dll
 0002:00082432       _ReleaseDC@8               00513432 f   user32:USER32.dll
 0002:00082438       _GetDC@4                   00513438 f   user32:USER32.dll
 0002:0008243e       _RegisterClassA@4          0051343e f   user32:USER32.dll
 0002:00082444       _LoadCursorA@8             00513444 f   user32:USER32.dll
 0002:0008244a       _LoadIconA@8               0051344a f   user32:USER32.dll
 0002:00082450       _SetClipboardViewer@4      00513450 f   user32:USER32.dll
 0002:00082456       _CheckMenuItem@12          00513456 f   user32:USER32.dll
 0002:0008245c       _DrawMenuBar@4             0051345c f   user32:USER32.dll
 0002:00082462       _AppendMenuA@16            00513462 f   user32:USER32.dll
 0002:00082468       _GetSystemMenu@8           00513468 f   user32:USER32.dll
 0002:0008246e       _SetDlgItemInt@16          0051346e f   user32:USER32.dll
 0002:00082474       _UpdateWindow@4            00513474 f   user32:USER32.dll
 0002:0008247a       _SetWindowTextA@8          0051347a f   user32:USER32.dll
 0002:00082480       _MoveWindow@24             00513480 f   user32:USER32.dll
 0002:00082486       _AdjustWindowRectEx@16     00513486 f   user32:USER32.dll
 0002:0008248c       _SetRect@20                0051348c f   user32:USER32.dll
 0002:00082492       _SystemParametersInfoA@16  00513492 f   user32:USER32.dll
 0002:00082498       _InvalidateRect@12         00513498 f   user32:USER32.dll
 0002:0008249e       _DrawTextA@20              0051349e f   user32:USER32.dll
 0002:000824a4       _ScrollWindowEx@32         005134a4 f   user32:USER32.dll
 0002:000824aa       _SetScrollInfo@16          005134aa f   user32:USER32.dll
 0002:000824b0       _GetKeyboardLayoutNameA@4  005134b0 f   user32:USER32.dll
 0002:000824b6       _InvalidateRgn@12          005134b6 f   user32:USER32.dll
 0002:000824bc       _IsIconic@4                005134bc f   user32:USER32.dll
 0002:000824c2       _wsprintfA                 005134c2 f   user32:USER32.dll
 0002:000824c8       _KillTimer@8               005134c8 f   user32:USER32.dll
 0002:000824ce       _EnableMenuItem@12         005134ce f   user32:USER32.dll
 0002:000824d4       _SetTimer@16               005134d4 f   user32:USER32.dll
 0002:000824da       _GetDlgItemInt@16          005134da f   user32:USER32.dll
 0002:000824e0       _SetFocus@4                005134e0 f   user32:USER32.dll
 0002:000824e6       _ShowScrollBar@12          005134e6 f   user32:USER32.dll
 0002:000824ec       _ChangeClipboardChain@8    005134ec f   user32:USER32.dll
 0002:000824f2       _PostQuitMessage@4         005134f2 f   user32:USER32.dll
 0002:000824f8       _DefWindowProcA@16         005134f8 f   user32:USER32.dll
 0002:000824fe       _GetKeyNameTextA@12        005134fe f   user32:USER32.dll
 0002:00082504       _IsWindow@4                00513504 f   user32:USER32.dll
 0002:0008250a       _SetCursor@4               0051350a f   user32:USER32.dll
 0002:00082510       _GetWindow@8               00513510 f   user32:USER32.dll
 0002:00082516       _GetForegroundWindow@0     00513516 f   user32:USER32.dll
 0002:0008251c       _GetFocus@0                0051351c f   user32:USER32.dll
 0002:00082522       _EndPaint@8                00513522 f   user32:USER32.dll
 0002:00082528       _BeginPaint@8              00513528 f   user32:USER32.dll
 0002:0008252e       _RegisterWindowMessageA@4  0051352e f   user32:USER32.dll
 0002:00082534       _CloseClipboard@0          00513534 f   user32:USER32.dll
 0002:0008253a       _GetClipboardData@4        0051353a f   user32:USER32.dll
 0002:00082540       _OpenClipboard@4           00513540 f   user32:USER32.dll
 0002:00082546       _GetClipboardOwner@0       00513546 f   user32:USER32.dll
 0002:0008254c       _SetClipboardData@8        0051354c f   user32:USER32.dll
 0002:00082552       _EmptyClipboard@0          00513552 f   user32:USER32.dll
 0002:00082558       _RedrawWindow@16           00513558 f   user32:USER32.dll
 0002:0008255e       _SetCursorPos@8            0051355e f   user32:USER32.dll
 0002:00082564       _GetCursorPos@4            00513564 f   user32:USER32.dll
 0002:0008256a       _LoadMenuA@8               0051356a f   user32:USER32.dll
 0002:00082570       _RegisterClassExA@4        00513570 f   user32:USER32.dll
 0002:00082576       _LoadStringA@16            00513576 f   user32:USER32.dll
 0002:0008257c       _TrackPopupMenu@28         0051357c f   user32:USER32.dll
 0002:00082582       _SetMenuDefaultItem@12     00513582 f   user32:USER32.dll
 0002:00082588       _GetMenuItemID@8           00513588 f   user32:USER32.dll
 0002:0008258e       _GetSubMenu@8              0051358e f   user32:USER32.dll
 0002:00082594       _DestroyMenu@4             00513594 f   user32:USER32.dll
 0002:0008259a       _DispatchMessageA@4        0051359a f   user32:USER32.dll
 0002:000825a0       _TranslateMessage@4        005135a0 f   user32:USER32.dll
 0002:000825a6       _PeekMessageA@20           005135a6 f   user32:USER32.dll
 0002:000825ac       _SendDlgItemMessageA@20    005135ac f   user32:USER32.dll
 0002:000825b2       _GetParent@4               005135b2 f   user32:USER32.dll
 0002:000825b8       _RemoveMenu@12             005135b8 f   user32:USER32.dll
 0002:000825be       _GetMenuItemCount@4        005135be f   user32:USER32.dll
 0002:000825c4       _GetWindowTextA@12         005135c4 f   user32:USER32.dll
 0002:000825ca       _EnableWindow@8            005135ca f   user32:USER32.dll
 0002:000825d0       _DestroyIcon@4             005135d0 f   user32:USER32.dll
 0002:000825d6       _GetClassNameA@12          005135d6 f   user32:USER32.dll
 0002:000825dc       _CloseDesktop@4            005135dc f   user32:USER32.dll
 0002:000825e2       _EnumDesktopWindows@12     005135e2 f   user32:USER32.dll
 0002:000825e8       _OpenDesktopA@16           005135e8 f   user32:USER32.dll
 0002:000825ee       _FindWindowA@8             005135ee f   user32:USER32.dll
 0002:000825f4       _GetSystemMetrics@4        005135f4 f   user32:USER32.dll
 0002:000825fa       _IntersectRect@12          005135fa f   user32:USER32.dll
 0002:00082600       _MapWindowPoints@16        00513600 f   user32:USER32.dll
 0002:00082606       _WindowFromDC@4            00513606 f   user32:USER32.dll
 0002:0008260c       _SetWindowRgn@12           0051360c f   user32:USER32.dll
 0002:00082612       _GetDesktopWindow@0        00513612 f   user32:USER32.dll
 0002:00082618       _PtInRect@12               00513618 f   user32:USER32.dll
 0002:0008261e       _ModifyMenuA@20            0051361e f   user32:USER32.dll
 0002:00082624       _GetMenuStringA@20         00513624 f   user32:USER32.dll
 0002:0008262a       _LoadBitmapA@8             0051362a f   user32:USER32.dll
 0002:00082630       _FillRect@12               00513630 f   user32:USER32.dll
 0002:00082636       _GetKeyboardState@4        00513636 f   user32:USER32.dll
 0002:0008263c       _ToUnicode@24              0051363c f   user32:USER32.dll
 0002:00082642       _VkKeyScanW@4              00513642 f   user32:USER32.dll
 0002:00082648       _keybd_event@16            00513648 f   user32:USER32.dll
 0002:0008264e       _ToAscii@20                0051364e f   user32:USER32.dll
 0002:00082654       _GetKeyState@4             00513654 f   user32:USER32.dll
 0002:0008265a       _SetWindowsHookExA@16      0051365a f   user32:USER32.dll
 0002:00082660       _GetWindowThreadProcessId@8 00513660 f   user32:USER32.dll
 0002:00082666       _UnhookWindowsHookEx@4     00513666 f   user32:USER32.dll
 0002:0008266c       _CallNextHookEx@16         0051366c f   user32:USER32.dll
 0002:00082672       _GetScrollInfo@12          00513672 f   user32:USER32.dll
 0002:00082678       _CallWindowProcA@20        00513678 f   user32:USER32.dll
 0002:0008267e       _ReleaseCapture@0          0051367e f   user32:USER32.dll
 0002:00082684       _ScreenToClient@8          00513684 f   user32:USER32.dll
 0002:0008268a       _SetCaretBlinkTime@4       0051368a f   user32:USER32.dll
 0002:00082690       _GetCaretBlinkTime@0       00513690 f   user32:USER32.dll
 0002:00082696       _SetCapture@4              00513696 f   user32:USER32.dll
 0002:0008269c       _IsDlgButtonChecked@8      0051369c f   user32:USER32.dll
 0002:000826a2       _GetMessageA@16            005136a2 f   user32:USER32.dll
 0002:000826a8       _LoadKeyboardLayoutA@8     005136a8 f   user32:USER32.dll
 0002:000826ae       _DeleteDC@4                005136ae f   gdi32:GDI32.dll
 0002:000826b4       _DeleteObject@4            005136b4 f   gdi32:GDI32.dll
 0002:000826ba       _BitBlt@36                 005136ba f   gdi32:GDI32.dll
 0002:000826c0       _PatBlt@24                 005136c0 f   gdi32:GDI32.dll
 0002:000826c6       _SelectObject@8            005136c6 f   gdi32:GDI32.dll
 0002:000826cc       _CreateSolidBrush@4        005136cc f   gdi32:GDI32.dll
 0002:000826d2       _CreateCompatibleDC@4      005136d2 f   gdi32:GDI32.dll
 0002:000826d8       _GetClipBox@8              005136d8 f   gdi32:GDI32.dll
 0002:000826de       _SetBkMode@8               005136de f   gdi32:GDI32.dll
 0002:000826e4       _SetTextColor@8            005136e4 f   gdi32:GDI32.dll
 0002:000826ea       _CreateFontIndirectA@4     005136ea f   gdi32:GDI32.dll
 0002:000826f0       _CreatePalette@4           005136f0 f   gdi32:GDI32.dll
 0002:000826f6       _GetDeviceCaps@8           005136f6 f   gdi32:GDI32.dll
 0002:000826fc       _SetBkColor@8              005136fc f   gdi32:GDI32.dll
 0002:00082702       _CreateCompatibleBitmap@12 00513702 f   gdi32:GDI32.dll
 0002:00082708       _ExtTextOutA@32            00513708 f   gdi32:GDI32.dll
 0002:0008270e       _RealizePalette@4          0051370e f   gdi32:GDI32.dll
 0002:00082714       _SelectPalette@12          00513714 f   gdi32:GDI32.dll
 0002:0008271a       _SetDIBColorTable@16       0051371a f   gdi32:GDI32.dll
 0002:00082720       _CreateDIBSection@24       00513720 f   gdi32:GDI32.dll
 0002:00082726       _CombineRgn@16             00513726 f   gdi32:GDI32.dll
 0002:0008272c       _CreateRectRgn@16          0051372c f   gdi32:GDI32.dll
 0002:00082732       _GetStockObject@4          00513732 f   gdi32:GDI32.dll
 0002:00082738       _UpdateColors@4            00513738 f   gdi32:GDI32.dll
 0002:0008273e       _StretchBlt@44             0051373e f   gdi32:GDI32.dll
 0002:00082744       _SetBrushOrgEx@16          00513744 f   gdi32:GDI32.dll
 0002:0008274a       _SetStretchBltMode@8       0051374a f   gdi32:GDI32.dll
 0002:00082750       _SetPixelV@16              00513750 f   gdi32:GDI32.dll
 0002:00082756       _CreateRectRgnIndirect@4   00513756 f   gdi32:GDI32.dll
 0002:0008275c       _GdiFlush@0                0051375c f   gdi32:GDI32.dll
 0002:00082762       _Rectangle@20              00513762 f   gdi32:GDI32.dll
 0002:00082768       _CreateFontA@56            00513768 f   gdi32:GDI32.dll
 0002:0008276e       _CreatePolygonRgn@12       0051376e f   gdi32:GDI32.dll
 0002:00082774       _LineTo@12                 00513774 f   gdi32:GDI32.dll
 0002:0008277a       _MoveToEx@16               0051377a f   gdi32:GDI32.dll
 0002:00082780       _CreatePen@12              00513780 f   gdi32:GDI32.dll
 0002:00082786       _SetROP2@8                 00513786 f   gdi32:GDI32.dll
 0002:0008278c       _CommDlgExtendedError@0    0051378c f   comdlg32:COMDLG32.dll
 0002:00082792       _GetSaveFileNameA@4        00513792 f   comdlg32:COMDLG32.dll
 0002:00082798       _GetOpenFileNameA@4        00513798 f   comdlg32:COMDLG32.dll
 0002:0008279e       _RegCloseKey@4             0051379e f   advapi32:ADVAPI32.dll
 0002:000827a4       _RegQueryValueExA@24       005137a4 f   advapi32:ADVAPI32.dll
 0002:000827aa       _RegCreateKeyA@12          005137aa f   advapi32:ADVAPI32.dll
 0002:000827b0       _RegCreateKeyExA@36        005137b0 f   advapi32:ADVAPI32.dll
 0002:000827b6       _RegSetValueExA@24         005137b6 f   advapi32:ADVAPI32.dll
 0002:000827bc       _RegDeleteValueA@8         005137bc f   advapi32:ADVAPI32.dll
 0002:000827c2       _RegEnumValueA@32          005137c2 f   advapi32:ADVAPI32.dll
 0002:000827c8       _RegQueryInfoKeyA@48       005137c8 f   advapi32:ADVAPI32.dll
 0002:000827ce       _RegSetValueA@20           005137ce f   advapi32:ADVAPI32.dll
 0002:000827d4       _RegOpenKeyA@12            005137d4 f   advapi32:ADVAPI32.dll
 0002:000827da       _Shell_NotifyIconA@8       005137da f   shell32:SHELL32.dll
 0002:000827e0       _SHFileOperationA@4        005137e0 f   shell32:SHELL32.dll
 0002:000827e6       _SHGetPathFromIDListA@8    005137e6 f   shell32:SHELL32.dll
 0002:000827ec       _SHGetSpecialFolderLocation@12 005137ec f   shell32:SHELL32.dll
 0002:00082800       _jpeg_CreateDecompress     00513800 f   libjpeg:jdapimin.obj
 0002:00082a30       _jpeg_destroy_decompress   00513a30 f   libjpeg:jdapimin.obj
 0002:00082a80       _jpeg_abort_decompress     00513a80 f   libjpeg:jdapimin.obj
 0002:00082ad0       _jpeg_read_header          00513ad0 f   libjpeg:jdapimin.obj
 0002:00082c10       _jpeg_consume_input        00513c10 f   libjpeg:jdapimin.obj
 0002:00083210       _jpeg_input_complete       00514210 f   libjpeg:jdapimin.obj
 0002:000832c0       _jpeg_has_multiple_scans   005142c0 f   libjpeg:jdapimin.obj
 0002:00083370       _jpeg_finish_decompress    00514370 f   libjpeg:jdapimin.obj
 0002:00083540       _jpeg_start_decompress     00514540 f   libjpeg:jdapistd.obj
 0002:00083940       _jpeg_read_scanlines       00514940 f   libjpeg:jdapistd.obj
 0002:00083b00       _jpeg_read_raw_data        00514b00 f   libjpeg:jdapistd.obj
 0002:00083cd0       _jpeg_start_output         00514cd0 f   libjpeg:jdapistd.obj
 0002:00083dd0       _jpeg_finish_output        00514dd0 f   libjpeg:jdapistd.obj
 0002:00083f30       _jpeg_std_error            00514f30 f   libjpeg:jerror.obj
 0002:00084480       _jpeg_resync_to_restart    00515480 f   libjpeg:jdmarker.obj
 0002:000849b0       _jinit_marker_reader       005159b0 f   libjpeg:jdmarker.obj
 0002:000884c0       _jpeg_save_markers         005194c0 f   libjpeg:jdmarker.obj
 0002:00088b90       _jpeg_set_marker_processor 00519b90 f   libjpeg:jdmarker.obj
 0002:00088c60       _jinit_input_controller    00519c60 f   libjpeg:jdinput.obj
 0002:00089a60       _jinit_memory_mgr          0051aa60 f   libjpeg:jmemmgr.obj
 0002:0008b830       _jpeg_abort                0051c830 f   libjpeg:jcomapi.obj
 0002:0008b900       _jpeg_destroy              0051c900 f   libjpeg:jcomapi.obj
 0002:0008b990       _jpeg_alloc_quant_table    0051c990 f   libjpeg:jcomapi.obj
 0002:0008ba10       _jpeg_alloc_huff_table     0051ca10 f   libjpeg:jcomapi.obj
 0002:0008ba90       _jpeg_calc_output_dimensions 0051ca90 f   libjpeg:jdmaster.obj
 0002:0008c070       _jpeg_new_colormap         0051d070 f   libjpeg:jdmaster.obj
 0002:0008c1b0       _jinit_master_decompress   0051d1b0 f   libjpeg:jdmaster.obj
 0002:0008ccc0       _jdiv_round_up             0051dcc0 f   libjpeg:jutils.obj
 0002:0008cd00       _jround_up                 0051dd00 f   libjpeg:jutils.obj
 0002:0008cd50       _jcopy_sample_rows         0051dd50 f   libjpeg:jutils.obj
 0002:0008ce20       _jcopy_block_row           0051de20 f   libjpeg:jutils.obj
 0002:0008ce80       _jzero_far                 0051de80 f   libjpeg:jutils.obj
 0002:0008cee0       _jpeg_get_small            0051dee0 f   libjpeg:jmemnobs.obj
 0002:0008cf30       _jpeg_free_small           0051df30 f   libjpeg:jmemnobs.obj
 0002:0008cf80       _jpeg_get_large            0051df80 f   libjpeg:jmemnobs.obj
 0002:0008cfd0       _jpeg_free_large           0051dfd0 f   libjpeg:jmemnobs.obj
 0002:0008d020       _jpeg_mem_available        0051e020 f   libjpeg:jmemnobs.obj
 0002:0008d060       _jpeg_open_backing_store   0051e060 f   libjpeg:jmemnobs.obj
 0002:0008d0d0       _jpeg_mem_init             0051e0d0 f   libjpeg:jmemnobs.obj
 0002:0008d100       _jpeg_mem_term             0051e100 f   libjpeg:jmemnobs.obj
 0002:0008d130       _jinit_d_main_controller   0051e130 f   libjpeg:jdmainct.obj
 0002:0008df50       _jinit_d_coef_controller   0051ef50 f   libjpeg:jdcoefct.obj
 0002:0008feb0       _jpeg_make_d_derived_tbl   00520eb0 f   libjpeg:jdhuff.obj
 0002:00090480       _jpeg_fill_bit_buffer      00521480 f   libjpeg:jdhuff.obj
 0002:00090710       _jpeg_huff_decode          00521710 f   libjpeg:jdhuff.obj
 0002:000908f0       _jinit_huff_decoder        005218f0 f   libjpeg:jdhuff.obj
 0002:00091770       _jinit_phuff_decoder       00522770 f   libjpeg:jdphuff.obj
 0002:00093300       _jinit_inverse_dct         00524300 f   libjpeg:jddctmgr.obj
 0002:00093890       _jinit_d_post_controller   00524890 f   libjpeg:jdpostct.obj
 0002:00094090       _jinit_upsampler           00525090 f   libjpeg:jdsample.obj
 0002:00094f80       _jinit_color_deconverter   00525f80 f   libjpeg:jdcolor.obj
 0002:00095c50       _jinit_merged_upsampler    00526c50 f   libjpeg:jdmerge.obj
 0002:00096a30       _jinit_2pass_quantizer     00527a30 f   libjpeg:jquant2.obj
 0002:000995e0       _jinit_1pass_quantizer     0052a5e0 f   libjpeg:jquant1.obj
 0002:0009af30       _jpeg_idct_float           0052bf30 f   libjpeg:jidctflt.obj
 0002:0009b930       _jpeg_idct_ifast           0052c930 f   libjpeg:jidctfst.obj
 0002:0009c3e0       _jpeg_idct_islow           0052d3e0 f   libjpeg:jidctint.obj
 0002:0009cfd0       _jpeg_idct_4x4             0052dfd0 f   libjpeg:jidctred.obj
 0002:0009d630       _jpeg_idct_2x2             0052e630 f   libjpeg:jidctred.obj
 0002:0009da20       _jpeg_idct_1x1             0052ea20 f   libjpeg:jidctred.obj
 0002:0009dac0       ??0ZlibInStream@rdr@@QAE@H@Z 0052eac0 f   rdr:ZlibInStream.obj
 0002:0009dcf0       ??1InStream@rdr@@UAE@XZ    0052ecf0 f i rdr:ZlibInStream.obj
 0002:0009dd30       ?readBytes@InStream@rdr@@UAEXPAXH@Z 0052ed30 f i rdr:ZlibInStream.obj
 0002:0009ddf0       ??0InStream@rdr@@IAE@XZ    0052edf0 f i rdr:ZlibInStream.obj
 0002:0009de40       ??_GInStream@rdr@@UAEPAXI@Z 0052ee40 f i rdr:ZlibInStream.obj
 0002:0009de40       ??_EInStream@rdr@@UAEPAXI@Z 0052ee40 f i rdr:ZlibInStream.obj
 0002:0009deb0       ??0Exception@rdr@@QAE@PBD0@Z 0052eeb0 f i rdr:ZlibInStream.obj
 0002:0009dfa0       ?str@Exception@rdr@@UBEPBDXZ 0052efa0 f i rdr:ZlibInStream.obj
 0002:0009dfe0       ??_GZlibInStream@rdr@@UAEPAXI@Z 0052efe0 f i rdr:ZlibInStream.obj
 0002:0009dfe0       ??_EZlibInStream@rdr@@UAEPAXI@Z 0052efe0 f i rdr:ZlibInStream.obj
 0002:0009e050       ??0Exception@rdr@@QAE@ABU01@@Z 0052f050 f i rdr:ZlibInStream.obj
 0002:0009e0b0       ??1ZlibInStream@rdr@@UAE@XZ 0052f0b0 f   rdr:ZlibInStream.obj
 0002:0009e1b0       ?setUnderlying@ZlibInStream@rdr@@QAEXPAVInStream@2@H@Z 0052f1b0 f   rdr:ZlibInStream.obj
 0002:0009e220       ?pos@ZlibInStream@rdr@@UAEHXZ 0052f220 f   rdr:ZlibInStream.obj
 0002:0009e270       ?reset@ZlibInStream@rdr@@QAEXXZ 0052f270 f   rdr:ZlibInStream.obj
 0002:0009e320       ?overrun@ZlibInStream@rdr@@EAEHHH@Z 0052f320 f   rdr:ZlibInStream.obj
 0002:0009e4d0       ?decompress@ZlibInStream@rdr@@AAEXXZ 0052f4d0 f   rdr:ZlibInStream.obj
 0002:0009e670       ?getptr@InStream@rdr@@QBEPBEXZ 0052f670 f i rdr:ZlibInStream.obj
 0002:0009e6b0       ?getend@InStream@rdr@@QBEPBEXZ 0052f6b0 f i rdr:ZlibInStream.obj
 0002:0009e6f0       ?setptr@InStream@rdr@@QAEXPBE@Z 0052f6f0 f i rdr:ZlibInStream.obj
 0002:0009e740       ??0FdInStream@rdr@@QAE@HHH@Z 0052f740 f   rdr:FdInStream.obj
 0002:0009e900       ??_EFdInStream@rdr@@UAEPAXI@Z 0052f900 f i rdr:FdInStream.obj
 0002:0009e900       ??_GFdInStream@rdr@@UAEPAXI@Z 0052f900 f i rdr:FdInStream.obj
 0002:0009e970       ??0FdInStream@rdr@@QAE@HP6AXPAX@Z0H@Z 0052f970 f   rdr:FdInStream.obj
 0002:0009eb20       ??1FdInStream@rdr@@UAE@XZ  0052fb20 f   rdr:FdInStream.obj
 0002:0009ebf0       ?pos@FdInStream@rdr@@UAEHXZ 0052fbf0 f   rdr:FdInStream.obj
 0002:0009ec40       ?readBytes@FdInStream@rdr@@UAEXPAXH@Z 0052fc40 f   rdr:FdInStream.obj
 0002:0009ed80       ?overrun@FdInStream@rdr@@MAEHHH@Z 0052fd80 f   rdr:FdInStream.obj
 0002:0009ef20       ?Check_if_buffer_has_data@FdInStream@rdr@@QAEHXZ 0052ff20 f   rdr:FdInStream.obj
 0002:0009efa0       ?checkReadable@FdInStream@rdr@@AAEHHH@Z 0052ffa0 f   rdr:FdInStream.obj
 0002:0009f130       ?Passedusecs@@YA_JXZ       00530130 f   rdr:FdInStream.obj
 0002:0009f340       ?readWithTimeoutOrCallback@FdInStream@rdr@@AAEHPAXH@Z 00530340 f   rdr:FdInStream.obj
 0002:0009f790       ??0SystemException@rdr@@QAE@PBDH@Z 00530790 f i rdr:FdInStream.obj
 0002:0009fa00       ??0TimedOut@rdr@@QAE@PBD@Z 00530a00 f i rdr:FdInStream.obj
 0002:0009fa70       ??0EndOfStream@rdr@@QAE@PBD@Z 00530a70 f i rdr:FdInStream.obj
 0002:0009fae0       ??0SystemException@rdr@@QAE@ABU01@@Z 00530ae0 f i rdr:FdInStream.obj
 0002:0009fb60       ??0TimedOut@rdr@@QAE@ABU01@@Z 00530b60 f i rdr:FdInStream.obj
 0002:0009fbd0       ??0EndOfStream@rdr@@QAE@ABU01@@Z 00530bd0 f i rdr:FdInStream.obj
 0002:0009fc40       ?startTiming@FdInStream@rdr@@QAEXXZ 00530c40 f   rdr:FdInStream.obj
 0002:0009fcc0       ?stopTiming@FdInStream@rdr@@QAEXXZ 00530cc0 f   rdr:FdInStream.obj
 0002:0009fd30       ?kbitsPerSecond@FdInStream@rdr@@QAEIXZ 00530d30 f   rdr:FdInStream.obj
 0002:0009fd80       ?SetReadFromMemoryBuffer@FdInStream@rdr@@QAEXHPAD@Z 00530d80 f   rdr:FdInStream.obj
 0002:0009fdf0       _uncompress                00530df0 f   zlib:uncompr.obj
 0002:0009ff70       _inflateReset              00530f70 f   zlib:inflate.obj
 0002:000a00c0       _inflatePrime              005310c0 f   zlib:inflate.obj
 0002:000a0180       _inflateInit2_             00531180 f   zlib:inflate.obj
 0002:000a0360       _inflateInit_              00531360 f   zlib:inflate.obj
 0002:000a03c0       _inflate                   005313c0 f   zlib:inflate.obj
 0002:000a2fc0       _inflateEnd                00533fc0 f   zlib:inflate.obj
 0002:000a30a0       _inflateSetDictionary      005340a0 f   zlib:inflate.obj
 0002:000a3240       _inflateGetHeader          00534240 f   zlib:inflate.obj
 0002:000a32d0       _inflateSync               005342d0 f   zlib:inflate.obj
 0002:000a35f0       _inflateSyncPoint          005345f0 f   zlib:inflate.obj
 0002:000a3680       _inflateCopy               00534680 f   zlib:inflate.obj
 0002:000a3900       _compress2                 00534900 f   zlib:compress.obj
 0002:000a3a70       _compress                  00534a70 f   zlib:compress.obj
 0002:000a3ad0       _compressBound             00534ad0 f   zlib:compress.obj
 0002:000a3b20       _adler32                   00534b20 f   zlib:adler32.obj
 0002:000a4110       _adler32_combine           00535110 f   zlib:adler32.obj
 0002:000a4240       _zlibVersion               00535240 f   zlib:zutil.obj
 0002:000a4280       _zlibCompileFlags          00535280 f   zlib:zutil.obj
 0002:000a4430       _zError                    00535430 f   zlib:zutil.obj
 0002:000a4480       _zcalloc                   00535480 f   zlib:zutil.obj
 0002:000a44f0       _zcfree                    005354f0 f   zlib:zutil.obj
 0002:000a4540       _inflate_fast              00535540 f   zlib:inffast.obj
 0002:000a5210       _inflate_table             00536210 f   zlib:inftrees.obj
 0002:000a5b80       _get_crc_table             00536b80 f   zlib:crc32.obj
 0002:000a5bc0       _crc32                     00536bc0 f   zlib:crc32.obj
 0002:000a6920       _crc32_combine             00537920 f   zlib:crc32.obj
 0002:000a6c00       _deflateInit_              00537c00 f   zlib:deflate.obj
 0002:000a6c70       _deflateInit2_             00537c70 f   zlib:deflate.obj
 0002:000a70e0       _deflateSetDictionary      005380e0 f   zlib:deflate.obj
 0002:000a7350       _deflateReset              00538350 f   zlib:deflate.obj
 0002:000a74e0       _deflateSetHeader          005384e0 f   zlib:deflate.obj
 0002:000a7560       _deflatePrime              00538560 f   zlib:deflate.obj
 0002:000a75f0       _deflateParams             005385f0 f   zlib:deflate.obj
 0002:000a7790       _deflateTune               00538790 f   zlib:deflate.obj
 0002:000a7820       _deflateBound              00538820 f   zlib:deflate.obj
 0002:000a78e0       _deflate                   005388e0 f   zlib:deflate.obj
 0002:000a8d00       _deflateEnd                00539d00 f   zlib:deflate.obj
 0002:000a8ef0       _deflateCopy               00539ef0 f   zlib:deflate.obj
 0002:000ab280       __tr_init                  0053c280 f   zlib:trees.obj
 0002:000ab4e0       __tr_stored_block          0053c4e0 f   zlib:trees.obj
 0002:000ab6a0       __tr_align                 0053c6a0 f   zlib:trees.obj
 0002:000abcc0       __tr_flush_block           0053ccc0 f   zlib:trees.obj
 0002:000ae5b0       __tr_tally                 0053f5b0 f   zlib:trees.obj
 0002:000af700       ??2@YAPAXIABU_DebugHeapTag_t@std@@PADH@Z 00540700 f   libcpmtd:xdebug.obj
 0002:000af7a0       ??0bad_alloc@std@@QAE@XZ   005407a0 f i libcpmtd:xdebug.obj
 0002:000af7e0       ??_U@YAPAXIABU_DebugHeapTag_t@std@@PADH@Z 005407e0 f   libcpmtd:xdebug.obj
 0002:000af810       ??3@YAXPAXABU_DebugHeapTag_t@std@@PADH@Z 00540810 f   libcpmtd:xdebug.obj
 0002:000af830       ??_V@YAXPAXABU_DebugHeapTag_t@std@@PADH@Z 00540830 f   libcpmtd:xdebug.obj
 0002:000af860       ?_DebugHeapTag_func@std@@YAABU_DebugHeapTag_t@1@XZ 00540860 f   libcpmtd:xdebug.obj
 0002:000af870       ??0_Init_locks@std@@QAE@XZ 00540870 f   libcpmtd:xlock.obj
 0002:000af8e0       ??1_Init_locks@std@@QAE@XZ 005408e0 f   libcpmtd:xlock.obj
 0002:000af940       ?_Init_locks_ctor@_Init_locks@std@@CAXPAV12@@Z 00540940 f   libcpmtd:xlock.obj
 0002:000af9a0       ?_Init_locks_dtor@_Init_locks@std@@CAXPAV12@@Z 005409a0 f   libcpmtd:xlock.obj
 0002:000afa00       ??0_Lockit@std@@QAE@XZ     00540a00 f   libcpmtd:xlock.obj
 0002:000afa30       ??0_Lockit@std@@QAE@H@Z    00540a30 f   libcpmtd:xlock.obj
 0002:000afa80       ??1_Lockit@std@@QAE@XZ     00540a80 f   libcpmtd:xlock.obj
 0002:000afac0       ?_Lockit_ctor@_Lockit@std@@CAXPAV12@@Z 00540ac0 f   libcpmtd:xlock.obj
 0002:000afae0       ?_Lockit_ctor@_Lockit@std@@CAXPAV12@H@Z 00540ae0 f   libcpmtd:xlock.obj
 0002:000afb20       ?_Lockit_dtor@_Lockit@std@@CAXPAV12@@Z 00540b20 f   libcpmtd:xlock.obj
 0002:000afb50       ?_Lockit_ctor@_Lockit@std@@SAXH@Z 00540b50 f   libcpmtd:xlock.obj
 0002:000afb80       ?_Lockit_dtor@_Lockit@std@@SAXH@Z 00540b80 f   libcpmtd:xlock.obj
 0002:000afbb0       ?_Fpz_func@std@@YAAA_JXZ   00540bb0 f   libcpmtd:ios.obj
 0002:000afbc0       ?_BADOFF_func@std@@YAABJXZ 00540bc0 f   libcpmtd:ios.obj
 0002:000afbd0       ?_Index_func@ios_base@std@@CAAAHXZ 00540bd0 f   libcpmtd:ios.obj
 0002:000afbe0       ?_Sync_func@ios_base@std@@CAAA_NXZ 00540be0 f   libcpmtd:ios.obj
 0002:000afbf0       ?_Ios_base_dtor@ios_base@std@@CAXPAV12@@Z 00540bf0 f   libcpmtd:ios.obj
 0002:000afc60       ?_Tidy@ios_base@std@@AAAXXZ 00540c60 f i libcpmtd:ios.obj
 0002:000afd10       ?_Callfns@ios_base@std@@AAEXW4event@12@@Z 00540d10 f i libcpmtd:ios.obj
 0002:000afd70       ?_Addstd@ios_base@std@@SAXPAV12@@Z 00540d70 f   libcpmtd:ios.obj
 0002:000afe30       ??$_DebugHeapDelete@U_Iosarray@ios_base@std@@@std@@YAXPAU_Iosarray@ios_base@0@@Z 00540e30 f i libcpmtd:ios.obj
 0002:000afe50       ??$_DebugHeapDelete@U_Fnarray@ios_base@std@@@std@@YAXPAU_Fnarray@ios_base@0@@Z 00540e50 f i libcpmtd:ios.obj
 0002:000afe70       ??0_Mutex@std@@QAE@XZ      00540e70 f   libcpmtd:xmutex.obj
 0002:000afed0       ??1_Mutex@std@@QAE@XZ      00540ed0 f   libcpmtd:xmutex.obj
 0002:000aff10       ?_Lock@_Mutex@std@@QAEXXZ  00540f10 f   libcpmtd:xmutex.obj
 0002:000aff40       ?_Unlock@_Mutex@std@@QAEXXZ 00540f40 f   libcpmtd:xmutex.obj
 0002:000aff70       ?_Mutex_ctor@_Mutex@std@@CAXPAV12@@Z 00540f70 f   libcpmtd:xmutex.obj
 0002:000affc0       ?_Mutex_dtor@_Mutex@std@@CAXPAV12@@Z 00540fc0 f   libcpmtd:xmutex.obj
 0002:000afff0       ?_Mutex_Lock@_Mutex@std@@CAXPAV12@@Z 00540ff0 f   libcpmtd:xmutex.obj
 0002:000b0010       ?_Mutex_Unlock@_Mutex@std@@CAXPAV12@@Z 00541010 f   libcpmtd:xmutex.obj
 0002:000b0030       ??$_DebugHeapDelete@U_RTL_CRITICAL_SECTION@@@std@@YAXPAU_RTL_CRITICAL_SECTION@@@Z 00541030 f i libcpmtd:xmutex.obj
 0002:000b0050       ?_Xlen@_String_base@std@@SAXXZ 00541050 f   libcpmtd:string.obj
 0002:000b00e0       ?_Xran@_String_base@std@@SAXXZ 005410e0 f   libcpmtd:string.obj
 0002:000b0170       ??0out_of_range@std@@QAE@ABV?$basic_string@DU?$char_traits@D@std@@V?$allocator@D@2@@1@@Z 00541170 f i libcpmtd:string.obj
 0002:000b01a0       ??1out_of_range@std@@UAE@XZ 005411a0 f i libcpmtd:string.obj
 0002:000b01d0       ??_Gout_of_range@std@@UAEPAXI@Z 005411d0 f i libcpmtd:string.obj
 0002:000b01d0       ??_Eout_of_range@std@@UAEPAXI@Z 005411d0 f i libcpmtd:string.obj
 0002:000b0210       ??0out_of_range@std@@QAE@ABV01@@Z 00541210 f i libcpmtd:string.obj
 0002:000b0240       ?_Xinvarg@_String_base@std@@SAXXZ 00541240 f   libcpmtd:string.obj
 0002:000b02d0       ??0invalid_argument@std@@QAE@ABV?$basic_string@DU?$char_traits@D@std@@V?$allocator@D@2@@1@@Z 005412d0 f i libcpmtd:string.obj
 0002:000b0300       ??1invalid_argument@std@@UAE@XZ 00541300 f i libcpmtd:string.obj
 0002:000b0330       ??_Einvalid_argument@std@@UAEPAXI@Z 00541330 f i libcpmtd:string.obj
 0002:000b0330       ??_Ginvalid_argument@std@@UAEPAXI@Z 00541330 f i libcpmtd:string.obj
 0002:000b0370       ??0invalid_argument@std@@QAE@ABV01@@Z 00541370 f i libcpmtd:string.obj
 0002:000b03a0       ?uncaught_exception@std@@YA_NXZ 005413a0 f   libcpmtd:uncaught.obj
 0002:000b03b0       ?_AtModuleExit@@YAXP6AXXZ@Z 005413b0 f   libcpmtd:locale0.obj
 0002:000b03f0       __Fac_tidy                 005413f0 f   libcpmtd:locale0.obj
 0002:000b0450       ?facet_Register@facet@locale@std@@CAXPAV123@@Z 00541450 f   libcpmtd:locale0.obj
 0002:000b0530       ??0_Fac_node@std@@QAE@PAU01@PAVfacet@locale@1@@Z 00541530 f i libcpmtd:locale0.obj
 0002:000b0560       __Deletegloballocale       00541560 f   libcpmtd:locale0.obj
 0002:000b05a0       ?_Getgloballocale@locale@std@@CAPAV_Locimp@12@XZ 005415a0 f   libcpmtd:locale0.obj
 0002:000b05b0       ?_Setgloballocale@locale@std@@CAXPAX@Z 005415b0 f   libcpmtd:locale0.obj
 0002:000b0630       ?_Clocptr_func@_Locimp@locale@std@@CAAAPAV123@XZ 00541630 f   libcpmtd:locale0.obj
 0002:000b0640       ?_Id_cnt_func@id@locale@std@@CAAAHXZ 00541640 f   libcpmtd:locale0.obj
 0002:000b0650       ?_Id_func@?$ctype@D@std@@SAAAVid@locale@2@XZ 00541650 f   libcpmtd:locale0.obj
 0002:000b0660       ?_Id_func@?$ctype@_W@std@@SAAAVid@locale@2@XZ 00541660 f   libcpmtd:locale0.obj
 0002:000b0670       ?_Id_func@?$codecvt@_WDH@std@@SAAAVid@locale@2@XZ 00541670 f   libcpmtd:locale0.obj
 0002:000b0680       ?_Id_func@?$ctype@G@std@@SAAAVid@locale@2@XZ 00541680 f   libcpmtd:locale0.obj
 0002:000b0690       ?_Id_func@?$codecvt@GDH@std@@SAAAVid@locale@2@XZ 00541690 f   libcpmtd:locale0.obj
 0002:000b06a0       ?classic@locale@std@@SAABV12@XZ 005416a0 f   libcpmtd:locale0.obj
 0002:000b06c0       ?empty@locale@std@@SA?AV12@XZ 005416c0 f   libcpmtd:locale0.obj
 0002:000b07a0       ??0_Locimp@locale@std@@AAE@_N@Z 005417a0 f i libcpmtd:locale0.obj
 0002:000b0860       ??0_DebugHeapString@std@@QAE@PBD@Z 00541860 f i libcpmtd:locale0.obj
 0002:000b0890       ??0locale@std@@AAE@PAV_Locimp@01@@Z 00541890 f i libcpmtd:locale0.obj
 0002:000b08b0       ??_G_Locimp@locale@std@@MAEPAXI@Z 005418b0 f i libcpmtd:locale0.obj
 0002:000b08b0       ??_E_Locimp@locale@std@@MAEPAXI@Z 005418b0 f i libcpmtd:locale0.obj
 0002:000b08f0       ??1_Locimp@locale@std@@MAE@XZ 005418f0 f i libcpmtd:locale0.obj
 0002:000b0980       ??1_DebugHeapString@std@@QAE@XZ 00541980 f i libcpmtd:locale0.obj
 0002:000b09a0       ?_Init@locale@std@@CAPAV_Locimp@12@XZ 005419a0 f   libcpmtd:locale0.obj
 0002:000b0b60       ??4_DebugHeapString@std@@QAEAAV01@ABV01@@Z 00541b60 f i libcpmtd:locale0.obj
 0002:000b0b90       ?_Locimp_dtor@_Locimp@locale@std@@CAXPAV123@@Z 00541b90 f   libcpmtd:locale0.obj
 0002:000b0c70       ?_Locinfo_ctor@_Locinfo@std@@SAXPAV12@PBD@Z 00541c70 f   libcpmtd:locale0.obj
 0002:000b0d10       ?_Locinfo_ctor@_Locinfo@std@@SAXPAV12@ABV?$basic_string@DU?$char_traits@D@std@@V?$allocator@D@2@@2@@Z 00541d10 f   libcpmtd:locale0.obj
 0002:000b0dc0       ?_Locinfo_dtor@_Locinfo@std@@SAXPAV12@@Z 00541dc0 f   libcpmtd:locale0.obj
 0002:000b0e00       ??4?$basic_string@DU?$char_traits@D@std@@V?$allocator@D@2@@std@@QAEAAV01@PBD@Z 00541e00 f i libcpmtd:locale0.obj
 0002:000b0e30       ??0?$basic_string@DU?$char_traits@D@std@@V?$_DebugHeapAllocator@D@2@@std@@QAE@PBD@Z 00541e30 f i libcpmtd:locale0.obj
 0002:000b0ed0       ??1?$basic_string@DU?$char_traits@D@std@@V?$_DebugHeapAllocator@D@2@@std@@QAE@XZ 00541ed0 f i libcpmtd:locale0.obj
 0002:000b0f40       ??4?$basic_string@DU?$char_traits@D@std@@V?$_DebugHeapAllocator@D@2@@std@@QAEAAV01@ABV01@@Z 00541f40 f i libcpmtd:locale0.obj
 0002:000b0f70       ??1?$_String_val@DV?$_DebugHeapAllocator@D@std@@@std@@QAE@XZ 00541f70 f i libcpmtd:locale0.obj
 0002:000b0f90       ?assign@?$basic_string@DU?$char_traits@D@std@@V?$_DebugHeapAllocator@D@2@@std@@QAEAAV12@ABV12@@Z 00541f90 f i libcpmtd:locale0.obj
 0002:000b0fc0       ?assign@?$basic_string@DU?$char_traits@D@std@@V?$_DebugHeapAllocator@D@2@@std@@QAEAAV12@ABV12@II@Z 00541fc0 f i libcpmtd:locale0.obj
 0002:000b10b0       ?assign@?$basic_string@DU?$char_traits@D@std@@V?$_DebugHeapAllocator@D@2@@std@@QAEAAV12@PBD@Z 005420b0 f i libcpmtd:locale0.obj
 0002:000b1100       ?_Tidy@?$basic_string@DU?$char_traits@D@std@@V?$_DebugHeapAllocator@D@2@@std@@IAEX_NI@Z 00542100 f i libcpmtd:locale0.obj
 0002:000b11a0       ??0?$_String_val@DV?$_DebugHeapAllocator@D@std@@@std@@IAE@V?$_DebugHeapAllocator@D@1@@Z 005421a0 f i libcpmtd:locale0.obj
 0002:000b11e0       ?assign@?$basic_string@DU?$char_traits@D@std@@V?$_DebugHeapAllocator@D@2@@std@@QAEAAV12@PBDI@Z 005421e0 f i libcpmtd:locale0.obj
 0002:000b12b0       ?erase@?$basic_string@DU?$char_traits@D@std@@V?$_DebugHeapAllocator@D@2@@std@@QAEAAV12@II@Z 005422b0 f i libcpmtd:locale0.obj
 0002:000b1370       ?size@?$basic_string@DU?$char_traits@D@std@@V?$_DebugHeapAllocator@D@2@@std@@QBEIXZ 00542370 f i libcpmtd:locale0.obj
 0002:000b1390       ?_Eos@?$basic_string@DU?$char_traits@D@std@@V?$_DebugHeapAllocator@D@2@@std@@IAEXI@Z 00542390 f i libcpmtd:locale0.obj
 0002:000b13e0       ?_Grow@?$basic_string@DU?$char_traits@D@std@@V?$_DebugHeapAllocator@D@2@@std@@IAE_NI_N@Z 005423e0 f i libcpmtd:locale0.obj
 0002:000b14a0       ?_Myptr@?$basic_string@DU?$char_traits@D@std@@V?$_DebugHeapAllocator@D@2@@std@@IAEPADXZ 005424a0 f i libcpmtd:locale0.obj
 0002:000b14e0       ?max_size@?$basic_string@DU?$char_traits@D@std@@V?$_DebugHeapAllocator@D@2@@std@@QBEIXZ 005424e0 f i libcpmtd:locale0.obj
 0002:000b1530       ?_Copy@?$basic_string@DU?$char_traits@D@std@@V?$_DebugHeapAllocator@D@2@@std@@IAEXII@Z 00542530 f i libcpmtd:locale0.obj
 0002:000b1720       ?_Inside@?$basic_string@DU?$char_traits@D@std@@V?$_DebugHeapAllocator@D@2@@std@@IAE_NPBD@Z 00542720 f i libcpmtd:locale0.obj
 0002:000b1770       ??$_DebugHeapDelete@U_Fac_node@std@@@std@@YAXPAU_Fac_node@0@@Z 00542770 f i libcpmtd:locale0.obj
 0002:000b17a0       ??_G_Fac_node@std@@QAEPAXI@Z 005427a0 f i libcpmtd:locale0.obj
 0002:000b17e0       ??1_Fac_node@std@@QAE@XZ   005427e0 f i libcpmtd:locale0.obj
 0002:000b1810       ??0locale@std@@QAE@W4_Uninitialized@1@@Z 00542810 f i libcpmtd:locale0.obj
 0002:000b1830       ?_Debug_message@std@@YAXPBD0@Z 00542830 f   libcpmtd:stdthrow.obj
 0002:000b18c0       ?_Debug_message@std@@YAXPB_W0I@Z 005428c0 f   libcpmtd:stdthrow.obj
 0002:000b18f0       ?_Debug_message@std@@YAXPBG0I@Z 005428f0 f   libcpmtd:stdthrow.obj
 0002:000b1920       ?_Throw@std@@YAXABVexception@stdext@@@Z 00542920 f   libcpmtd:stdthrow.obj
 0002:000b1950       __Tolower                  00542950 f   libcpmtd:_tolower.obj
 0002:000b1b20       __Getctype                 00542b20 f   libcpmtd:_tolower.obj
 0002:000b1be0       __Toupper                  00542be0 f   libcpmtd:_toupper.obj
 0002:000b1db0       ___Wcrtomb_lk              00542db0 f   libcpmtd:xwctomb.obj
 0002:000b1de0       __Wcrtomb                  00542de0 f   libcpmtd:xwctomb.obj
 0002:000b1ee0       __Getcvt                   00542ee0 f   libcpmtd:xwctomb.obj
 0002:000b1f10       ??_U@YAPAXI@Z              00542f10 f   libcpmtd:newaop.obj
 0002:000b1f30       __Stoulx                   00542f30 f   libcpmtd:xstoul.obj
 0002:000b2210       __Stoul                    00543210 f   libcpmtd:xstoul.obj
 0002:000b2240       __Stolx                    00543240 f   libcpmtd:xstol.obj
 0002:000b23b0       __Stollx                   005433b0 f   libcpmtd:xstoll.obj
 0002:000b2570       __Stoll                    00543570 f   libcpmtd:xstoll.obj
 0002:000b25a0       __Stoullx                  005435a0 f   libcpmtd:xstoull.obj
 0002:000b2930       __Stoull                   00543930 f   libcpmtd:xstoull.obj
 0002:000b2960       __Stofx                    00543960 f   libcpmtd:xstof.obj
 0002:000b29a0       __Stof                     005439a0 f   libcpmtd:xstof.obj
 0002:000b29d0       __Stodx                    005439d0 f   libcpmtd:xstod.obj
 0002:000b2a90       __Stod                     00543a90 f   libcpmtd:xstod.obj
 0002:000b2ad0       __Stoldx                   00543ad0 f   libcpmtd:xstold.obj
 0002:000b2b00       __Stold                    00543b00 f   libcpmtd:xstold.obj
 0002:000b2b30       __Once                     00543b30 f   libcpmtd:xmtx.obj
 0002:000b2ba0       __Mtxinit                  00543ba0 f   libcpmtd:xmtx.obj
 0002:000b2bc0       __Mtxdst                   00543bc0 f   libcpmtd:xmtx.obj
 0002:000b2be0       __Mtxlock                  00543be0 f   libcpmtd:xmtx.obj
 0002:000b2c00       __Mtxunlock                00543c00 f   libcpmtd:xmtx.obj
 0002:000b2c20       ?_Atexit@@YAXP6AXXZ@Z      00543c20 f   libcpmtd:iosptrs.obj
 0002:000b2c70       ??1_Init_atexit@@QAE@XZ    00543c70 f i libcpmtd:iosptrs.obj
 0002:000b2cd0       __Mbrtowc                  00543cd0 f   libcpmtd:xmbtowc.obj
 0002:000b2ff0       __GetLocaleForCP           00543ff0 f   libcpmtd:xmbtowc.obj
 0002:000b3260       ?name@type_info@@QBEPBDPAU__type_info_node@@@Z 00544260 f   LIBCMTD:typinfo.obj
 0002:000b3290       ??1type_info@@UAE@XZ       00544290 f   LIBCMTD:typinfo.obj
 0002:000b32c0       ??_Etype_info@@UAEPAXI@Z   005442c0 f i LIBCMTD:typinfo.obj
 0002:000b32c0       ??_Gtype_info@@UAEPAXI@Z   005442c0 f i LIBCMTD:typinfo.obj
 0002:000b3300       ?_name_internal_method@type_info@@QBEPBDPAU__type_info_node@@@Z 00544300 f   LIBCMTD:typinfo.obj
 0002:000b3330       ?_type_info_dtor_internal_method@type_info@@QAEXXZ 00544330 f   LIBCMTD:typinfo.obj
 0002:000b3350       ??8type_info@@QBE_NABV0@@Z 00544350 f   LIBCMTD:typinfo.obj
 0002:000b3390       ??9type_info@@QBE_NABV0@@Z 00544390 f   LIBCMTD:typinfo.obj
 0002:000b33d0       ?before@type_info@@QBEHABV1@@Z 005443d0 f   LIBCMTD:typinfo.obj
 0002:000b3410       ?raw_name@type_info@@QBEPBDXZ 00544410 f   LIBCMTD:typinfo.obj
 0002:000b3430       ??0type_info@@AAE@ABV0@@Z  00544430 f   LIBCMTD:typinfo.obj
 0002:000b3460       ??4type_info@@AAEAAV0@ABV0@@Z 00544460 f   LIBCMTD:typinfo.obj
 0002:000b3480       ??3@YAXPAX@Z               00544480 f   LIBCMTD:dbgdel.obj
 0002:000b35a0       _memset                    005445a0 f   LIBCMTD:memset.obj
 0002:000b3640       ?_JumpToContinuation@@YGXPAXPAUEHRegistrationNode@@@Z 00544640 f   LIBCMTD:_trnsctrl_.obj
 0002:000b3690       ?_CallMemberFunction0@@YGXPAX0@Z 00544690 f   LIBCMTD:_trnsctrl_.obj
 0002:000b36a0       ?_CallMemberFunction1@@YGXPAX00@Z 005446a0 f   LIBCMTD:_trnsctrl_.obj
 0002:000b36b0       ?_CallMemberFunction2@@YGXPAX00H@Z 005446b0 f   LIBCMTD:_trnsctrl_.obj
 0002:000b36c0       ?_UnwindNestedFrames@@YGXPAUEHRegistrationNode@@PAUEHExceptionRecord@@@Z 005446c0 f   LIBCMTD:_trnsctrl_.obj
 0002:000b3730       ___CxxFrameHandler         00544730 f   LIBCMTD:_trnsctrl_.obj
 0002:000b3780       ___CxxFrameHandler3        00544780 f   LIBCMTD:_trnsctrl_.obj
 0002:000b37d0       ___CxxFrameHandler2        005447d0 f   LIBCMTD:_trnsctrl_.obj
 0002:000b3820       ___CxxLongjmpUnwind@4      00544820 f   LIBCMTD:_trnsctrl_.obj
 0002:000b3860       ?_CallCatchBlock2@@YAPAXPAUEHRegistrationNode@@PBU_s_FuncInfo@@PAXHK@Z 00544860 f   LIBCMTD:_trnsctrl_.obj
 0002:000b3950       ?_CallSETranslator@@YAHPAUEHExceptionRecord@@PAUEHRegistrationNode@@PAX2PBU_s_FuncInfo@@H1@Z 00544950 f   LIBCMTD:_trnsctrl_.obj
 0002:000b3b60       ?_GetRangeOfTrysToCheck@@YAPBU_s_TryBlockMapEntry@@PBU_s_FuncInfo@@HHPAI1@Z 00544b60 f   LIBCMTD:_trnsctrl_.obj
 0002:000b3c00       __CreateFrameInfo          00544c00 f   LIBCMTD:_trnsctrl_.obj
 0002:000b3c40       __IsExceptionObjectToBeDestroyed 00544c40 f   LIBCMTD:_trnsctrl_.obj
 0002:000b3c80       __FindAndUnlinkFrame       00544c80 f   LIBCMTD:_trnsctrl_.obj
 0002:000b3cf0       @__security_check_cookie@4 00544cf0 f   LIBCMTD:secchk.obj
 0002:000b3d10       __CxxThrowException@8      00544d10 f   LIBCMTD:throw.obj
 0002:000b3d80       ??0exception@std@@QAE@XZ   00544d80 f   LIBCMTD:stdexcpt.obj
 0002:000b3dc0       ??_Gexception@std@@UAEPAXI@Z 00544dc0 f i LIBCMTD:stdexcpt.obj
 0002:000b3dc0       ??_Eexception@std@@UAEPAXI@Z 00544dc0 f i LIBCMTD:stdexcpt.obj
 0002:000b3e00       ??0exception@std@@QAE@ABQBD@Z 00544e00 f   LIBCMTD:stdexcpt.obj
 0002:000b3eb0       ??0exception@std@@QAE@ABQBDH@Z 00544eb0 f   LIBCMTD:stdexcpt.obj
 0002:000b3ef0       ??0exception@std@@QAE@ABV01@@Z 00544ef0 f   LIBCMTD:stdexcpt.obj
 0002:000b3fc0       ??4exception@std@@QAEAAV01@ABV01@@Z 00544fc0 f   LIBCMTD:stdexcpt.obj
 0002:000b4090       ??1exception@std@@UAE@XZ   00545090 f   LIBCMTD:stdexcpt.obj
 0002:000b40d0       ?what@exception@std@@UBEPBDXZ 005450d0 f   LIBCMTD:stdexcpt.obj
 0002:000b4100       ??0bad_cast@std@@QAE@PBD@Z 00545100 f   LIBCMTD:stdexcpt.obj
 0002:000b4130       ??_Ebad_cast@std@@UAEPAXI@Z 00545130 f i LIBCMTD:stdexcpt.obj
 0002:000b4130       ??_Gbad_cast@std@@UAEPAXI@Z 00545130 f i LIBCMTD:stdexcpt.obj
 0002:000b4170       ??0bad_cast@std@@QAE@ABV01@@Z 00545170 f   LIBCMTD:stdexcpt.obj
 0002:000b41a0       ??1bad_cast@std@@UAE@XZ    005451a0 f   LIBCMTD:stdexcpt.obj
 0002:000b41d0       ??0bad_typeid@std@@QAE@PBD@Z 005451d0 f   LIBCMTD:stdexcpt.obj
 0002:000b4200       ??_Ebad_typeid@std@@UAEPAXI@Z 00545200 f i LIBCMTD:stdexcpt.obj
 0002:000b4200       ??_Gbad_typeid@std@@UAEPAXI@Z 00545200 f i LIBCMTD:stdexcpt.obj
 0002:000b4240       ??0bad_typeid@std@@QAE@ABV01@@Z 00545240 f   LIBCMTD:stdexcpt.obj
 0002:000b4270       ??1bad_typeid@std@@UAE@XZ  00545270 f   LIBCMTD:stdexcpt.obj
 0002:000b42a0       ??0__non_rtti_object@std@@QAE@PBD@Z 005452a0 f   LIBCMTD:stdexcpt.obj
 0002:000b42d0       ??_E__non_rtti_object@std@@UAEPAXI@Z 005452d0 f i LIBCMTD:stdexcpt.obj
 0002:000b42d0       ??_G__non_rtti_object@std@@UAEPAXI@Z 005452d0 f i LIBCMTD:stdexcpt.obj
 0002:000b4310       ??0__non_rtti_object@std@@QAE@ABV01@@Z 00545310 f   LIBCMTD:stdexcpt.obj
 0002:000b4340       ??1__non_rtti_object@std@@UAE@XZ 00545340 f   LIBCMTD:stdexcpt.obj
 0002:000b4370       _strlen                    00545370 f   LIBCMTD:strlen.obj
 0002:000b4420       _free                      00545420 f   LIBCMTD:dbgfree.obj
 0002:000b4440       _memcpy_s                  00545440 f   LIBCMTD:memcpy_s.obj
 0002:000b4630       __initp_misc_invarg        00545630 f   LIBCMTD:invarg.obj
 0002:000b4650       __invalid_parameter        00545650 f   LIBCMTD:invarg.obj
 0002:000b46e0       __invoke_watson            005456e0 f   LIBCMTD:invarg.obj
 0002:000b4880       __set_invalid_parameter_handler 00545880 f   LIBCMTD:invarg.obj
 0002:000b48e0       __get_invalid_parameter_handler 005458e0 f   LIBCMTD:invarg.obj
 0002:000b4920       ?_invalid_parameter@@YAXPBG00II@Z 00545920 f   LIBCMTD:invarg.obj
 0002:000b4950       ?_invoke_watson@@YAXPBG00II@Z 00545950 f   LIBCMTD:invarg.obj
 0002:000b4980       __CrtSetReportHookW2       00545980 f   LIBCMTD:dbgrptw.obj
 0002:000b4d70       __CrtDbgReportW            00545d70 f   LIBCMTD:dbgrptw.obj
 0002:000b4dc0       __CrtDbgReportWV           00545dc0 f i LIBCMTD:dbgrptw.obj
 0002:000b4df0       ___crtMessageWindowW       00545df0 f   LIBCMTD:dbgrptw.obj
 0002:000b52f0       __invoke_watson_if_error   005462f0 f i LIBCMTD:dbgrptw.obj
 0002:000b5330       __invoke_watson_if_oneof   00546330 f i LIBCMTD:dbgrptw.obj
 0002:000b5390       ?_CrtDbgReportW@@YAHHPBGH00ZZ 00546390 f   LIBCMTD:dbgrptw.obj
 0002:000b53e0       ??_V@YAXPAX@Z              005463e0 f   LIBCMTD:delete2.obj
 0002:000b5400       ??2@YAPAXI@Z               00546400 f   LIBCMTD:new.obj
 0002:000b54a0       _sprintf                   005464a0 f   LIBCMTD:sprintf.obj
 0002:000b5680       __sprintf_l                00546680 f   LIBCMTD:sprintf.obj
 0002:000b56c0       _sprintf_s                 005466c0 f   LIBCMTD:sprintf.obj
 0002:000b5700       __sprintf_s_l              00546700 f   LIBCMTD:sprintf.obj
 0002:000b5740       __snprintf_s               00546740 f   LIBCMTD:sprintf.obj
 0002:000b5780       __snprintf_s_l             00546780 f   LIBCMTD:sprintf.obj
 0002:000b57c0       __sprintf_p                005467c0 f   LIBCMTD:sprintf.obj
 0002:000b5800       __sprintf_p_l              00546800 f   LIBCMTD:sprintf.obj
 0002:000b5840       __scprintf                 00546840 f   LIBCMTD:sprintf.obj
 0002:000b5870       __scprintf_p               00546870 f   LIBCMTD:sprintf.obj
 0002:000b58a0       __scprintf_l               005468a0 f   LIBCMTD:sprintf.obj
 0002:000b58d0       __scprintf_p_l             005468d0 f   LIBCMTD:sprintf.obj
 0002:000b5900       __fpmath                   00546900 f   LIBCMTD:_fpinit_.obj
 0002:000b5930       __fpclear                  00546930 f   LIBCMTD:_fpinit_.obj
 0002:000b5940       __cfltcvt_init             00546940 f   LIBCMTD:_fpinit_.obj
 0002:000b59d0       ___setfflag                005469d0 f   LIBCMTD:_fpinit_.obj
 0002:000b5a00       _strcspn                   00546a00 f   LIBCMTD:strcspn.obj
 0002:000b5a60       _memchr                    00546a60 f   LIBCMTD:memchr.obj
 0002:000b5b40       _localeconv                00546b40 f   LIBCMTD:lconv.obj
 0002:000b5ba0       _memmove_s                 00546ba0 f   LIBCMTD:memmove_s.obj
 0002:000b5d50       __isalpha_l                00546d50 f i LIBCMTD:_ctype.obj
 0002:000b5e00       ??0_LocaleUpdate@@QAE@PAUlocaleinfo_struct@@@Z 00546e00 f i LIBCMTD:_ctype.obj
 0002:000b5f10       ??1_LocaleUpdate@@QAE@XZ   00546f10 f i LIBCMTD:_ctype.obj
 0002:000b5f50       ?GetLocaleT@_LocaleUpdate@@QAEPAUlocaleinfo_struct@@XZ 00546f50 f i LIBCMTD:_ctype.obj
 0002:000b5f70       _isalpha                   00546f70 f i LIBCMTD:_ctype.obj
 0002:000b5fb0       __isupper_l                00546fb0 f i LIBCMTD:_ctype.obj
 0002:000b6050       _isupper                   00547050 f i LIBCMTD:_ctype.obj
 0002:000b6090       __islower_l                00547090 f i LIBCMTD:_ctype.obj
 0002:000b6130       _islower                   00547130 f i LIBCMTD:_ctype.obj
 0002:000b6170       __isdigit_l                00547170 f i LIBCMTD:_ctype.obj
 0002:000b6210       _isdigit                   00547210 f i LIBCMTD:_ctype.obj
 0002:000b6250       __isxdigit_l               00547250 f i LIBCMTD:_ctype.obj
 0002:000b6300       _isxdigit                  00547300 f i LIBCMTD:_ctype.obj
 0002:000b6340       __isspace_l                00547340 f i LIBCMTD:_ctype.obj
 0002:000b63e0       _isspace                   005473e0 f i LIBCMTD:_ctype.obj
 0002:000b6420       __ispunct_l                00547420 f i LIBCMTD:_ctype.obj
 0002:000b64c0       _ispunct                   005474c0 f i LIBCMTD:_ctype.obj
 0002:000b6500       __isalnum_l                00547500 f i LIBCMTD:_ctype.obj
 0002:000b65b0       _isalnum                   005475b0 f i LIBCMTD:_ctype.obj
 0002:000b65f0       __isprint_l                005475f0 f i LIBCMTD:_ctype.obj
 0002:000b66a0       _isprint                   005476a0 f i LIBCMTD:_ctype.obj
 0002:000b66e0       __isgraph_l                005476e0 f i LIBCMTD:_ctype.obj
 0002:000b6790       _isgraph                   00547790 f i LIBCMTD:_ctype.obj
 0002:000b67d0       __iscntrl_l                005477d0 f i LIBCMTD:_ctype.obj
 0002:000b6870       _iscntrl                   00547870 f i LIBCMTD:_ctype.obj
 0002:000b68b0       ___isascii                 005478b0 f i LIBCMTD:_ctype.obj
 0002:000b68d0       ___toascii                 005478d0 f i LIBCMTD:_ctype.obj
 0002:000b68e0       __iscsymf_l                005478e0 f i LIBCMTD:_ctype.obj
 0002:000b6930       ___iscsymf                 00547930 f i LIBCMTD:_ctype.obj
 0002:000b6970       __iscsym_l                 00547970 f i LIBCMTD:_ctype.obj
 0002:000b69c0       ___iscsym                  005479c0 f i LIBCMTD:_ctype.obj
 0002:000b6a10       _memcmp                    00547a10 f   LIBCMTD:memcmp.obj
 0002:000b7730       __onexit                   00548730 f   LIBCMTD:onexit.obj
 0002:000b7980       _atexit                    00548980 f   LIBCMTD:onexit.obj
 0002:000b79b0       ___onexitinit              005489b0 f   LIBCMTD:onexit.obj
 0002:000b7a20       _strncpy                   00548a20 f   LIBCMTD:strncpy.obj
 0002:000b7b90       __ftol2_sse                00548b90 f   LIBCMTD:ftol2.obj
 0002:000b7b99       __ftol2_pentium4           00548b99 f   LIBCMTD:ftol2.obj
 0002:000b7bac       __ftol2_sse_excpt          00548bac f   LIBCMTD:ftol2.obj
 0002:000b7bc6       __ftol2                    00548bc6 f   LIBCMTD:ftol2.obj
 0002:000b7c70       _ceil                      00548c70 f   LIBCMTD:_ceil_pentium4_.obj
 0002:000b7cb0       __ceil_pentium4            00548cb0 f   LIBCMTD:_ceil_pentium4_.obj
 0002:000b7de0       _strcmp                    00548de0 f   LIBCMTD:strcmp.obj
 0002:000b7e90       _strtok                    00548e90 f   LIBCMTD:strtok.obj
 0002:000b8030       _strcpy                    00549030 f   LIBCMTD:strcat.obj
 0002:000b8040       _strcat                    00549040 f   LIBCMTD:strcat.obj
 0002:000b8170       _strtol                    00549170 f   LIBCMTD:strtol.obj
 0002:000b87f0       __strtol_l                 005497f0 f   LIBCMTD:strtol.obj
 0002:000b8820       _strtoul                   00549820 f   LIBCMTD:strtol.obj
 0002:000b8880       __strtoul_l                00549880 f   LIBCMTD:strtol.obj
 0002:000b88b0       _memcpy                    005498b0 f   LIBCMTD:memcpy.obj
 0002:000b8cf0       __alloca_probe             00549cf0     LIBCMTD:chkstk.obj
 0002:000b8cf0       __chkstk                   00549cf0 f   LIBCMTD:chkstk.obj
 0002:000b8d30       __vsnprintf_helper         00549d30 f   LIBCMTD:vsnprnc.obj
 0002:000b8f70       __vsnprintf_c              00549f70 f   LIBCMTD:vsnprnc.obj
 0002:000b8fd0       __vsnprintf_c_l            00549fd0 f   LIBCMTD:vsnprnc.obj
 0002:000b9030       __vsprintf_s_l             0054a030 f   LIBCMTD:vsnprnc.obj
 0002:000b9330       _vsprintf_s                0054a330 f   LIBCMTD:vsnprnc.obj
 0002:000b9360       __vsnprintf_s_l            0054a360 f   LIBCMTD:vsnprnc.obj
 0002:000b97e0       __vsnprintf_s              0054a7e0 f   LIBCMTD:vsnprnc.obj
 0002:000b9810       __vsprintf_p               0054a810 f   LIBCMTD:vsnprnc.obj
 0002:000b9870       __vsprintf_p_l             0054a870 f   LIBCMTD:vsnprnc.obj
 0002:000b98d0       __stricmp_l                0054a8d0 f   LIBCMTD:stricmp.obj
 0002:000b9ae0       ___ascii_stricmp           0054aae0 f   LIBCMTD:stricmp.obj
 0002:000b9b70       __stricmp                  0054ab70 f   LIBCMTD:stricmp.obj
 0002:000b9cc0       __purecall                 0054acc0 f   LIBCMTD:purevirt.obj
 0002:000b9d10       __set_purecall_handler     0054ad10 f   LIBCMTD:purevirt.obj
 0002:000b9d60       __get_purecall_handler     0054ad60 f   LIBCMTD:purevirt.obj
 0002:000b9d80       _getenv                    0054ad80 f   LIBCMTD:getenv.obj
 0002:000b9f30       __getenv_helper_nolock     0054af30 f   LIBCMTD:getenv.obj
 0002:000ba090       _getenv_s                  0054b090 f   LIBCMTD:getenv.obj
 0002:000ba340       __dupenv_s                 0054b340 f   LIBCMTD:getenv.obj
 0002:000ba370       __dupenv_s_dbg             0054b370 f   LIBCMTD:getenv.obj
 0002:000ba650       _sscanf                    0054b650 f   LIBCMTD:sscanf.obj
 0002:000ba820       __sscanf_l                 0054b820 f   LIBCMTD:sscanf.obj
 0002:000ba860       _sscanf_s                  0054b860 f   LIBCMTD:sscanf.obj
 0002:000ba8a0       __sscanf_s_l               0054b8a0 f   LIBCMTD:sscanf.obj
 0002:000ba8e0       __itoa                     0054b8e0 f   LIBCMTD:xtoa.obj
 0002:000baa30       __ltoa                     0054ba30 f   LIBCMTD:xtoa.obj
 0002:000baa80       __ultoa                    0054ba80 f   LIBCMTD:xtoa.obj
 0002:000baab0       __i64toa                   0054bab0 f   LIBCMTD:xtoa.obj
 0002:000bac50       __ui64toa                  0054bc50 f   LIBCMTD:xtoa.obj
 0002:000bac80       _fclose                    0054bc80 f   LIBCMTD:fclose.obj
 0002:000badd0       __fclose_nolock            0054bdd0 f   LIBCMTD:fclose.obj
 0002:000baf10       _fprintf                   0054bf10 f   LIBCMTD:fprintf.obj
 0002:000bb260       __fprintf_l                0054c260 f   LIBCMTD:fprintf.obj
 0002:000bb2a0       __fprintf_s_l              0054c2a0 f   LIBCMTD:fprintf.obj
 0002:000bb2e0       _fprintf_s                 0054c2e0 f   LIBCMTD:fprintf.obj
 0002:000bb310       __fprintf_p_l              0054c310 f   LIBCMTD:fprintf.obj
 0002:000bb350       __fprintf_p                0054c350 f   LIBCMTD:fprintf.obj
 0002:000bb380       __fsopen                   0054c380 f   LIBCMTD:fopen.obj
 0002:000bb610       _fopen                     0054c610 f   LIBCMTD:fopen.obj
 0002:000bb630       _fopen_s                   0054c630 f   LIBCMTD:fopen.obj
 0002:000bb700       __allmul                   0054c700 f   LIBCMTD:llmul.obj
 0002:000bb750       __alldiv                   0054c750 f   LIBCMTD:lldiv.obj
 0002:000bb830       __allrem                   0054c830 f   LIBCMTD:llrem.obj
 0002:000bb910       _abs                       0054c910 f   LIBCMTD:abs.obj
 0002:000bb940       __abs64                    0054c940 f   LIBCMTD:abs.obj
 0002:000bb9a0       __wassert                  0054c9a0 f   LIBCMTD:wassert.obj
 0002:000bc860       _srand                     0054d860 f   LIBCMTD:rand.obj
 0002:000bc880       _rand                      0054d880 f   LIBCMTD:rand.obj
 0002:000bc8d0       __time64                   0054d8d0 f   LIBCMTD:time64.obj
 0002:000bc970       __aullrem                  0054d970 f   LIBCMTD:ullrem.obj
 0002:000bca10       __allshl                   0054da10 f   LIBCMTD:llshl.obj
 0002:000bca40       __aullshr                  0054da40 f   LIBCMTD:ullshr.obj
 0002:000bca70       _wcslen                    0054da70 f   LIBCMTD:wcslen.obj
 0002:000bcab0       _strrchr                   0054dab0 f   LIBCMTD:strrchr.obj
 0002:000bcaf0       __CrtSetReportHook2        0054daf0 f   LIBCMTD:dbgrpt.obj
 0002:000bcee0       __CrtDbgReport             0054dee0 f   LIBCMTD:dbgrpt.obj
 0002:000bcf30       __CrtDbgReportV            0054df30 f i LIBCMTD:dbgrpt.obj
 0002:000bcf60       ___crtMessageWindowA       0054df60 f   LIBCMTD:dbgrpt.obj
 0002:000bd460       __strnicmp_l               0054e460 f   LIBCMTD:strnicmp.obj
 0002:000bd730       __strnicmp                 0054e730 f   LIBCMTD:strnicmp.obj
 0002:000bd920       _strncat                   0054e920 f   LIBCMTD:strncat.obj
 0002:000bdab0       __mbsrchr_l                0054eab0 f   LIBCMTD:mbsrchr.obj
 0002:000bdc70       __mbsrchr                  0054ec70 f   LIBCMTD:mbsrchr.obj
 0002:000bdc90       __strtime_s                0054ec90 f   LIBCMTD:strtime.obj
 0002:000bdf00       __strtime                  0054ef00 f   LIBCMTD:strtime.obj
 0002:000bdf40       __strdate_s                0054ef40 f   LIBCMTD:strdate.obj
 0002:000be1c0       __strdate                  0054f1c0 f   LIBCMTD:strdate.obj
 0002:000be200       ___tzset                   0054f200 f   LIBCMTD:tzset.obj
 0002:000be2c0       __tzset                    0054f2c0 f   LIBCMTD:tzset.obj
 0002:000be9d0       __set_daylight             0054f9d0 f i LIBCMTD:tzset.obj
 0002:000be9f0       __set_dstbias              0054f9f0 f i LIBCMTD:tzset.obj
 0002:000bea10       __set_timezone             0054fa10 f i LIBCMTD:tzset.obj
 0002:000bea30       __isindst                  0054fa30 f   LIBCMTD:tzset.obj
 0002:000bf280       __aulldiv                  00550280 f   LIBCMTD:ulldiv.obj
 0002:000bf310       _atol                      00550310 f   LIBCMTD:atox.obj
 0002:000bf330       __atol_l                   00550330 f   LIBCMTD:atox.obj
 0002:000bf360       _atoi                      00550360 f   LIBCMTD:atox.obj
 0002:000bf380       __atoi_l                   00550380 f   LIBCMTD:atox.obj
 0002:000bf3a0       __atoi64                   005503a0 f   LIBCMTD:atox.obj
 0002:000bf3c0       __atoi64_l                 005503c0 f   LIBCMTD:atox.obj
 0002:000bf3f0       _strncmp                   005503f0 f   LIBCMTD:strncmp.obj
 0002:000bf5c0       __mbschr_l                 005505c0 f   LIBCMTD:mbschr.obj
 0002:000bf7b0       __mbschr                   005507b0 f   LIBCMTD:mbschr.obj
 0002:000bf7d0       __snprintf                 005507d0 f   LIBCMTD:snprintf.obj
 0002:000bf9e0       __snprintf_l               005509e0 f   LIBCMTD:snprintf.obj
 0002:000bfa20       _fflush                    00550a20 f   LIBCMTD:fflush.obj
 0002:000bfae0       __fflush_nolock            00550ae0 f   LIBCMTD:fflush.obj
 0002:000bfb50       __flush                    00550b50 f   LIBCMTD:fflush.obj
 0002:000bfc40       __flushall                 00550c40 f   LIBCMTD:fflush.obj
 0002:000bfe70       _printf                    00550e70 f   LIBCMTD:printf.obj
 0002:000c0000       __printf_l                 00551000 f   LIBCMTD:printf.obj
 0002:000c0030       __printf_s_l               00551030 f   LIBCMTD:printf.obj
 0002:000c0060       _printf_s                  00551060 f   LIBCMTD:printf.obj
 0002:000c0090       __printf_p_l               00551090 f   LIBCMTD:printf.obj
 0002:000c00c0       __printf_p                 005510c0 f   LIBCMTD:printf.obj
 0002:000c00f0       __set_printf_count_output  005510f0 f   LIBCMTD:printf.obj
 0002:000c0150       __get_printf_count_output  00551150 f   LIBCMTD:printf.obj
 0002:000c0180       __fdopen                   00551180 f   LIBCMTD:fdopen.obj
 0002:000c0810       __dup2                     00551810 f   LIBCMTD:dup2.obj
 0002:000c0f10       __alloc_osfhnd             00551f10 f   LIBCMTD:osfinfo.obj
 0002:000c1270       __set_osfhnd               00552270 f   LIBCMTD:osfinfo.obj
 0002:000c1370       __free_osfhnd              00552370 f   LIBCMTD:osfinfo.obj
 0002:000c1490       __get_osfhandle            00552490 f   LIBCMTD:osfinfo.obj
 0002:000c1650       __open_osfhandle           00552650 f   LIBCMTD:osfinfo.obj
 0002:000c1910       ___lock_fhandle            00552910 f   LIBCMTD:osfinfo.obj
 0002:000c1a50       __unlock_fhandle           00552a50 f   LIBCMTD:osfinfo.obj
 0002:000c1a90       ___iob_func                00552a90 f   LIBCMTD:_file.obj
 0002:000c1aa0       ___initstdio               00552aa0 f   LIBCMTD:_file.obj
 0002:000c1c40       ___endstdio                00552c40 f   LIBCMTD:_file.obj
 0002:000c1c80       __lock_file                00552c80 f   LIBCMTD:_file.obj
 0002:000c1cf0       __lock_file2               00552cf0 f   LIBCMTD:_file.obj
 0002:000c1d40       __unlock_file              00552d40 f   LIBCMTD:_file.obj
 0002:000c1db0       __unlock_file2             00552db0 f   LIBCMTD:_file.obj
 0002:000c1e00       __vsnprintf_l              00552e00 f   LIBCMTD:vsnprint.obj
 0002:000c2010       __vsnprintf                00553010 f   LIBCMTD:vsnprint.obj
 0002:000c2040       _memmove                   00553040 f   LIBCMTD:memmove.obj
 0002:000c2490       _strchr                    00553490 f   LIBCMTD:strchr.obj
 0002:000c2496       ___from_strstr_to_strchr   00553496     LIBCMTD:strchr.obj
 0002:000c2590       __strdup                   00553590 f   LIBCMTD:strdup.obj
 0002:000c25b0       __strdup_dbg               005535b0 f   LIBCMTD:strdup.obj
 0002:000c2660       _strstr                    00553660 f   LIBCMTD:strstr.obj
 0002:000c2710       _malloc                    00553710 f   LIBCMTD:dbgmalloc.obj
 0002:000c2750       __access                   00553750 f   LIBCMTD:access.obj
 0002:000c2780       __access_s                 00553780 f   LIBCMTD:access.obj
 0002:000c2930       __fullpath                 00553930 f   LIBCMTD:fullpath.obj
 0002:000c2960       __fullpath_dbg             00553960 f   LIBCMTD:fullpath.obj
 0002:000c2b80       __crt_waiting_on_module_handle 00553b80 f   LIBCMTD:crt0dat.obj
 0002:000c2bf0       __cinit                    00553bf0 f   LIBCMTD:crt0dat.obj
 0002:000c2cc0       _exit                      00553cc0 f   LIBCMTD:crt0dat.obj
 0002:000c2ce0       __exit                     00553ce0 f   LIBCMTD:crt0dat.obj
 0002:000c2d00       __cexit                    00553d00 f   LIBCMTD:crt0dat.obj
 0002:000c2d20       __c_exit                   00553d20 f   LIBCMTD:crt0dat.obj
 0002:000c2d40       __amsg_exit                00553d40 f   LIBCMTD:crt0dat.obj
 0002:000c2d90       ___freeCrtMemory           00553d90 f   LIBCMTD:crt0dat.obj
 0002:000c31b0       ___crtCorExitProcess       005541b0 f   LIBCMTD:crt0dat.obj
 0002:000c3200       ___crtExitProcess          00554200 f   LIBCMTD:crt0dat.obj
 0002:000c3230       __lockexit                 00554230 f   LIBCMTD:crt0dat.obj
 0002:000c3250       __unlockexit               00554250 f   LIBCMTD:crt0dat.obj
 0002:000c3270       __init_pointers            00554270 f   LIBCMTD:crt0dat.obj
 0002:000c3360       __initterm_e               00554360 f   LIBCMTD:crt0dat.obj
 0002:000c33b0       __get_wpgmptr              005543b0 f   LIBCMTD:crt0dat.obj
 0002:000c34e0       __get_pgmptr               005544e0 f   LIBCMTD:crt0dat.obj
 0002:000c3610       _setbuf                    00554610 f   LIBCMTD:setbuf.obj
 0002:000c3690       _WinMainCRTStartup         00554690 f   LIBCMTD:wincrt0.obj
 0002:000c39e0       __beginthreadex            005549e0 f   LIBCMTD:threadex.obj
 0002:000c3d20       __endthreadex              00554d20 f   LIBCMTD:threadex.obj
 0002:000c3d90       __RTC_CheckEsp             00554d90 f   LIBCMTD:_stack_.obj
 0002:000c3dc0       @_RTC_CheckStackVars@8     00554dc0 f   LIBCMTD:_stack_.obj
 0002:000c3e40       @_RTC_AllocaHelper@12      00554e40 f   LIBCMTD:_stack_.obj
 0002:000c3e80       @_RTC_CheckStackVars2@12   00554e80 f   LIBCMTD:_stack_.obj
 0002:000c3f90       __RTC_InitBase             00554f90 f   LIBCMTD:_init_.obj
 0002:000c3fd0       __RTC_Shutdown             00554fd0 f   LIBCMTD:_init_.obj
 0002:000c3ff0       __ftime64_s                00554ff0 f   LIBCMTD:ftime64.obj
 0002:000c4270       __ftime64                  00555270 f   LIBCMTD:ftime64.obj
 0002:000c4290       _strerror                  00555290 f   LIBCMTD:strerror.obj
 0002:000c4360       __get_sys_err_msg          00555360 f i LIBCMTD:strerror.obj
 0002:000c43b0       _strerror_s                005553b0 f   LIBCMTD:strerror.obj
 0002:000c4520       __malloc_dbg               00555520 f   LIBCMTD:dbgheap.obj
 0002:000c4560       __nh_malloc                00555560 f   LIBCMTD:dbgheap.obj
 0002:000c4590       __nh_malloc_dbg            00555590 f   LIBCMTD:dbgheap.obj
 0002:000c4680       __heap_alloc               00555680 f   LIBCMTD:dbgheap.obj
 0002:000c4b40       __heap_alloc_dbg           00555b40 f   LIBCMTD:dbgheap.obj
 0002:000c4bb0       __calloc_dbg_impl          00555bb0 f   LIBCMTD:dbgheap.obj
 0002:000c4cb0       __calloc_dbg               00555cb0 f   LIBCMTD:dbgheap.obj
 0002:000c4d20       __recalloc                 00555d20 f   LIBCMTD:dbgheap.obj
 0002:000c4d60       __realloc_dbg              00555d60 f   LIBCMTD:dbgheap.obj
 0002:000c55a0       __recalloc_dbg             005565a0 f   LIBCMTD:dbgheap.obj
 0002:000c56e0       __expand                   005566e0 f   LIBCMTD:dbgheap.obj
 0002:000c5710       __expand_dbg               00556710 f   LIBCMTD:dbgheap.obj
 0002:000c5860       __free_nolock              00556860 f   LIBCMTD:dbgheap.obj
 0002:000c5880       __free_dbg                 00556880 f   LIBCMTD:dbgheap.obj
 0002:000c5920       __free_dbg_nolock          00556920 f   LIBCMTD:dbgheap.obj
 0002:000c5f40       __msize                    00556f40 f   LIBCMTD:dbgheap.obj
 0002:000c5f60       __msize_dbg                00556f60 f   LIBCMTD:dbgheap.obj
 0002:000c61c0       __CrtSetBreakAlloc         005571c0 f   LIBCMTD:dbgheap.obj
 0002:000c61f0       __CrtSetDbgBlockType       005571f0 f   LIBCMTD:dbgheap.obj
 0002:000c6310       __CrtSetAllocHook          00557310 f   LIBCMTD:dbgheap.obj
 0002:000c6340       __CrtGetAllocHook          00557340 f   LIBCMTD:dbgheap.obj
 0002:000c63b0       __CrtCheckMemory           005573b0 f   LIBCMTD:dbgheap.obj
 0002:000c6920       __CrtSetDbgFlag            00557920 f   LIBCMTD:dbgheap.obj
 0002:000c6ac0       __CrtDoForAllClientObjects 00557ac0 f   LIBCMTD:dbgheap.obj
 0002:000c6c30       __CrtIsValidPointer        00557c30 f   LIBCMTD:dbgheap.obj
 0002:000c6c50       __CrtIsValidHeapPointer    00557c50 f   LIBCMTD:dbgheap.obj
 0002:000c6d10       __CrtIsMemoryBlock         00557d10 f   LIBCMTD:dbgheap.obj
 0002:000c6ee0       __CrtReportBlockType       00557ee0 f   LIBCMTD:dbgheap.obj
 0002:000c6f20       __CrtSetDumpClient         00557f20 f   LIBCMTD:dbgheap.obj
 0002:000c6f50       __CrtGetDumpClient         00557f50 f   LIBCMTD:dbgheap.obj
 0002:000c6f60       __CrtMemCheckpoint         00557f60 f   LIBCMTD:dbgheap.obj
 0002:000c7200       __CrtMemDifference         00558200 f   LIBCMTD:dbgheap.obj
 0002:000c74a0       __CrtMemDumpAllObjectsSince 005584a0 f   LIBCMTD:dbgheap.obj
 0002:000c7ad0       __CrtDumpMemoryLeaks       00558ad0 f   LIBCMTD:dbgheap.obj
 0002:000c7b60       __CrtMemDumpStatistics     00558b60 f   LIBCMTD:dbgheap.obj
 0002:000c7cb0       __aligned_malloc           00558cb0 f   LIBCMTD:dbgheap.obj
 0002:000c7ce0       __aligned_malloc_dbg       00558ce0 f   LIBCMTD:dbgheap.obj
 0002:000c7d10       __aligned_realloc          00558d10 f   LIBCMTD:dbgheap.obj
 0002:000c7d40       __aligned_recalloc         00558d40 f   LIBCMTD:dbgheap.obj
 0002:000c7d70       __aligned_realloc_dbg      00558d70 f   LIBCMTD:dbgheap.obj
 0002:000c7da0       __aligned_recalloc_dbg     00558da0 f   LIBCMTD:dbgheap.obj
 0002:000c7de0       __aligned_offset_malloc    00558de0 f   LIBCMTD:dbgheap.obj
 0002:000c7e10       __aligned_offset_malloc_dbg 00558e10 f   LIBCMTD:dbgheap.obj
 0002:000c8020       __aligned_offset_realloc   00559020 f   LIBCMTD:dbgheap.obj
 0002:000c8050       __aligned_offset_recalloc  00559050 f   LIBCMTD:dbgheap.obj
 0002:000c8080       __aligned_offset_realloc_dbg 00559080 f   LIBCMTD:dbgheap.obj
 0002:000c8400       __aligned_offset_recalloc_dbg 00559400 f   LIBCMTD:dbgheap.obj
 0002:000c8550       __aligned_free             00559550 f   LIBCMTD:dbgheap.obj
 0002:000c8570       __aligned_free_dbg         00559570 f   LIBCMTD:dbgheap.obj
 0002:000c8650       __CrtSetDebugFillThreshold 00559650 f   LIBCMTD:dbgheap.obj
 0002:000c8680       __CrtSetCheckCount         00559680 f   LIBCMTD:dbgheap.obj
 0002:000c86a0       __CrtGetCheckCount         005596a0 f   LIBCMTD:dbgheap.obj
 0002:000c86b0       __aligned_msize            005596b0 f   LIBCMTD:dbgheap.obj
 0002:000c86e0       __aligned_msize_dbg        005596e0 f   LIBCMTD:dbgheap.obj
 0002:000c8830       ___InternalCxxFrameHandler 00559830 f   LIBCMTD:frame.obj
 0002:000c8fa0       ??0bad_exception@std@@QAE@PBD@Z 00559fa0 f i LIBCMTD:frame.obj
 0002:000c8fd0       ??1bad_exception@std@@UAE@XZ 00559fd0 f i LIBCMTD:frame.obj
 0002:000c9000       ??_Gbad_exception@std@@UAEPAXI@Z 0055a000 f i LIBCMTD:frame.obj
 0002:000c9000       ??_Ebad_exception@std@@UAEPAXI@Z 0055a000 f i LIBCMTD:frame.obj
 0002:000c9040       ??0bad_exception@std@@QAE@ABV01@@Z 0055a040 f i LIBCMTD:frame.obj
 0002:000c9250       ___TypeMatch               0055a250 f   LIBCMTD:frame.obj
 0002:000c9330       ___FrameUnwindFilter       0055a330 f   LIBCMTD:frame.obj
 0002:000c93c0       ___FrameUnwindToState      0055a3c0 f   LIBCMTD:frame.obj
 0002:000c9a50       ___BuildCatchObjectHelper  0055aa50 f   LIBCMTD:frame.obj
 0002:000c9d60       ___BuildCatchObject        0055ad60 f   LIBCMTD:frame.obj
 0002:000c9eb0       ___DestructExceptionObject 0055aeb0 f   LIBCMTD:frame.obj
 0002:000c9f90       ___AdjustPointer           0055af90 f   LIBCMTD:frame.obj
 0002:000c9ff0       ?__uncaught_exception@@YA_NXZ 0055aff0 f   LIBCMTD:frame.obj
 0002:000ca010       ___CxxExceptionFilter      0055b010 f   LIBCMTD:frame.obj
 0002:000ca270       ___CxxRegisterExceptionObject 0055b270 f   LIBCMTD:frame.obj
 0002:000ca3f0       ___CxxDetectRethrow        0055b3f0 f   LIBCMTD:frame.obj
 0002:000ca4a0       ___CxxUnregisterExceptionObject 0055b4a0 f   LIBCMTD:frame.obj
 0002:000ca680       ___CxxQueryExceptionSize   0055b680 f   LIBCMTD:frame.obj
 0002:000ca690       ___CxxCallUnwindDtor       0055b690 f   LIBCMTD:frame.obj
 0002:000ca730       ___CxxCallUnwindDelDtor    0055b730 f   LIBCMTD:frame.obj
 0002:000ca7d0       ___CxxCallUnwindStdDelDtor 0055b7d0 f   LIBCMTD:frame.obj
 0002:000ca870       ___CxxCallUnwindVecDtor    0055b870 f   LIBCMTD:frame.obj
 0002:000cab40       ?_is_exception_typeof@@YAHABVtype_info@@PAU_EXCEPTION_POINTERS@@@Z 0055bb40 f   LIBCMTD:frame.obj
 0002:000cac50       _abort                     0055bc50 f   LIBCMTD:abort.obj
 0002:000cadd0       __set_abort_behavior       0055bdd0 f   LIBCMTD:abort.obj
 0002:000cae10       ____setlc_active_func      0055be10 f   LIBCMTD:setlocal.obj
 0002:000cae20       ____unguarded_readlc_active_add_func 0055be20 f   LIBCMTD:setlocal.obj
 0002:000cae30       ___freetlocinfo            0055be30 f   LIBCMTD:setlocal.obj
 0002:000cb1d0       ___addlocaleref            0055c1d0 f   LIBCMTD:setlocal.obj
 0002:000cb340       ___removelocaleref         0055c340 f   LIBCMTD:setlocal.obj
 0002:000cb4c0       ___updatetlocinfo          0055c4c0 f   LIBCMTD:setlocal.obj
 0002:000cb660       __configthreadlocale       0055c660 f   LIBCMTD:setlocal.obj
 0002:000cb7b0       __locterm                  0055c7b0 f   LIBCMTD:setlocal.obj
 0002:000cb870       __free_locale              0055c870 f   LIBCMTD:setlocal.obj
 0002:000cba00       ___free_locale             0055ca00 f   LIBCMTD:setlocal.obj
 0002:000cba20       __create_locale            0055ca20 f   LIBCMTD:setlocal.obj
 0002:000cbcd0       ___create_locale           0055ccd0 f   LIBCMTD:setlocal.obj
 0002:000cbcf0       __get_current_locale       0055ccf0 f   LIBCMTD:setlocal.obj
 0002:000cbe50       ___get_current_locale      0055ce50 f   LIBCMTD:setlocal.obj
 0002:000cbe60       _setlocale                 0055ce60 f   LIBCMTD:setlocal.obj
 0002:000cd130       __expandlocale             0055e130 f   LIBCMTD:setlocal.obj
 0002:000cd480       ___init_dummy              0055e480 f   LIBCMTD:setlocal.obj
 0002:000cd490       __strcats                  0055e490 f   LIBCMTD:setlocal.obj
 0002:000cd530       ___lc_strtolc              0055e530 f   LIBCMTD:setlocal.obj
 0002:000cd7b0       ___lc_lctostr              0055e7b0 f   LIBCMTD:setlocal.obj
 0002:000cd870       _fputs                     0055e870 f   LIBCMTD:fputs.obj
 0002:000cdbb0       ___crtLCMapStringA         0055ebb0 f   LIBCMTD:a_map.obj
 0002:000ce260       __MarkAllocaS              0055f260 f i LIBCMTD:a_map.obj
 0002:000ce290       __freea                    0055f290 f i LIBCMTD:a_map.obj
 0002:000ce370       ___pwctype_func            0055f370 f   LIBCMTD:ctype.obj
 0002:000ce380       ___pctype_func             0055f380 f   LIBCMTD:ctype.obj
 0002:000ce3e0       ___init_ctype              0055f3e0 f   LIBCMTD:initctyp.obj
 0002:000ceb00       ____mb_cur_max_func        0055fb00 f   LIBCMTD:initctyp.obj
 0002:000ceb60       ____mb_cur_max_l_func      0055fb60 f   LIBCMTD:initctyp.obj
 0002:000ceba0       ____lc_codepage_func       0055fba0 f   LIBCMTD:initctyp.obj
 0002:000cec00       ____lc_collate_cp_func     0055fc00 f   LIBCMTD:initctyp.obj
 0002:000cec60       ____lc_handle_func         0055fc60 f   LIBCMTD:initctyp.obj
 0002:000cecc0       __dosmaperr                0055fcc0 f   LIBCMTD:dosmap.obj
 0002:000ced00       __get_errno_from_oserr     0055fd00 f   LIBCMTD:dosmap.obj
 0002:000ceda0       __set_errno                0055fda0 f   LIBCMTD:dosmap.obj
 0002:000cede0       __get_errno                0055fde0 f   LIBCMTD:dosmap.obj
 0002:000cee80       __set_doserrno             0055fe80 f   LIBCMTD:dosmap.obj
 0002:000ceec0       __get_doserrno             0055fec0 f   LIBCMTD:dosmap.obj
 0002:000cef60       __errno                    0055ff60 f   LIBCMTD:dosmap.obj
 0002:000cef90       ___doserrno                0055ff90 f   LIBCMTD:dosmap.obj
 0002:000cefc0       __tolower                  0055ffc0 f   LIBCMTD:tolower.obj
 0002:000cefd0       __tolower_l                0055ffd0 f   LIBCMTD:tolower.obj
 0002:000cf220       _tolower                   00560220 f   LIBCMTD:tolower.obj
 0002:000cf280       __strtod_l                 00560280 f   LIBCMTD:strtod.obj
 0002:000cf4f0       _strtod                    005604f0 f   LIBCMTD:strtod.obj
 0002:000cf510       __itoa_s                   00560510 f   LIBCMTD:xtoas.obj
 0002:000cf9c0       __ltoa_s                   005609c0 f   LIBCMTD:xtoas.obj
 0002:000cfa10       __ultoa_s                  00560a10 f   LIBCMTD:xtoas.obj
 0002:000cfa40       __i64toa_s                 00560a40 f   LIBCMTD:xtoas.obj
 0002:000cff40       __ui64toa_s                00560f40 f   LIBCMTD:xtoas.obj
 0002:000cff70       ?_Type_info_dtor@type_info@@CAXPAV1@@Z 00560f70 f   LIBCMTD:typname.obj
 0002:000d00c0       ?_Name_base@type_info@@CAPBDPBV1@PAU__type_info_node@@@Z 005610c0 f   LIBCMTD:typname.obj
 0002:000d02d0       ?_Type_info_dtor_internal@type_info@@CAXPAV1@@Z 005612d0 f   LIBCMTD:typname.obj
 0002:000d0420       ___unDNameHelper           00561420 f   LIBCMTD:typname.obj
 0002:000d0470       ?_Name_base_internal@type_info@@CAPBDPBV1@PAU__type_info_node@@@Z 00561470 f   LIBCMTD:typname.obj
 0002:000d06a0       ___clean_type_info_names_internal 005616a0 f   LIBCMTD:typname.obj
 0002:000d0780       __mtinitlocks              00561780 f   LIBCMTD:mlock.obj
 0002:000d0830       __mtdeletelocks            00561830 f   LIBCMTD:mlock.obj
 0002:000d0920       __mtinitlocknum            00561920 f   LIBCMTD:mlock.obj
 0002:000d0ac0       __lock                     00561ac0 f   LIBCMTD:mlock.obj
 0002:000d0b10       __unlock                   00561b10 f   LIBCMTD:mlock.obj
 0002:000d0b30       __lockerr_exit             00561b30 f   LIBCMTD:mlock.obj
 0002:000d0b60       __except_handler4          00561b60 f   LIBCMTD:chandler4.obj
 0002:000d0e10       __VEC_memzero              00561e10 f   LIBCMTD:p4_memset.obj
 0002:000d0f40       __get_sse2_info            00561f40 f   LIBCMTD:cpu_disp.obj
 0002:000d10b0       ___sse2_available_init     005620b0 f   LIBCMTD:cpu_disp.obj
 0002:000d10d0       __CallSettingFrame@12      005620d0 f   LIBCMTD:lowhelpr.obj
 0002:000d10f7       __NLG_Return               005620f7     LIBCMTD:lowhelpr.obj
 0002:000d1130       __encode_pointer           00562130 f   LIBCMTD:tidtable.obj
 0002:000d11f0       __crt_wait_module_handle   005621f0 f i LIBCMTD:tidtable.obj
 0002:000d1230       __encoded_null             00562230 f   LIBCMTD:tidtable.obj
 0002:000d1250       __decode_pointer           00562250 f   LIBCMTD:tidtable.obj
 0002:000d1310       ___crtTlsAlloc@4           00562310 f   LIBCMTD:tidtable.obj
 0002:000d1330       ___fls_getvalue@4          00562330 f   LIBCMTD:tidtable.obj
 0002:000d1360       ___get_flsindex            00562360 f   LIBCMTD:tidtable.obj
 0002:000d1370       ___set_flsgetvalue         00562370 f   LIBCMTD:tidtable.obj
 0002:000d13d0       ___fls_setvalue@8          005623d0 f   LIBCMTD:tidtable.obj
 0002:000d1400       __mtinit                   00562400 f   LIBCMTD:tidtable.obj
 0002:000d1690       __mtterm                   00562690 f   LIBCMTD:tidtable.obj
 0002:000d1700       __initptd                  00562700 f   LIBCMTD:tidtable.obj
 0002:000d18b0       __getptd_noexit            005628b0 f   LIBCMTD:tidtable.obj
 0002:000d19a0       __getptd                   005629a0 f   LIBCMTD:tidtable.obj
 0002:000d19d0       __freefls@4                005629d0 f   LIBCMTD:tidtable.obj
 0002:000d1c60       __freeptd                  00562c60 f   LIBCMTD:tidtable.obj
 0002:000d1d00       ___threadid                00562d00 f   LIBCMTD:tidtable.obj
 0002:000d1d10       ___threadhandle            00562d10 f   LIBCMTD:tidtable.obj
 0002:000d1d20       __initp_eh_hooks           00562d20 f   LIBCMTD:hooks.obj
 0002:000d1d40       ?terminate@@YAXXZ          00562d40 f   LIBCMTD:hooks.obj
 0002:000d1de0       ?unexpected@@YAXXZ         00562de0 f   LIBCMTD:hooks.obj
 0002:000d1e10       ?_inconsistency@@YAXXZ     00562e10 f   LIBCMTD:hooks.obj
 0002:000d1ec0       ___report_gsfailure        00562ec0 f   LIBCMTD:gs_report.obj
 0002:000d2020       _strcpy_s                  00563020 f   LIBCMTD:strcpy_s.obj
 0002:000d23b0       __CrtDefaultAllocHook      005633b0 f   LIBCMTD:dbghook.obj
 0002:000d23c0       __crt_debugger_hook        005633c0 f   LIBCMTD:dbghook.obj
 0002:000d23e0       __CrtDbgBreak              005633e0 f   LIBCMTD:dbgrptt.obj
 0002:000d23f0       __CrtSetReportMode         005633f0 f   LIBCMTD:dbgrptt.obj
 0002:000d2580       __CrtSetReportFile         00563580 f   LIBCMTD:dbgrptt.obj
 0002:000d26b0       __CrtSetReportHook         005636b0 f   LIBCMTD:dbgrptt.obj
 0002:000d26e0       __CrtGetReportHook         005636e0 f   LIBCMTD:dbgrptt.obj
 0002:000d26f0       __VCrtDbgReportA           005636f0 f   LIBCMTD:dbgrptt.obj
 0002:000d3120       __VCrtDbgReportW           00564120 f   LIBCMTD:dbgrptt.obj
 0002:000d3ca0       __initp_misc_winsig        00564ca0 f   LIBCMTD:winsig.obj
 0002:000d3ce0       _signal                    00564ce0 f   LIBCMTD:winsig.obj
 0002:000d42b0       _raise                     005652b0 f   LIBCMTD:winsig.obj
 0002:000d4700       ___get_sigabrt             00565700 f   LIBCMTD:winsig.obj
 0002:000d4720       ___fpecode                 00565720 f   LIBCMTD:winsig.obj
 0002:000d4740       ___pxcptinfoptrs           00565740 f   LIBCMTD:winsig.obj
 0002:000d4760       ___crtMessageBoxW          00565760 f   LIBCMTD:crtmboxw.obj
 0002:000d4a10       __swprintf                 00565a10 f   LIBCMTD:swprintf.obj
 0002:000d4c60       ___swprintf_l              00565c60 f   LIBCMTD:swprintf.obj
 0002:000d4ca0       _swprintf_s                00565ca0 f   LIBCMTD:swprintf.obj
 0002:000d4ce0       __snwprintf_s              00565ce0 f   LIBCMTD:swprintf.obj
 0002:000d4d20       __swprintf_p               00565d20 f   LIBCMTD:swprintf.obj
 0002:000d4d60       __swprintf_s_l             00565d60 f   LIBCMTD:swprintf.obj
 0002:000d4da0       __snwprintf_s_l            00565da0 f   LIBCMTD:swprintf.obj
 0002:000d4de0       __swprintf_p_l             00565de0 f   LIBCMTD:swprintf.obj
 0002:000d4e20       __scwprintf                00565e20 f   LIBCMTD:swprintf.obj
 0002:000d4e50       __scwprintf_p              00565e50 f   LIBCMTD:swprintf.obj
 0002:000d4e80       __scwprintf_l              00565e80 f   LIBCMTD:swprintf.obj
 0002:000d4eb0       __scwprintf_p_l            00565eb0 f   LIBCMTD:swprintf.obj
 0002:000d4ee0       _wcscpy_s                  00565ee0 f   LIBCMTD:wcscpy_s.obj
 0002:000d5280       __initp_heap_handler       00566280 f   LIBCMTD:handler.obj
 0002:000d52a0       ?_set_new_handler@@YAP6AHI@ZP6AHI@Z@Z 005662a0 f   LIBCMTD:handler.obj
 0002:000d5300       ?_set_new_handler@@YAP6AHI@ZH@Z 00566300 f   LIBCMTD:handler.obj
 0002:000d5350       ?_query_new_handler@@YAP6AHI@ZXZ 00566350 f   LIBCMTD:handler.obj
 0002:000d5370       __callnewh                 00566370 f   LIBCMTD:handler.obj
 0002:000d53c0       __flsbuf                   005663c0 f   LIBCMTD:_flsbuf.obj
 0002:000d5730       __output_l                 00566730 f   LIBCMTD:output.obj
 0002:000d7070       _get_int_arg               00568070 f i LIBCMTD:output.obj
 0002:000d70a0       _get_int64_arg             005680a0 f i LIBCMTD:output.obj
 0002:000d70d0       _get_short_arg             005680d0 f i LIBCMTD:output.obj
 0002:000d7100       __vsprintf_l               00568100 f   LIBCMTD:vsprintf.obj
 0002:000d72d0       _vsprintf                  005682d0 f   LIBCMTD:vsprintf.obj
 0002:000d7300       __vscprintf_helper         00568300 f   LIBCMTD:vsprintf.obj
 0002:000d73f0       __vscprintf                005683f0 f   LIBCMTD:vsprintf.obj
 0002:000d7420       __vscprintf_l              00568420 f   LIBCMTD:vsprintf.obj
 0002:000d7450       __vscprintf_p              00568450 f   LIBCMTD:vsprintf.obj
 0002:000d7480       __vscprintf_p_l            00568480 f   LIBCMTD:vsprintf.obj
 0002:000d74b0       __setdefaultprecision      005684b0 f   LIBCMTD:fp8.obj
 0002:000d7500       __ms_p5_test_fdiv          00568500 f   LIBCMTD:_testfdiv_.obj
 0002:000d7560       __ms_p5_mp_test_fdiv       00568560 f   LIBCMTD:_testfdiv_.obj
 0002:000d75c0       __forcdecpt                005685c0 f   LIBCMTD:cvt.obj
 0002:000d75e0       __forcdecpt_l              005685e0 f   LIBCMTD:cvt.obj
 0002:000d76d0       __cropzeros                005686d0 f   LIBCMTD:cvt.obj
 0002:000d76f0       __cropzeros_l              005686f0 f   LIBCMTD:cvt.obj
 0002:000d7840       __positive                 00568840 f   LIBCMTD:cvt.obj
 0002:000d7880       __fassign_l                00568880 f   LIBCMTD:cvt.obj
 0002:000d78f0       __fassign                  005688f0 f   LIBCMTD:cvt.obj
 0002:000d7920       __cftoe_l                  00568920 f   LIBCMTD:cvt.obj
 0002:000d7fc0       __cftoe                    00568fc0 f   LIBCMTD:cvt.obj
 0002:000d7ff0       __cftoa_l                  00568ff0 f   LIBCMTD:cvt.obj
 0002:000d89b0       __cftoa                    005699b0 f   LIBCMTD:cvt.obj
 0002:000d89e0       __cftof_l                  005699e0 f   LIBCMTD:cvt.obj
 0002:000d8ee0       __cftof                    00569ee0 f   LIBCMTD:cvt.obj
 0002:000d8f10       __cftog_l                  00569f10 f   LIBCMTD:cvt.obj
 0002:000d91d0       __cftog                    0056a1d0 f   LIBCMTD:cvt.obj
 0002:000d9200       __cfltcvt_l                0056a200 f   LIBCMTD:cvt.obj
 0002:000d92f0       __cfltcvt                  0056a2f0 f   LIBCMTD:cvt.obj
 0002:000d9370       __initp_misc_cfltcvt_tab   0056a370 f   LIBCMTD:cmiscdat.obj
 0002:000d93d0       __chvalidator              0056a3d0 f   LIBCMTD:isctype.obj
 0002:000d9430       __chvalidator_l            0056a430 f   LIBCMTD:isctype.obj
 0002:000d9510       __isctype_l                0056a510 f   LIBCMTD:isctype.obj
 0002:000d9670       __isctype                  0056a670 f   LIBCMTD:isctype.obj
 0002:000d96c0       ___updatetmbcinfo          0056a6c0 f   LIBCMTD:mbctype.obj
 0002:000d9810       __setmbcp                  0056a810 f   LIBCMTD:mbctype.obj
 0002:000d9ca0       __setmbcp_nolock           0056aca0 f   LIBCMTD:mbctype.obj
 0002:000da680       __getmbcp                  0056b680 f   LIBCMTD:mbctype.obj
 0002:000da710       ___initmbctable            0056b710 f   LIBCMTD:mbctype.obj
 0002:000da740       ___libm_setusermatherr     0056b740 f   LIBCMTD:_libm_error_.obj
 0002:000da790       ___libm_error_support      0056b790 f   LIBCMTD:_libm_error_.obj
 0002:000db5a0       __sse2_mathfcns_init       0056c5a0 f   LIBCMTD:_mathfcns_.obj
 0002:000db5d0       __set_SSE2_enable          0056c5d0 f   LIBCMTD:_mathfcns_.obj
 0002:000db600       __ceil_default             0056c600 f   LIBCMTD:_ceil_.obj
 0002:000db790       __VEC_memcpy               0056c790 f   LIBCMTD:p4_memcpy.obj
 0002:000db960       __output_s_l               0056c960 f   LIBCMTD:outputs.obj
 0002:000dd450       __validate_param_reuseA    0056e450 f   LIBCMTD:outputp.obj
 0002:000dd760       __output_p_l               0056e760 f   LIBCMTD:outputp.obj
 0002:000e2220       _get_crtdouble_arg         00573220 f i LIBCMTD:outputp.obj
 0002:000e2250       __FF_MSGBANNER             00573250 f   LIBCMTD:crt0msg.obj
 0002:000e22b0       __NMSG_WRITE               005732b0 f   LIBCMTD:crt0msg.obj
 0002:000e25f0       __GET_RTERRMSG             005735f0 f   LIBCMTD:crt0msg.obj
 0002:000e2650       ___getlocaleinfo           00573650 f   LIBCMTD:inithelp.obj
 0002:000e29a0       __initp_misc_purevirt      005739a0 f   LIBCMTD:inithelp.obj
 0002:000e29c0       _strnlen                   005739c0 f   LIBCMTD:strlen_s.obj
 0002:000e2a10       __mbsnbicoll_l             00573a10 f   LIBCMTD:mbsnbico.obj
 0002:000e2ce0       __mbsnbicoll               00573ce0 f   LIBCMTD:mbsnbico.obj
 0002:000e2d10       ___wtomb_environ           00573d10 f   LIBCMTD:wtombenv.obj
 0002:000e2e40       __input_l                  00573e40 f   LIBCMTD:input.obj
 0002:000e4c90       __INTRN_LOCALE_CONV        00575c90 f i LIBCMTD:input.obj
 0002:000e4e00       __input_s_l                00575e00 f   LIBCMTD:inputs.obj
 0002:000e7240       __close                    00578240 f   LIBCMTD:close.obj
 0002:000e74e0       __close_nolock             005784e0 f   LIBCMTD:close.obj
 0002:000e75e0       __fileno                   005785e0 f   LIBCMTD:fileno.obj
 0002:000e7670       __freebuf                  00578670 f   LIBCMTD:_freebuf.obj
 0002:000e7720       __stbuf                    00578720 f   LIBCMTD:_sftbuf.obj
 0002:000e78d0       __ftbuf                    005788d0 f   LIBCMTD:_sftbuf.obj
 0002:000e7980       __ioinit                   00578980 f   LIBCMTD:ioinit.obj
 0002:000e7f50       __ioterm                   00578f50 f   LIBCMTD:ioinit.obj
 0002:000e8020       _vfprintf_helper           00579020 f   LIBCMTD:vfprintf.obj
 0002:000e8360       __vfprintf_l               00579360 f   LIBCMTD:vfprintf.obj
 0002:000e8390       __vfprintf_s_l             00579390 f   LIBCMTD:vfprintf.obj
 0002:000e83c0       __vfprintf_p_l             005793c0 f   LIBCMTD:vfprintf.obj
 0002:000e83f0       _vfprintf                  005793f0 f   LIBCMTD:vfprintf.obj
 0002:000e8420       _vfprintf_s                00579420 f   LIBCMTD:vfprintf.obj
 0002:000e8450       __vfprintf_p               00579450 f   LIBCMTD:vfprintf.obj
 0002:000e8480       __openfile                 00579480 f   LIBCMTD:_open.obj
 0002:000e8e30       __getstream                00579e30 f   LIBCMTD:stream.obj
 0002:000e9124       __local_unwind4            0057a124 f   LIBCMTD:exsup4.obj
 0002:000e91fa       __seh_longjmp_unwind4@4    0057a1fa f   LIBCMTD:exsup4.obj
 0002:000e9216       @_EH4_CallFilterFunc@8     0057a216 f   LIBCMTD:exsup4.obj
 0002:000e922d       @_EH4_TransferToHandler@8  0057a22d f   LIBCMTD:exsup4.obj
 0002:000e9246       @_EH4_GlobalUnwind@4       0057a246 f   LIBCMTD:exsup4.obj
 0002:000e9260       @_EH4_LocalUnwind@16       0057a260 f   LIBCMTD:exsup4.obj
 0002:000e92d0       __itow_s                   0057a2d0 f   LIBCMTD:xtows.obj
 0002:000e97a0       __ltow_s                   0057a7a0 f   LIBCMTD:xtows.obj
 0002:000e97f0       __ultow_s                  0057a7f0 f   LIBCMTD:xtows.obj
 0002:000e9820       __i64tow_s                 0057a820 f   LIBCMTD:xtows.obj
 0002:000e9d40       __ui64tow_s                0057ad40 f   LIBCMTD:xtows.obj
 0002:000e9d70       _wcsncat_s                 0057ad70 f   LIBCMTD:wcsncat_s.obj
 0002:000ea350       _wcsncpy_s                 0057b350 f   LIBCMTD:wcsncpy_s.obj
 0002:000ea860       _wcscat_s                  0057b860 f   LIBCMTD:wcscat_s.obj
 0002:000ead40       _fwprintf                  0057bd40 f   LIBCMTD:fwprintf.obj
 0002:000eaf20       __fwprintf_l               0057bf20 f   LIBCMTD:fwprintf.obj
 0002:000eaf60       __fwprintf_s_l             0057bf60 f   LIBCMTD:fwprintf.obj
 0002:000eafa0       _fwprintf_s                0057bfa0 f   LIBCMTD:fwprintf.obj
 0002:000eafd0       __fwprintf_p_l             0057bfd0 f   LIBCMTD:fwprintf.obj
 0002:000eb010       __fwprintf_p               0057c010 f   LIBCMTD:fwprintf.obj
 0002:000eb040       _setvbuf                   0057c040 f   LIBCMTD:setvbuf.obj
 0002:000eb3d0       __set_error_mode           0057c3d0 f   LIBCMTD:errmode.obj
 0002:000eb4c0       ___set_app_type            0057c4c0 f   LIBCMTD:errmode.obj
 0002:000eb4e0       ___get_app_type            0057c4e0 f   LIBCMTD:errmode.obj
 0002:000eb4f0       __vswprintf_helper         0057c4f0 f   LIBCMTD:vswprnc.obj
 0002:000eb7b0       __vswprintf_c              0057c7b0 f   LIBCMTD:vswprnc.obj
 0002:000eb810       __vswprintf_c_l            0057c810 f   LIBCMTD:vswprnc.obj
 0002:000eb870       __vswprintf_s_l            0057c870 f   LIBCMTD:vswprnc.obj
 0002:000ebb70       _vswprintf_s               0057cb70 f   LIBCMTD:vswprnc.obj
 0002:000ebba0       __vsnwprintf_s_l           0057cba0 f   LIBCMTD:vswprnc.obj
 0002:000ec040       __vsnwprintf_s             0057d040 f   LIBCMTD:vswprnc.obj
 0002:000ec070       __vswprintf_p              0057d070 f   LIBCMTD:vswprnc.obj
 0002:000ec0d0       __vswprintf_p_l            0057d0d0 f   LIBCMTD:vswprnc.obj
 0002:000ec130       ___crtMessageBoxA          0057d130 f   LIBCMTD:crtmbox.obj
 0002:000ec3e0       ___ascii_strnicmp          0057d3e0 f   LIBCMTD:_strnicm.obj
 0002:000ec460       _strncpy_s                 0057d460 f   LIBCMTD:strncpy_s.obj
 0002:000ec950       __get_daylight             0057d950 f   LIBCMTD:timeset.obj
 0002:000ec9f0       __get_dstbias              0057d9f0 f   LIBCMTD:timeset.obj
 0002:000eca90       __get_timezone             0057da90 f   LIBCMTD:timeset.obj
 0002:000ecb30       __get_tzname               0057db30 f   LIBCMTD:timeset.obj
 0002:000ecd80       ___daylight                0057dd80 f   LIBCMTD:timeset.obj
 0002:000ecd90       ___dstbias                 0057dd90 f   LIBCMTD:timeset.obj
 0002:000ecda0       ___timezone                0057dda0 f   LIBCMTD:timeset.obj
 0002:000ecdb0       ___tzname                  0057ddb0 f   LIBCMTD:timeset.obj
 0002:000ecdc0       __strtoi64                 0057ddc0 f   LIBCMTD:strtoq.obj
 0002:000ed490       __strtoi64_l               0057e490 f   LIBCMTD:strtoq.obj
 0002:000ed4c0       __strtoui64                0057e4c0 f   LIBCMTD:strtoq.obj
 0002:000ed520       __strtoui64_l              0057e520 f   LIBCMTD:strtoq.obj
 0002:000ed550       __commit                   0057e550 f   LIBCMTD:commit.obj
 0002:000ed7f0       __write                    0057e7f0 f   LIBCMTD:write.obj
 0002:000edaa0       __write_nolock             0057eaa0 f   LIBCMTD:write.obj
 0002:000ee8b0       _vprintf_helper            0057f8b0 f   LIBCMTD:vprintf.obj
 0002:000eea10       __vprintf_l                0057fa10 f   LIBCMTD:vprintf.obj
 0002:000eea40       __vprintf_s_l              0057fa40 f   LIBCMTD:vprintf.obj
 0002:000eea70       __vprintf_p_l              0057fa70 f   LIBCMTD:vprintf.obj
 0002:000eeaa0       _vprintf                   0057faa0 f   LIBCMTD:vprintf.obj
 0002:000eead0       _vprintf_s                 0057fad0 f   LIBCMTD:vprintf.obj
 0002:000eeb00       __vprintf_p                0057fb00 f   LIBCMTD:vprintf.obj
 0002:000eeb30       __initp_misc_initcrit      0057fb30 f   LIBCMTD:initcrit.obj
 0002:000eeb50       ___crtInitCritSecAndSpinCount 0057fb50 f   LIBCMTD:initcrit.obj
 0002:000eec20       __fcloseall                0057fc20 f   LIBCMTD:closeall.obj
 0002:000eeda0       __getcwd                   0057fda0 f   LIBCMTD:getcwd.obj
 0002:000eee50       __getcwd_dbg               0057fe50 f   LIBCMTD:getcwd.obj
 0002:000eef10       __getdcwd                  0057ff10 f   LIBCMTD:getcwd.obj
 0002:000eefc0       __getdcwd_dbg              0057ffc0 f   LIBCMTD:getcwd.obj
 0002:000ef080       __getdcwd_nolock           00580080 f   LIBCMTD:getcwd.obj
 0002:000ef0b0       __getdcwd_lk_dbg           005800b0 f   LIBCMTD:getcwd.obj
 0002:000ef3a0       __validdrive               005803a0 f   LIBCMTD:getcwd.obj
 0002:000ef410       __RTC_Initialize           00580410 f   LIBCMTD:_initsect_.obj
 0002:000ef440       __RTC_Terminate            00580440 f   LIBCMTD:_initsect_.obj
 0002:000ef470       __ValidateImageBase        00580470 f   LIBCMTD:pesect.obj
 0002:000ef4f0       __FindPESection            005804f0 f   LIBCMTD:pesect.obj
 0002:000ef590       __IsNonwritableInCurrentImage 00580590 f   LIBCMTD:pesect.obj
 0002:000ef6f0       __initp_misc_winxfltr      005806f0 f   LIBCMTD:winxfltr.obj
 0002:000ef700       ___CppXcptFilter           00580700 f   LIBCMTD:winxfltr.obj
 0002:000ef730       __XcptFilter               00580730 f   LIBCMTD:winxfltr.obj
 0002:000ef9e0       __initp_misc_rand_s        005809e0 f   LIBCMTD:rand_s.obj
 0002:000efa00       _rand_s                    00580a00 f   LIBCMTD:rand_s.obj
 0002:000efcb0       ?__CxxUnhandledExceptionFilter@@YGJPAU_EXCEPTION_POINTERS@@@Z 00580cb0 f   LIBCMTD:unhandld.obj
 0002:000efd30       ___CxxSetUnhandledExceptionFilter 00580d30 f   LIBCMTD:unhandld.obj
 0002:000efd50       ___security_init_cookie    00580d50 f   LIBCMTD:gs_support.obj
 0002:000efe70       __wincmdln                 00580e70 f   LIBCMTD:wincmdln.obj
 0002:000eff70       __setenvp                  00580f70 f   LIBCMTD:stdenvp.obj
 0002:000f0180       __setargv                  00581180 f   LIBCMTD:stdargv.obj
 0002:000f02e0       __set_pgmptr               005812e0 f i LIBCMTD:stdargv.obj
 0002:000f0740       ___crtGetEnvironmentStringsA 00581740 f   LIBCMTD:a_env.obj
 0002:000f09e0       ___heap_select             005819e0 f   LIBCMTD:heapinit.obj
 0002:000f0a00       __heap_init                00581a00 f   LIBCMTD:heapinit.obj
 0002:000f0aa0       __heap_term                00581aa0 f   LIBCMTD:heapinit.obj
 0002:000f0b70       __get_heap_handle          00581b70 f   LIBCMTD:heapinit.obj
 0002:000f0bc0       _DebuggerKnownHandle       00581bc0 f   LIBCMTD:_error_.obj
 0002:000f0ca0       ?_RTC_Failure@@YAXPAXH@Z   00581ca0 f   LIBCMTD:_error_.obj
 0002:000f1070       ?_RTC_StackFailure@@YAXPAXPBD@Z 00582070 f   LIBCMTD:_error_.obj
 0002:000f11b0       ?_RTC_AllocaFailure@@YAXPAXPAU_RTC_ALLOCA_NODE@@H@Z 005821b0 f   LIBCMTD:_error_.obj
 0002:000f13c0       __RTC_UninitUse            005823c0 f   LIBCMTD:_error_.obj
 0002:000f14f0       __RTC_NumErrors            005824f0 f   LIBCMTD:_userapi_.obj
 0002:000f1500       __RTC_GetErrDesc           00582500 f   LIBCMTD:_userapi_.obj
 0002:000f1520       __RTC_SetErrorType         00582520 f   LIBCMTD:_userapi_.obj
 0002:000f1550       __RTC_SetErrorFunc         00582550 f   LIBCMTD:_userapi_.obj
 0002:000f1580       __RTC_SetErrorFuncW        00582580 f   LIBCMTD:_userapi_.obj
 0002:000f15b0       ?_RTC_GetErrorFunc@@YAP6AHHPBDH00ZZPBX@Z 005825b0 f   LIBCMTD:_userapi_.obj
 0002:000f15c0       ?_RTC_GetErrorFuncW@@YAP6AHHPB_WH00ZZPBX@Z 005825c0 f   LIBCMTD:_userapi_.obj
 0002:000f15d0       __chkesp                   005825d0 f   LIBCMTD:chkesp.obj
 0002:000f1620       __CRT_RTC_INIT             00582620 f   LIBCMTD:chkesp.obj
 0002:000f1630       __CRT_RTC_INITW            00582630 f   LIBCMTD:chkesp.obj
 0002:000f1640       ___sys_nerr                00582640 f   LIBCMTD:syserr.obj
 0002:000f1650       ___sys_errlist             00582650 f   LIBCMTD:syserr.obj
 0002:000f1660       _V6_HeapAlloc              00582660 f   LIBCMTD:malloc.obj
 0002:000f1720       __malloc_base              00582720 f   LIBCMTD:malloc.obj
 0002:000f17d0       __heap_alloc_base          005827d0 f i LIBCMTD:malloc.obj
 0002:000f18c0       __expand_base              005828c0 f   LIBCMTD:expand.obj
 0002:000f1c40       __realloc_base             00582c40 f   LIBCMTD:realloc.obj
 0002:000f20c0       __free_base                005830c0 f   LIBCMTD:free.obj
 0002:000f2230       __heapchk                  00583230 f   LIBCMTD:heapchk.obj
 0002:000f2340       __heapset                  00583340 f   LIBCMTD:heapchk.obj
 0002:000f2350       __get_sbh_threshold        00583350 f   LIBCMTD:sbheap.obj
 0002:000f23b0       __set_sbh_threshold        005833b0 f   LIBCMTD:sbheap.obj
 0002:000f25b0       __set_amblksiz             005835b0 f   LIBCMTD:sbheap.obj
 0002:000f2700       __get_amblksiz             00583700 f   LIBCMTD:sbheap.obj
 0002:000f2830       ___sbh_heap_init           00583830 f   LIBCMTD:sbheap.obj
 0002:000f28b0       ___sbh_find_block          005838b0 f   LIBCMTD:sbheap.obj
 0002:000f2920       ___sbh_verify_block        00583920 f   LIBCMTD:sbheap.obj
 0002:000f2990       ___sbh_free_block          00583990 f   LIBCMTD:sbheap.obj
 0002:000f30c0       ___sbh_alloc_block         005840c0 f   LIBCMTD:sbheap.obj
 0002:000f3730       ___sbh_alloc_new_region    00584730 f   LIBCMTD:sbheap.obj
 0002:000f3890       ___sbh_alloc_new_group     00584890 f   LIBCMTD:sbheap.obj
 0002:000f3b00       ___sbh_resize_block        00584b00 f   LIBCMTD:sbheap.obj
 0002:000f4240       ___sbh_heapmin             00585240 f   LIBCMTD:sbheap.obj
 0002:000f43c0       ___sbh_heap_check          005853c0 f   LIBCMTD:sbheap.obj
 0002:000f49f0       ?_ValidateRead@@YAHPBXI@Z  005859f0 f   LIBCMTD:validate.obj
 0002:000f4a20       ?_ValidateWrite@@YAHPAXI@Z 00585a20 f   LIBCMTD:validate.obj
 0002:000f4a50       ?_ValidateExecute@@YAHP6GHXZ@Z 00585a50 f   LIBCMTD:validate.obj
 0002:000f4a80       ___init_time               00585a80 f   LIBCMTD:inittime.obj
 0002:000f5360       ___free_lc_time            00586360 f   LIBCMTD:inittime.obj
 0002:000f5730       ___init_numeric            00586730 f   LIBCMTD:initnum.obj
 0002:000f5b60       ___free_lconv_num          00586b60 f   LIBCMTD:initnum.obj
 0002:000f5bf0       ___init_monetary           00586bf0 f   LIBCMTD:initmon.obj
 0002:000f6230       ___free_lconv_mon          00587230 f   LIBCMTD:initmon.obj
 0002:000f6360       ___init_collate            00587360 f   LIBCMTD:initcoll.obj
 0002:000f6370       __Getdays_l                00587370 f   LIBCMTD:strftime.obj
 0002:000f65a0       __Getdays                  005875a0 f   LIBCMTD:strftime.obj
 0002:000f65c0       __Getmonths_l              005875c0 f   LIBCMTD:strftime.obj
 0002:000f67f0       __Getmonths                005877f0 f   LIBCMTD:strftime.obj
 0002:000f6810       __Gettnames_l              00587810 f   LIBCMTD:strftime.obj
 0002:000f6ed0       __Gettnames                00587ed0 f   LIBCMTD:strftime.obj
 0002:000f6ef0       __strftime_l               00587ef0 f   LIBCMTD:strftime.obj
 0002:000f6f20       _strftime                  00587f20 f   LIBCMTD:strftime.obj
 0002:000f6f50       __Strftime                 00587f50 f   LIBCMTD:strftime.obj
 0002:000f6f80       __Strftime_l               00587f80 f   LIBCMTD:strftime.obj
 0002:000f9500       _strpbrk                   0058a500 f   LIBCMTD:strpbrk.obj
 0002:000f9550       ___crtGetStringTypeA       0058a550 f   LIBCMTD:a_str.obj
 0002:000f9880       _strcat_s                  0058a880 f   LIBCMTD:strcat_s.obj
 0002:000f9d50       ___get_qualified_locale    0058ad50 f   LIBCMTD:getqloc.obj
 0002:000faf70       _fwrite                    0058bf70 f   LIBCMTD:fwrite.obj
 0002:000fb0c0       __fwrite_nolock            0058c0c0 f   LIBCMTD:fwrite.obj
 0002:000fb580       ___ansicp                  0058c580 f   LIBCMTD:convrtcp.obj
 0002:000fb5f0       ___convertcp               0058c5f0 f   LIBCMTD:convrtcp.obj
 0002:000fb8d0       __isleadbyte_l             0058c8d0 f i LIBCMTD:_wctype.obj
 0002:000fb930       _isleadbyte                0058c930 f i LIBCMTD:_wctype.obj
 0002:000fb950       __iswalpha_l               0058c950 f i LIBCMTD:_wctype.obj
 0002:000fb980       _iswalpha                  0058c980 f i LIBCMTD:_wctype.obj
 0002:000fb9a0       __iswupper_l               0058c9a0 f i LIBCMTD:_wctype.obj
 0002:000fb9c0       _iswupper                  0058c9c0 f i LIBCMTD:_wctype.obj
 0002:000fb9e0       __iswlower_l               0058c9e0 f i LIBCMTD:_wctype.obj
 0002:000fba00       _iswlower                  0058ca00 f i LIBCMTD:_wctype.obj
 0002:000fba20       __iswdigit_l               0058ca20 f i LIBCMTD:_wctype.obj
 0002:000fba40       _iswdigit                  0058ca40 f i LIBCMTD:_wctype.obj
 0002:000fba60       __iswxdigit_l              0058ca60 f i LIBCMTD:_wctype.obj
 0002:000fba90       _iswxdigit                 0058ca90 f i LIBCMTD:_wctype.obj
 0002:000fbab0       __iswspace_l               0058cab0 f i LIBCMTD:_wctype.obj
 0002:000fbad0       _iswspace                  0058cad0 f i LIBCMTD:_wctype.obj
 0002:000fbaf0       __iswpunct_l               0058caf0 f i LIBCMTD:_wctype.obj
 0002:000fbb10       _iswpunct                  0058cb10 f i LIBCMTD:_wctype.obj
 0002:000fbb30       __iswalnum_l               0058cb30 f i LIBCMTD:_wctype.obj
 0002:000fbb60       _iswalnum                  0058cb60 f i LIBCMTD:_wctype.obj
 0002:000fbb80       __iswprint_l               0058cb80 f i LIBCMTD:_wctype.obj
 0002:000fbbb0       _iswprint                  0058cbb0 f i LIBCMTD:_wctype.obj
 0002:000fbbd0       __iswgraph_l               0058cbd0 f i LIBCMTD:_wctype.obj
 0002:000fbc00       _iswgraph                  0058cc00 f i LIBCMTD:_wctype.obj
 0002:000fbc20       __iswcntrl_l               0058cc20 f i LIBCMTD:_wctype.obj
 0002:000fbc40       _iswcntrl                  0058cc40 f i LIBCMTD:_wctype.obj
 0002:000fbc60       _iswascii                  0058cc60 f i LIBCMTD:_wctype.obj
 0002:000fbc80       __iswcsym_l                0058cc80 f i LIBCMTD:_wctype.obj
 0002:000fbcd0       ___iswcsym                 0058ccd0 f i LIBCMTD:_wctype.obj
 0002:000fbd20       __iswcsymf_l               0058cd20 f i LIBCMTD:_wctype.obj
 0002:000fbd70       ___iswcsymf                0058cd70 f i LIBCMTD:_wctype.obj
 0002:000fbdc0       __fltin2                   0058cdc0 f   LIBCMTD:_cfin_.obj
 0002:000fbed0       ___unDName                 0058ced0 f   LIBCMTD:undname.obj
 0002:000fbfe0       ?Constructor@HeapManager@@QAEXP6APAXI@ZP6AXPAX@Z@Z 0058cfe0 f i LIBCMTD:undname.obj
 0002:000fc030       ?Destructor@HeapManager@@QAEXXZ 0058d030 f i LIBCMTD:undname.obj
 0002:000fc090       ___unDNameEx               0058d090 f   LIBCMTD:undname.obj
 0002:000fc1a0       ??0UnDecorator@@QAE@PADPBDHP6APADJ@ZK@Z 0058d1a0 f i LIBCMTD:undname.obj
 0002:000fc260       ??BUnDecorator@@QAEPADXZ   0058d260 f i LIBCMTD:undname.obj
 0002:000fc520       ?dbGetString@DName@@QBEPADXZ 0058d520 f   LIBCMTD:undname.obj
 0002:000fc550       ?getDecoratedName@UnDecorator@@CA?AVDName@@XZ 0058d550 f   LIBCMTD:undname.obj
 0002:000fc930       ?getSymbolName@UnDecorator@@CA?AVDName@@XZ 0058d930 f i LIBCMTD:undname.obj
 0002:000fc9c0       ?getZName@UnDecorator@@CA?AVDName@@_N0@Z 0058d9c0 f   LIBCMTD:undname.obj
 0002:000fcd10       ?getOperatorName@UnDecorator@@CA?AVDName@@_NPA_N@Z 0058dd10 f i LIBCMTD:undname.obj
 0002:000fd8d0       ?getStringEncoding@UnDecorator@@CA?AVDName@@PADH@Z 0058e8d0 f   LIBCMTD:undname.obj
 0002:000fda10       ?getScope@UnDecorator@@CA?AVDName@@XZ 0058ea10 f   LIBCMTD:undname.obj
 0002:000fdee0       ?getSignedDimension@UnDecorator@@CA?AVDName@@XZ 0058eee0 f   LIBCMTD:undname.obj
 0002:000fdf80       ?getDimension@UnDecorator@@CA?AVDName@@_N@Z 0058ef80 f   LIBCMTD:undname.obj
 0002:000fe2e0       ?getNumberOfDimensions@UnDecorator@@CAHXZ 0058f2e0 f   LIBCMTD:undname.obj
 0002:000fe420       ?getTemplateName@UnDecorator@@CA?AVDName@@_N@Z 0058f420 f   LIBCMTD:undname.obj
 0002:000fe650       ?getTemplateArgumentList@UnDecorator@@CA?AVDName@@XZ 0058f650 f   LIBCMTD:undname.obj
 0002:000fe970       ?getTemplateConstant@UnDecorator@@CA?AVDName@@XZ 0058f970 f   LIBCMTD:undname.obj
 0002:000fef20       ?composeDeclaration@UnDecorator@@CA?AVDName@@ABV2@@Z 0058ff20 f i LIBCMTD:undname.obj
 0002:00100a90       ?getTypeEncoding@UnDecorator@@CAHXZ 00591a90 f i LIBCMTD:undname.obj
 0002:00101760       ?getBasedType@UnDecorator@@CA?AVDName@@XZ 00592760 f   LIBCMTD:undname.obj
 0002:00101850       ?getScopedName@UnDecorator@@CA?AVDName@@XZ 00592850 f   LIBCMTD:undname.obj
 0002:001019b0       ?getCallingConvention@UnDecorator@@CA?AVDName@@XZ 005929b0 f   LIBCMTD:undname.obj
 0002:00101b60       ?getReturnType@UnDecorator@@CA?AVDName@@PAV2@@Z 00592b60 f   LIBCMTD:undname.obj
 0002:00101bc0       ?getDataType@UnDecorator@@CA?AVDName@@PAV2@@Z 00592bc0 f   LIBCMTD:undname.obj
 0002:00101d20       ?getPrimaryDataType@UnDecorator@@CA?AVDName@@ABV2@@Z 00592d20 f   LIBCMTD:undname.obj
 0002:00102070       ?getArgumentTypes@UnDecorator@@CA?AVDName@@XZ 00593070 f   LIBCMTD:undname.obj
 0002:00102220       ?getArgumentList@UnDecorator@@CA?AVDName@@XZ 00593220 f   LIBCMTD:undname.obj
 0002:001023c0       ?getThrowTypes@UnDecorator@@CA?AVDName@@XZ 005933c0 f   LIBCMTD:undname.obj
 0002:001024a0       ?getBasicDataType@UnDecorator@@CA?AVDName@@ABV2@@Z 005934a0 f   LIBCMTD:undname.obj
 0002:00102bb0       ?getECSUDataType@UnDecorator@@CA?AVDName@@XZ 00593bb0 f   LIBCMTD:undname.obj
 0002:00102e00       ?getECSUName@UnDecorator@@CA?AVDName@@XZ 00593e00 f i LIBCMTD:undname.obj
 0002:00102e20       ?getEnumType@UnDecorator@@CA?AVDName@@XZ 00593e20 f i LIBCMTD:undname.obj
 0002:00102fc0       ?getFunctionIndirectType@UnDecorator@@CA?AVDName@@ABV2@@Z 00593fc0 f   LIBCMTD:undname.obj
 0002:00103510       ?getPtrRefType@UnDecorator@@CA?AVDName@@ABV2@0D@Z 00594510 f   LIBCMTD:undname.obj
 0002:001036d0       ?getExtendedDataIndirectType@UnDecorator@@CA?AVDName@@AADAA_NH@Z 005946d0 f   LIBCMTD:undname.obj
 0002:00103960       ?getDataIndirectType@UnDecorator@@CA?AVDName@@ABV2@D0H@Z 00594960 f   LIBCMTD:undname.obj
 0002:00104220       ?getPtrRefDataType@UnDecorator@@CA?AVDName@@ABV2@H@Z 00595220 f i LIBCMTD:undname.obj
 0002:001043b0       ?getArrayType@UnDecorator@@CA?AVDName@@ABV2@@Z 005953b0 f i LIBCMTD:undname.obj
 0002:00104670       ?getLexicalFrame@UnDecorator@@CA?AVDName@@XZ 00595670 f i LIBCMTD:undname.obj
 0002:001046c0       ?getThisType@UnDecorator@@CA?AVDName@@XZ 005956c0 f i LIBCMTD:undname.obj
 0002:00104700       ?getPointerType@UnDecorator@@CA?AVDName@@ABV2@0@Z 00595700 f i LIBCMTD:undname.obj
 0002:00104730       ?getPointerTypeArray@UnDecorator@@CA?AVDName@@ABV2@0@Z 00595730 f i LIBCMTD:undname.obj
 0002:00104760       ?getReferenceType@UnDecorator@@CA?AVDName@@ABV2@0@Z 00595760 f i LIBCMTD:undname.obj
 0002:00104790       ?getDisplacement@UnDecorator@@CA?AVDName@@XZ 00595790 f i LIBCMTD:undname.obj
 0002:001047b0       ?getCallIndex@UnDecorator@@CA?AVDName@@XZ 005957b0 f i LIBCMTD:undname.obj
 0002:001047d0       ?getGuardNumber@UnDecorator@@CA?AVDName@@XZ 005957d0 f i LIBCMTD:undname.obj
 0002:001047f0       ?getVbTableType@UnDecorator@@CA?AVDName@@ABV2@@Z 005957f0 f i LIBCMTD:undname.obj
 0002:00104810       ?getVCallThunkType@UnDecorator@@CA?AVDName@@XZ 00595810 f i LIBCMTD:undname.obj
 0002:00104890       ?getVfTableType@UnDecorator@@CA?AVDName@@ABV2@@Z 00595890 f i LIBCMTD:undname.obj
 0002:00104ac0       ?getStorageConvention@UnDecorator@@CA?AVDName@@XZ 00595ac0 f i LIBCMTD:undname.obj
 0002:00104ae0       ?getDataIndirectType@UnDecorator@@CA?AVDName@@XZ 00595ae0 f i LIBCMTD:undname.obj
 0002:00104b20       ?getVdispMapType@UnDecorator@@CA?AVDName@@ABV2@@Z 00595b20 f i LIBCMTD:undname.obj
 0002:00104bb0       ?getExternalDataType@UnDecorator@@CA?AVDName@@ABV2@@Z 00595bb0 f i LIBCMTD:undname.obj
 0002:00104c70       ?doMSKeywords@UnDecorator@@SAHXZ 00595c70 f i LIBCMTD:undname.obj
 0002:00104c90       ?doPtr64@UnDecorator@@SAHXZ 00595c90 f i LIBCMTD:undname.obj
 0002:00104cb0       ?doFunctionReturns@UnDecorator@@SAHXZ 00595cb0 f i LIBCMTD:undname.obj
 0002:00104cd0       ?doAllocationModel@UnDecorator@@SAHXZ 00595cd0 f i LIBCMTD:undname.obj
 0002:00104cf0       ?doAllocationLanguage@UnDecorator@@SAHXZ 00595cf0 f i LIBCMTD:undname.obj
 0002:00104d10       ?doThisTypes@UnDecorator@@SAHXZ 00595d10 f i LIBCMTD:undname.obj
 0002:00104d30       ?doAccessSpecifiers@UnDecorator@@SAHXZ 00595d30 f i LIBCMTD:undname.obj
 0002:00104d50       ?doThrowTypes@UnDecorator@@SAHXZ 00595d50 f i LIBCMTD:undname.obj
 0002:00104d70       ?doMemberTypes@UnDecorator@@SAHXZ 00595d70 f i LIBCMTD:undname.obj
 0002:00104d90       ?doNameOnly@UnDecorator@@SAHXZ 00595d90 f i LIBCMTD:undname.obj
 0002:00104db0       ?doTypeOnly@UnDecorator@@SAHXZ 00595db0 f i LIBCMTD:undname.obj
 0002:00104dd0       ?haveTemplateParameters@UnDecorator@@SAHXZ 00595dd0 f i LIBCMTD:undname.obj
 0002:00104df0       ?doEcsu@UnDecorator@@SAHXZ 00595df0 f i LIBCMTD:undname.obj
 0002:00104e10       ?doEllipsis@UnDecorator@@SAHXZ 00595e10 f i LIBCMTD:undname.obj
 0002:00104e30       ?UScore@UnDecorator@@SAPBDW4Tokens@@@Z 00595e30 f   LIBCMTD:undname.obj
 0002:00104e70       ?doUnderScore@UnDecorator@@SAHXZ 00595e70 f i LIBCMTD:undname.obj
 0002:00104e90       ??2@YAPAXIAAVHeapManager@@H@Z 00595e90 f i LIBCMTD:undname.obj
 0002:00104eb0       ?getMemory@HeapManager@@QAEPAXIH@Z 00595eb0 f   LIBCMTD:undname.obj
 0002:00105000       ??0Block@HeapManager@@QAE@XZ 00596000 f i LIBCMTD:undname.obj
 0002:00105020       ??H@YA?AVDName@@DABV0@@Z   00596020 f i LIBCMTD:undname.obj
 0002:00105060       ??H@YA?AVDName@@W4DNameStatus@@ABV0@@Z 00596060 f i LIBCMTD:undname.obj
 0002:001050a0       ??H@YA?AVDName@@PBDABV0@@Z 005960a0 f i LIBCMTD:undname.obj
 0002:001050e0       ??0DName@@QAE@XZ           005960e0 f i LIBCMTD:undname.obj
 0002:001051d0       ??0DName@@QAE@D@Z          005961d0 f   LIBCMTD:undname.obj
 0002:001052e0       ??0DName@@QAE@ABV0@@Z      005962e0 f i LIBCMTD:undname.obj
 0002:00105310       ??0DName@@QAE@PAV0@@Z      00596310 f   LIBCMTD:undname.obj
 0002:00105490       ??0DName@@QAE@PBD@Z        00596490 f   LIBCMTD:undname.obj
 0002:001055b0       ??0DName@@QAE@AAPBDD@Z     005965b0 f   LIBCMTD:undname.obj
 0002:00105920       ?doNoIdentCharCheck@UnDecorator@@SAHXZ 00596920 f i LIBCMTD:undname.obj
 0002:00105940       ??0DName@@QAE@_K@Z         00596940 f   LIBCMTD:undname.obj
 0002:00105ad0       ??0DName@@QAE@_J@Z         00596ad0 f   LIBCMTD:undname.obj
 0002:00105cb0       ??0DName@@QAE@W4DNameStatus@@@Z 00596cb0 f   LIBCMTD:undname.obj
 0002:00105e10       ?isValid@DName@@QBEHXZ     00596e10 f i LIBCMTD:undname.obj
 0002:00105e40       ?isEmpty@DName@@QBEHXZ     00596e40 f i LIBCMTD:undname.obj
 0002:00105e60       ?status@DName@@QBE?AW4DNameStatus@@XZ 00596e60 f i LIBCMTD:undname.obj
 0002:00105e80       ?setPtrRef@DName@@QAEAAV1@XZ 00596e80 f i LIBCMTD:undname.obj
 0002:00105eb0       ?isPtrRef@DName@@QBEHXZ    00596eb0 f i LIBCMTD:undname.obj
 0002:00105ed0       ?isUDC@DName@@QBEHXZ       00596ed0 f i LIBCMTD:undname.obj
 0002:00105f20       ?setIsUDC@DName@@QAEXXZ    00596f20 f i LIBCMTD:undname.obj
 0002:00105f60       ?isUDTThunk@DName@@QBEHXZ  00596f60 f i LIBCMTD:undname.obj
 0002:00105fb0       ?setIsArray@DName@@QAEXXZ  00596fb0 f i LIBCMTD:undname.obj
 0002:00105fe0       ?isArray@DName@@QBEHXZ     00596fe0 f i LIBCMTD:undname.obj
 0002:00106000       ?isNoTE@DName@@QBEHXZ      00597000 f i LIBCMTD:undname.obj
 0002:00106020       ?setIsNoTE@DName@@QAEXXZ   00597020 f i LIBCMTD:undname.obj
 0002:00106050       ?isPinPtr@DName@@QBEHXZ    00597050 f i LIBCMTD:undname.obj
 0002:00106070       ?setIsPinPtr@DName@@QAEXXZ 00597070 f i LIBCMTD:undname.obj
 0002:001060a0       ?isComArray@DName@@QBEHXZ  005970a0 f i LIBCMTD:undname.obj
 0002:001060c0       ?setIsComArray@DName@@QAEXXZ 005970c0 f i LIBCMTD:undname.obj
 0002:001060f0       ?isVCallThunk@DName@@QBEHXZ 005970f0 f i LIBCMTD:undname.obj
 0002:00106110       ?setIsVCallThunk@DName@@QAEXXZ 00597110 f i LIBCMTD:undname.obj
 0002:00106140       ?length@DName@@QBEHXZ      00597140 f i LIBCMTD:undname.obj
 0002:00106180       ?getLastChar@DName@@QBEDXZ 00597180 f i LIBCMTD:undname.obj
 0002:001061c0       ?getString@DName@@QBEPADPADH@Z 005971c0 f i LIBCMTD:undname.obj
 0002:00106270       ?getString@DName@@QBEPADPAD0@Z 00597270 f i LIBCMTD:undname.obj
 0002:001062c0       ??HDName@@QBE?AV0@D@Z      005972c0 f   LIBCMTD:undname.obj
 0002:00106310       ??HDName@@QBE?AV0@PBD@Z    00597310 f   LIBCMTD:undname.obj
 0002:00106360       ??HDName@@QBE?AV0@ABV0@@Z  00597360 f   LIBCMTD:undname.obj
 0002:001063b0       ??HDName@@QBE?AV0@PAV0@@Z  005973b0 f   LIBCMTD:undname.obj
 0002:00106400       ??HDName@@QBE?AV0@W4DNameStatus@@@Z 00597400 f   LIBCMTD:undname.obj
 0002:00106450       ?append@DName@@AAEXPAVDNameNode@@@Z 00597450 f   LIBCMTD:undname.obj
 0002:00106500       ??YDName@@QAEAAV0@D@Z      00597500 f   LIBCMTD:undname.obj
 0002:001065b0       ??YDName@@QAEAAV0@PBD@Z    005975b0 f   LIBCMTD:undname.obj
 0002:00106670       ??YDName@@QAEAAV0@ABV0@@Z  00597670 f   LIBCMTD:undname.obj
 0002:001066f0       ??YDName@@QAEAAV0@PAV0@@Z  005976f0 f   LIBCMTD:undname.obj
 0002:001067d0       ??YDName@@QAEAAV0@W4DNameStatus@@@Z 005977d0 f   LIBCMTD:undname.obj
 0002:00106850       ??_5DName@@QAEAAV0@ABV0@@Z 00597850 f   LIBCMTD:undname.obj
 0002:001068c0       ??4DName@@QAEAAV0@D@Z      005978c0 f i LIBCMTD:undname.obj
 0002:001069d0       ??4DName@@QAEAAV0@PBD@Z    005979d0 f   LIBCMTD:undname.obj
 0002:00106ae0       ??4DName@@QAEAAV0@ABV0@@Z  00597ae0 f   LIBCMTD:undname.obj
 0002:00106b10       ??4DName@@QAEAAV0@PAV0@@Z  00597b10 f   LIBCMTD:undname.obj
 0002:00106c90       ??4DName@@QAEAAV0@W4DNameStatus@@@Z 00597c90 f   LIBCMTD:undname.obj
 0002:00106dd0       ?doPchar@DName@@AAEXPBDH@Z 00597dd0 f   LIBCMTD:undname.obj
 0002:00106f60       ?isFull@Replicator@@QBEHXZ 00597f60 f i LIBCMTD:undname.obj
 0002:00106f80       ??0Replicator@@QAE@XZ      00597f80 f i LIBCMTD:undname.obj
 0002:00106fa0       ??YReplicator@@QAEAAV0@ABVDName@@@Z 00597fa0 f   LIBCMTD:undname.obj
 0002:00107050       ??AReplicator@@QBE?AVDName@@H@Z 00598050 f   LIBCMTD:undname.obj
 0002:001070d0       ??0DNameNode@@IAE@XZ       005980d0 f   LIBCMTD:undname.obj
 0002:001070f0       ??0charNode@@QAE@D@Z       005980f0 f   LIBCMTD:undname.obj
 0002:00107130       ?length@charNode@@UBEHXZ   00598130 f i LIBCMTD:undname.obj
 0002:00107150       ?getLastChar@charNode@@UBEDXZ 00598150 f i LIBCMTD:undname.obj
 0002:00107170       ?getString@charNode@@UBEPADPAD0@Z 00598170 f i LIBCMTD:undname.obj
 0002:001071b0       ??0pcharNode@@QAE@PBDH@Z   005981b0 f   LIBCMTD:undname.obj
 0002:00107270       ?length@pcharNode@@UBEHXZ  00598270 f i LIBCMTD:undname.obj
 0002:00107290       ?getLastChar@pcharNode@@UBEDXZ 00598290 f i LIBCMTD:undname.obj
 0002:001072e0       ?getString@pcharNode@@UBEPADPAD0@Z 005982e0 f i LIBCMTD:undname.obj
 0002:00107320       ?getStringHelper@@YAPADPAD00H@Z 00598320 f i LIBCMTD:undname.obj
 0002:00107370       ??0pDNameNode@@QAE@PAVDName@@@Z 00598370 f   LIBCMTD:undname.obj
 0002:001073f0       ?length@pDNameNode@@UBEHXZ 005983f0 f i LIBCMTD:undname.obj
 0002:00107430       ?getLastChar@pDNameNode@@UBEDXZ 00598430 f i LIBCMTD:undname.obj
 0002:00107470       ?getString@pDNameNode@@UBEPADPAD0@Z 00598470 f i LIBCMTD:undname.obj
 0002:001074c0       ??0DNameStatusNode@@AAE@W4DNameStatus@@@Z 005984c0 f   LIBCMTD:undname.obj
 0002:00107520       ?length@DNameStatusNode@@UBEHXZ 00598520 f i LIBCMTD:undname.obj
 0002:00107540       ?getLastChar@DNameStatusNode@@UBEDXZ 00598540 f i LIBCMTD:undname.obj
 0002:00107570       ?getString@DNameStatusNode@@UBEPADPAD0@Z 00598570 f i LIBCMTD:undname.obj
 0002:001075c0       ?make@DNameStatusNode@@SAPAV1@W4DNameStatus@@@Z 005985c0 f i LIBCMTD:undname.obj
 0002:001076a0       ??0pairNode@@QAE@PAVDNameNode@@0@Z 005986a0 f   LIBCMTD:undname.obj
 0002:001076f0       ?length@pairNode@@UBEHXZ   005986f0 f i LIBCMTD:undname.obj
 0002:00107750       ?getLastChar@pairNode@@UBEDXZ 00598750 f i LIBCMTD:undname.obj
 0002:001077b0       ?getString@pairNode@@UBEPADPAD0@Z 005987b0 f i LIBCMTD:undname.obj
 0002:00107930       __global_unwind2           00598930 f   LIBCMTD:exsup.obj
 0002:00107995       __local_unwind2            00598995 f   LIBCMTD:exsup.obj
 0002:00107a19       __abnormal_termination     00598a19 f   LIBCMTD:exsup.obj
 0002:00107a3c       __NLG_Notify1              00598a3c f   LIBCMTD:exsup.obj
 0002:00107a45       __NLG_Notify               00598a45 f   LIBCMTD:exsup.obj
 0002:00107a5c       __NLG_Dispatch2            00598a5c     LIBCMTD:exsup.obj
 0002:00107a5c       __NLG_Dispatch             00598a5c     LIBCMTD:exsup.obj
 0002:00107a64       __NLG_Call                 00598a64 f   LIBCMTD:exsup.obj
 0002:00107a66       __NLG_Return2              00598a66     LIBCMTD:exsup.obj
 0002:00107ac0       __mbstowcs_l_helper        00598ac0 f   LIBCMTD:mbstowcs.obj
 0002:00107ef0       __mbstowcs_l               00598ef0 f   LIBCMTD:mbstowcs.obj
 0002:00107f20       _mbstowcs                  00598f20 f   LIBCMTD:mbstowcs.obj
 0002:00107f80       __mbstowcs_s_l             00598f80 f   LIBCMTD:mbstowcs.obj
 0002:001083e0       _mbstowcs_s                005993e0 f   LIBCMTD:mbstowcs.obj
 0002:00108410       __wcstombs_l_helper        00599410 f   LIBCMTD:wcstombs.obj
 0002:00108a40       __wcstombs_l               00599a40 f   LIBCMTD:wcstombs.obj
 0002:00108a70       _wcstombs                  00599a70 f   LIBCMTD:wcstombs.obj
 0002:00108aa0       __wcstombs_s_l             00599aa0 f   LIBCMTD:wcstombs.obj
 0002:00108e90       _wcstombs_s                00599e90 f   LIBCMTD:wcstombs.obj
 0002:00108ec0       __woutput_l                00599ec0 f   LIBCMTD:woutput.obj
 0002:0010a520       __vswprintf_l              0059b520 f   LIBCMTD:vswprint.obj
 0002:0010a760       __vswprintf                0059b760 f   LIBCMTD:vswprint.obj
 0002:0010a790       ___vswprintf_l             0059b790 f   LIBCMTD:vswprint.obj
 0002:0010a7c0       __vscwprintf_helper        0059b7c0 f   LIBCMTD:vswprint.obj
 0002:0010a8b0       __vscwprintf               0059b8b0 f   LIBCMTD:vswprint.obj
 0002:0010a8e0       __vscwprintf_l             0059b8e0 f   LIBCMTD:vswprint.obj
 0002:0010a910       __vscwprintf_p             0059b910 f   LIBCMTD:vswprint.obj
 0002:0010a940       __vscwprintf_p_l           0059b940 f   LIBCMTD:vswprint.obj
 0002:0010a970       __lseeki64                 0059b970 f   LIBCMTD:lseeki64.obj
 0002:0010ac50       __lseeki64_nolock          0059bc50 f   LIBCMTD:lseeki64.obj
 0002:0010ad80       __getbuf                   0059bd80 f   LIBCMTD:_getbuf.obj
 0002:0010ae70       __isatty                   0059be70 f   LIBCMTD:isatty.obj
 0002:0010af90       __wctomb_s_l               0059bf90 f   LIBCMTD:wctomb.obj
 0002:0010b350       _wctomb_s                  0059c350 f   LIBCMTD:wctomb.obj
 0002:0010b380       __wctomb_l                 0059c380 f   LIBCMTD:wctomb.obj
 0002:0010b420       _wctomb                    0059c420 f   LIBCMTD:wctomb.obj
 0002:0010b480       __controlfp_s              0059c480 f   LIBCMTD:_contrlfp_.obj
 0002:0010b5a0       __atodbl_l                 0059c5a0 f   LIBCMTD:atodbl.obj
 0002:0010b6f0       __atodbl                   0059c6f0 f   LIBCMTD:atodbl.obj
 0002:0010b710       __atoldbl_l                0059c710 f   LIBCMTD:atodbl.obj
 0002:0010b860       __atoldbl                  0059c860 f   LIBCMTD:atodbl.obj
 0002:0010b880       __atoflt_l                 0059c880 f   LIBCMTD:atodbl.obj
 0002:0010b9d0       __atoflt                   0059c9d0 f   LIBCMTD:atodbl.obj
 0002:0010b9f0       __fptostr                  0059c9f0 f   LIBCMTD:_fptostr.obj
 0002:0010bd40       __fltout2                  0059cd40 f   LIBCMTD:_cfout_.obj
 0002:0010be20       ___dtold                   0059ce20 f   LIBCMTD:_cfout_.obj
 0002:0010bfd0       __set_output_format        0059cfd0 f   LIBCMTD:outputformat.obj
 0002:0010c070       __get_output_format        0059d070 f   LIBCMTD:outputformat.obj
 0002:0010c080       __fptrap                   0059d080 f   LIBCMTD:crt0fp.obj
 0002:0010c0a0       __matherr                  0059d0a0 f   LIBCMTD:_matherr_.obj
 0002:0010c0b0       __frnd                     0059d0b0 f   LIBCMTD:_frnd_.obj
 0002:0010c0d0       __handle_qnan1             0059d0d0 f   LIBCMTD:_fpexcept_.obj
 0002:0010c150       __handle_qnan2             0059d150 f   LIBCMTD:_fpexcept_.obj
 0002:0010c1e0       __except1                  0059d1e0 f   LIBCMTD:_fpexcept_.obj
 0002:0010c320       __except2                  0059d320 f   LIBCMTD:_fpexcept_.obj
 0002:0010c470       __raise_exc_ex             0059d470 f   LIBCMTD:_fpexcept_.obj
 0002:0010caf0       __raise_exc                0059daf0 f   LIBCMTD:_fpexcept_.obj
 0002:0010cb30       __raise_excf               0059db30 f   LIBCMTD:_fpexcept_.obj
 0002:0010cb70       __handle_exc               0059db70 f   LIBCMTD:_fpexcept_.obj
 0002:0010cf40       __umatherr                 0059df40 f   LIBCMTD:_fpexcept_.obj
 0002:0010d010       __set_errno_from_matherr   0059e010 f   LIBCMTD:_fpexcept_.obj
 0002:0010d0c0       __errcode                  0059e0c0 f   LIBCMTD:_fpexcept_.obj
 0002:0010d150       __set_exp                  0059e150 f   LIBCMTD:_util_.obj
 0002:0010d1a0       __get_exp                  0059e1a0 f   LIBCMTD:_util_.obj
 0002:0010d1e0       __add_exp                  0059e1e0 f   LIBCMTD:_util_.obj
 0002:0010d220       __set_bexp                 0059e220 f   LIBCMTD:_util_.obj
 0002:0010d260       __sptype                   0059e260 f   LIBCMTD:_util_.obj
 0002:0010d300       __decomp                   0059e300 f   LIBCMTD:_util_.obj
 0002:0010d470       __statfp                   0059e470 f   LIBCMTD:_fpctrl_.obj
 0002:0010d490       __clrfp                    0059e490 f   LIBCMTD:_fpctrl_.obj
 0002:0010d4b0       __ctrlfp                   0059e4b0 f   LIBCMTD:_fpctrl_.obj
 0002:0010d4f0       __set_statfp               0059e4f0 f   LIBCMTD:_fpctrl_.obj
 0002:0010d570       ___get_fpsr_sse2           0059e570 f   LIBCMTD:_fpctrl_.obj
 0002:0010d5a0       ___set_fpsr_sse2           0059e5a0 f   LIBCMTD:_fpctrl_.obj
 0002:0010d6b0       ___fclrf_sse2              0059e6b0 f   LIBCMTD:_fpctrl_.obj
 0002:0010d6e0       ___statfp_sse2             0059e6e0 f   LIBCMTD:_fpctrl_.obj
 0002:0010d720       ___clrfp_sse2              0059e720 f   LIBCMTD:_fpctrl_.obj
 0002:0010d770       ___ctrlfp_sse2             0059e770 f   LIBCMTD:_fpctrl_.obj
 0002:0010d7e0       ___set_statfp_sse2         0059e7e0 f   LIBCMTD:_fpctrl_.obj
 0002:0010d820       ___crtGetLocaleInfoW       0059e820 f   LIBCMTD:w_loc.obj
 0002:0010d8b0       ___crtGetLocaleInfoA       0059e8b0 f   LIBCMTD:a_loc.obj
 0002:0010db00       ___crtCompareStringA       0059eb00 f   LIBCMTD:a_cmp.obj
 0002:0010e220       __strnicoll_l              0059f220 f   LIBCMTD:strnicol.obj
 0002:0010e500       __strnicoll                0059f500 f   LIBCMTD:strnicol.obj
 0002:0010e550       ___crtsetenv               0059f550 f   LIBCMTD:setenv.obj
 0002:0010ed70       __mbtowc_l                 0059fd70 f   LIBCMTD:mbtowc.obj
 0002:0010f010       _mbtowc                    005a0010 f   LIBCMTD:mbtowc.obj
 0002:0010f040       __filbuf                   005a0040 f   LIBCMTD:_filbuf.obj
 0002:0010f320       _ungetc                    005a0320 f   LIBCMTD:ungetc.obj
 0002:0010f450       __ungetc_nolock            005a0450 f   LIBCMTD:ungetc.obj
 0002:0010f700       __open                     005a0700 f   LIBCMTD:open.obj
 0002:0010f8e0       __sopen_helper             005a08e0 f   LIBCMTD:open.obj
 0002:00110fd0       __sopen                    005a1fd0 f   LIBCMTD:open.obj
 0002:00111060       __sopen_s                  005a2060 f   LIBCMTD:open.obj
 0002:00111090       __mbsnbicmp_l              005a2090 f   LIBCMTD:mbsnbicm.obj
 0002:00111660       __mbsnbicmp                005a2660 f   LIBCMTD:mbsnbicm.obj
 0002:00111690       __mbsnbcmp_l               005a2690 f   LIBCMTD:mbsnbcmp.obj
 0002:00111a30       __mbsnbcmp                 005a2a30 f   LIBCMTD:mbsnbcmp.obj
 0002:00111a60       _vfwprintf_helper          005a2a60 f   LIBCMTD:vfwprint.obj
 0002:00111c40       __vfwprintf_l              005a2c40 f   LIBCMTD:vfwprint.obj
 0002:00111c70       __vfwprintf_s_l            005a2c70 f   LIBCMTD:vfwprint.obj
 0002:00111ca0       __vfwprintf_p_l            005a2ca0 f   LIBCMTD:vfwprint.obj
 0002:00111cd0       _vfwprintf                 005a2cd0 f   LIBCMTD:vfwprint.obj
 0002:00111d00       _vfwprintf_s               005a2d00 f   LIBCMTD:vfwprint.obj
 0002:00111d30       __vfwprintf_p              005a2d30 f   LIBCMTD:vfwprint.obj
 0002:00111d60       __woutput_s_l              005a2d60 f   LIBCMTD:woutputs.obj
 0002:00113570       __validate_param_reuseW    005a4570 f   LIBCMTD:woutputp.obj
 0002:00113880       __woutput_p_l              005a4880 f   LIBCMTD:woutputp.obj
 0002:00117dd0       __putwch                   005a8dd0 f   LIBCMTD:putwch.obj
 0002:00117e80       __putwch_nolock            005a8e80 f   LIBCMTD:putwch.obj
 0002:00117fc0       __cputws                   005a8fc0 f   LIBCMTD:putwch.obj
 0002:00118160       __getdrive                 005a9160 f   LIBCMTD:drive.obj
 0002:00118300       __chdrive                  005a9300 f   LIBCMTD:drive.obj
 0002:00118490       __ismbbkalnum_l            005a9490 f   LIBCMTD:ismbbyte.obj
 0002:001184c0       __ismbbkalnum              005a94c0 f   LIBCMTD:ismbbyte.obj
 0002:001184e0       __ismbbkprint_l            005a94e0 f   LIBCMTD:ismbbyte.obj
 0002:00118510       __ismbbkprint              005a9510 f   LIBCMTD:ismbbyte.obj
 0002:00118530       __ismbbkpunct_l            005a9530 f   LIBCMTD:ismbbyte.obj
 0002:00118560       __ismbbkpunct              005a9560 f   LIBCMTD:ismbbyte.obj
 0002:00118580       __ismbbalnum_l             005a9580 f   LIBCMTD:ismbbyte.obj
 0002:001185b0       __ismbbalnum               005a95b0 f   LIBCMTD:ismbbyte.obj
 0002:001185e0       __ismbbalpha_l             005a95e0 f   LIBCMTD:ismbbyte.obj
 0002:00118610       __ismbbalpha               005a9610 f   LIBCMTD:ismbbyte.obj
 0002:00118640       __ismbbgraph_l             005a9640 f   LIBCMTD:ismbbyte.obj
 0002:00118670       __ismbbgraph               005a9670 f   LIBCMTD:ismbbyte.obj
 0002:001186a0       __ismbbprint_l             005a96a0 f   LIBCMTD:ismbbyte.obj
 0002:001186d0       __ismbbprint               005a96d0 f   LIBCMTD:ismbbyte.obj
 0002:00118700       __ismbbpunct_l             005a9700 f   LIBCMTD:ismbbyte.obj
 0002:00118730       __ismbbpunct               005a9730 f   LIBCMTD:ismbbyte.obj
 0002:00118750       __ismbblead_l              005a9750 f   LIBCMTD:ismbbyte.obj
 0002:00118780       __ismbblead                005a9780 f   LIBCMTD:ismbbyte.obj
 0002:001187a0       __ismbbtrail_l             005a97a0 f   LIBCMTD:ismbbyte.obj
 0002:001187d0       __ismbbtrail               005a97d0 f   LIBCMTD:ismbbyte.obj
 0002:001187f0       __ismbbkana_l              005a97f0 f   LIBCMTD:ismbbyte.obj
 0002:00118880       __ismbbkana                005a9880 f   LIBCMTD:ismbbyte.obj
 0002:001189a0       ?_RTC_GetSrcLine@@YAHPAEPA_WKPAH1K@Z 005a99a0 f   LIBCMTD:_pdblkup_.obj
 0002:00118f60       __iswctype_l               005a9f60 f   LIBCMTD:iswctype.obj
 0002:00119030       _iswctype                  005aa030 f   LIBCMTD:iswctype.obj
 0002:001190e0       _is_wctype                 005aa0e0 f   LIBCMTD:iswctype.obj
 0002:00119100       __ld12tod                  005aa100 f   LIBCMTD:_intrncvt_.obj
 0002:00119130       __ld12cvt                  005aa130 f i LIBCMTD:_intrncvt_.obj
 0002:00119410       __RoundMan                 005aa410 f i LIBCMTD:_intrncvt_.obj
 0002:00119520       __ZeroTail                 005aa520 f i LIBCMTD:_intrncvt_.obj
 0002:001195d0       __IncMan                   005aa5d0 f i LIBCMTD:_intrncvt_.obj
 0002:001196b0       ___addl                    005aa6b0 f i LIBCMTD:_intrncvt_.obj
 0002:00119700       __CopyMan                  005aa700 f i LIBCMTD:_intrncvt_.obj
 0002:00119770       __FillZeroMan              005aa770 f i LIBCMTD:_intrncvt_.obj
 0002:001197b0       __IsZeroMan                005aa7b0 f i LIBCMTD:_intrncvt_.obj
 0002:00119800       __ShrMan                   005aa800 f i LIBCMTD:_intrncvt_.obj
 0002:00119930       __ld12tof                  005aa930 f   LIBCMTD:_intrncvt_.obj
 0002:00119960       __ld12told                 005aa960 f   LIBCMTD:_intrncvt_.obj
 0002:00119a40       ___strgtold12_l            005aaa40 f   LIBCMTD:_strgtold_.obj
 0002:0011a7a0       ___multtenpow12            005ab7a0 f i LIBCMTD:_strgtold_.obj
 0002:0011a8b0       ___ld12mul                 005ab8b0 f i LIBCMTD:_strgtold_.obj
 0002:0011adb0       ___shl_12                  005abdb0 f i LIBCMTD:_strgtold_.obj
 0002:0011ae30       ___shr_12                  005abe30 f i LIBCMTD:_strgtold_.obj
 0002:0011aeb0       ___STRINGTOLD_L            005abeb0 f   LIBCMTD:_strgtold_.obj
 0002:0011af40       _fputwc                    005abf40 f   LIBCMTD:fputwc.obj
 0002:0011b080       __fputwc_nolock            005ac080 f   LIBCMTD:fputwc.obj
 0002:0011b420       _putwc                     005ac420 f   LIBCMTD:fputwc.obj
 0002:0011b440       __statusfp2                005ac440 f   LIBCMTD:_ieee87_.obj
 0002:0011b490       __statusfp                 005ac490 f   LIBCMTD:_ieee87_.obj
 0002:0011b4f0       __clearfp                  005ac4f0 f   LIBCMTD:_ieee87_.obj
 0002:0011b550       ___control87_2             005ac550 f   LIBCMTD:_ieee87_.obj
 0002:0011b620       __controlfp                005ac620 f   LIBCMTD:_ieee87_.obj
 0002:0011b650       __control87                005ac650 f i LIBCMTD:_ieee87_.obj
 0002:0011b730       __set_controlfp            005ac730 f   LIBCMTD:_ieee87_.obj
 0002:0011b7e0       __fpreset                  005ac7e0 f   LIBCMTD:_ieee87_.obj
 0002:0011c180       _$I10_OUTPUT               005ad180 f   LIBCMTD:_x10fout_.obj
 0002:0011c890       ___add_12                  005ad890 f i LIBCMTD:_x10fout_.obj
 0002:0011c970       __read                     005ad970 f   LIBCMTD:read.obj
 0002:0011ccb0       __read_nolock              005adcb0 f   LIBCMTD:read.obj
 0002:0011dfd0       __chsize_s                 005aefd0 f   LIBCMTD:chsize.obj
 0002:0011e310       __chsize_nolock            005af310 f   LIBCMTD:chsize.obj
 0002:0011e640       __chsize                   005af640 f   LIBCMTD:chsize.obj
 0002:0011e670       __lseek                    005af670 f   LIBCMTD:lseek.obj
 0002:0011e920       __lseek_nolock             005af920 f   LIBCMTD:lseek.obj
 0002:0011ea30       __setmode                  005afa30 f   LIBCMTD:setmode.obj
 0002:0011ed60       __setmode_nolock           005afd60 f   LIBCMTD:setmode.obj
 0002:0011f060       __set_fmode                005b0060 f   LIBCMTD:setmode.obj
 0002:0011f140       __get_fmode                005b0140 f   LIBCMTD:setmode.obj
 0002:0011f1e0       _wcstol                    005b01e0 f   LIBCMTD:wcstol.obj
 0002:0011f780       __wcstol_l                 005b0780 f   LIBCMTD:wcstol.obj
 0002:0011f7b0       _wcstoul                   005b07b0 f   LIBCMTD:wcstol.obj
 0002:0011f810       __wcstoul_l                005b0810 f   LIBCMTD:wcstol.obj
 0002:0011f840       ___initconin               005b0840 f   LIBCMTD:initcon.obj
 0002:0011f870       ___initconout              005b0870 f   LIBCMTD:initcon.obj
 0002:0011f8a0       ___termcon                 005b08a0 f   LIBCMTD:initcon.obj
 0002:0011f900       __toupper                  005b0900 f   LIBCMTD:toupper.obj
 0002:0011f910       __toupper_l                005b0910 f   LIBCMTD:toupper.obj
 0002:0011fb60       _toupper                   005b0b60 f   LIBCMTD:toupper.obj
 0002:0011fbc0       ___crtGetStringTypeW       005b0bc0 f   LIBCMTD:w_str.obj
 0002:0011fc60       ___mtold12                 005b0c60 f   LIBCMTD:_mantold_.obj
 0002:0011fe10       __flswbuf                  005b0e10 f   LIBCMTD:_flswbuf.obj
 0002:001201a0       __wchartodigit             005b11a0 f   LIBCMTD:wchtodig.obj
 0002:0012058a       _GetAdaptersInfo@8         005b158a f   iphlpapi:IPHLPAPI.DLL
 0002:00120590       _ImmAssociateContext@8     005b1590 f   imm32:IMM32.dll
 0002:00120596       _WSAGetLastError@0         005b1596 f   wsock32:WSOCK32.dll
 0002:0012059c       _select@20                 005b159c f   wsock32:WSOCK32.dll
 0002:001205a2       _QueryPerformanceFrequency@4 005b15a2 f   kernel32:KERNEL32.dll
 0002:001205a8       _QueryPerformanceCounter@4 005b15a8 f   kernel32:KERNEL32.dll
 0002:001205ae       _InterlockedIncrement@4    005b15ae f   kernel32:KERNEL32.dll
 0002:001205b4       _InterlockedDecrement@4    005b15b4 f   kernel32:KERNEL32.dll
 0002:001205ba       _InterlockedExchange@8     005b15ba f   kernel32:KERNEL32.dll
 0002:001205c0       _MultiByteToWideChar@24    005b15c0 f   kernel32:KERNEL32.dll
 0002:001205c6       _InterlockedCompareExchange@12 005b15c6 f   kernel32:KERNEL32.dll
 0002:001205cc       _RtlUnwind@16              005b15cc f   kernel32:KERNEL32.dll
 0002:001205d2       _RaiseException@16         005b15d2 f   kernel32:KERNEL32.dll
 0002:001205d8       _TerminateProcess@8        005b15d8 f   kernel32:KERNEL32.dll
 0002:001205de       _UnhandledExceptionFilter@4 005b15de f   kernel32:KERNEL32.dll
 0002:001205e4       _SetUnhandledExceptionFilter@4 005b15e4 f   kernel32:KERNEL32.dll
 0002:001205ea       _IsDebuggerPresent@0       005b15ea f   kernel32:KERNEL32.dll
 0002:001205f0       _GetModuleFileNameW@12     005b15f0 f   kernel32:KERNEL32.dll
 0002:001205f6       _WriteConsoleW@20          005b15f6 f   kernel32:KERNEL32.dll
 0002:001205fc       _GetFileType@4             005b15fc f   kernel32:KERNEL32.dll
 0002:00120602       _GetSystemTimeAsFileTime@4 005b1602 f   kernel32:KERNEL32.dll
 0002:00120608       _GetLocalTime@4            005b1608 f   kernel32:KERNEL32.dll
 0002:0012060e       _GetTimeZoneInformation@4  005b160e f   kernel32:KERNEL32.dll
 0002:00120614       _SetStdHandle@8            005b1614 f   kernel32:KERNEL32.dll
 0002:0012061a       _GetFileAttributesA@4      005b161a f   kernel32:KERNEL32.dll
 0002:00120620       _GetFullPathNameA@16       005b1620 f   kernel32:KERNEL32.dll
 0002:00120626       _GetModuleHandleW@4        005b1626 f   kernel32:KERNEL32.dll
 0002:0012062c       _ExitProcess@4             005b162c f   kernel32:KERNEL32.dll
 0002:00120632       _GetCommandLineA@0         005b1632 f   kernel32:KERNEL32.dll
 0002:00120638       _GetStartupInfoA@4         005b1638 f   kernel32:KERNEL32.dll
 0002:0012063e       _ExitThread@4              005b163e f   kernel32:KERNEL32.dll
 0002:00120644       _HeapValidate@12           005b1644 f   kernel32:KERNEL32.dll
 0002:0012064a       _IsBadReadPtr@8            005b164a f   kernel32:KERNEL32.dll
 0002:00120650       _LCMapStringA@24           005b1650 f   kernel32:KERNEL32.dll
 0002:00120656       _LCMapStringW@24           005b1656 f   kernel32:KERNEL32.dll
 0002:0012065c       _GetCPInfo@8               005b165c f   kernel32:KERNEL32.dll
 0002:00120662       _FatalAppExitA@8           005b1662 f   kernel32:KERNEL32.dll
 0002:00120668       _TlsFree@4                 005b1668 f   kernel32:KERNEL32.dll
 0002:0012066e       _SetLastError@4            005b166e f   kernel32:KERNEL32.dll
 0002:00120674       _DebugBreak@0              005b1674 f   kernel32:KERNEL32.dll
 0002:0012067a       _OutputDebugStringW@4      005b167a f   kernel32:KERNEL32.dll
 0002:00120680       _SetConsoleCtrlHandler@8   005b1680 f   kernel32:KERNEL32.dll
 0002:00120686       _LoadLibraryW@4            005b1686 f   kernel32:KERNEL32.dll
 0002:0012068c       _GetACP@0                  005b168c f   kernel32:KERNEL32.dll
 0002:00120692       _GetOEMCP@0                005b1692 f   kernel32:KERNEL32.dll
 0002:00120698       _IsValidCodePage@4         005b1698 f   kernel32:KERNEL32.dll
 0002:0012069e       _SetHandleCount@4          005b169e f   kernel32:KERNEL32.dll
 0002:001206a4       _GetConsoleCP@0            005b16a4 f   kernel32:KERNEL32.dll
 0002:001206aa       _GetConsoleMode@8          005b16aa f   kernel32:KERNEL32.dll
 0002:001206b0       _InitializeCriticalSectionAndSpinCount@8 005b16b0 f   kernel32:KERNEL32.dll
 0002:001206b6       _GetTickCount@0            005b16b6 f   kernel32:KERNEL32.dll
 0002:001206bc       _GetCurrentProcessId@0     005b16bc f   kernel32:KERNEL32.dll
 0002:001206c2       _FreeEnvironmentStringsA@4 005b16c2 f   kernel32:KERNEL32.dll
 0002:001206c8       _GetEnvironmentStrings@0   005b16c8 f   kernel32:KERNEL32.dll
 0002:001206ce       _FreeEnvironmentStringsW@4 005b16ce f   kernel32:KERNEL32.dll
 0002:001206d4       _GetEnvironmentStringsW@0  005b16d4 f   kernel32:KERNEL32.dll
 0002:001206da       _HeapDestroy@4             005b16da f   kernel32:KERNEL32.dll
 0002:001206e0       _HeapCreate@12             005b16e0 f   kernel32:KERNEL32.dll
 0002:001206e6       _HeapFree@12               005b16e6 f   kernel32:KERNEL32.dll
 0002:001206ec       _VirtualFree@12            005b16ec f   kernel32:KERNEL32.dll
 0002:001206f2       _HeapAlloc@12              005b16f2 f   kernel32:KERNEL32.dll
 0002:001206f8       _HeapSize@12               005b16f8 f   kernel32:KERNEL32.dll
 0002:001206fe       _HeapReAlloc@16            005b16fe f   kernel32:KERNEL32.dll
 0002:00120704       _VirtualAlloc@16           005b1704 f   kernel32:KERNEL32.dll
 0002:0012070a       _GetTimeFormatA@24         005b170a f   kernel32:KERNEL32.dll
 0002:00120710       _GetDateFormatA@24         005b1710 f   kernel32:KERNEL32.dll
 0002:00120716       _GetStringTypeA@20         005b1716 f   kernel32:KERNEL32.dll
 0002:0012071c       _GetStringTypeW@16         005b171c f   kernel32:KERNEL32.dll
 0002:00120722       _GetLocaleInfoA@16         005b1722 f   kernel32:KERNEL32.dll
 0002:00120728       _IsValidLocale@8           005b1728 f   kernel32:KERNEL32.dll
 0002:0012072e       _EnumSystemLocalesA@8      005b172e f   kernel32:KERNEL32.dll
 0002:00120734       _GetUserDefaultLCID@0      005b1734 f   kernel32:KERNEL32.dll
 0002:0012073a       _GetLocaleInfoW@16         005b173a f   kernel32:KERNEL32.dll
 0002:00120740       _CompareStringA@24         005b1740 f   kernel32:KERNEL32.dll
 0002:00120746       _CompareStringW@24         005b1746 f   kernel32:KERNEL32.dll
 0002:0012074c       _SetEnvironmentVariableA@8 005b174c f   kernel32:KERNEL32.dll
 0002:00120752       _GetConsoleOutputCP@0      005b1752 f   kernel32:KERNEL32.dll
 0002:00120758       _GetCurrentDirectoryA@8    005b1758 f   kernel32:KERNEL32.dll
 0002:0012075e       _SetCurrentDirectoryA@4    005b175e f   kernel32:KERNEL32.dll
 0002:00120764       _GetProcessHeap@0          005b1764 f   kernel32:KERNEL32.dll
 0002:0012076a       _VirtualQuery@12           005b176a f   kernel32:KERNEL32.dll
 0003:00000000       ___xc_a                    005bb000     LIBCMTD:crt0init.obj
 0003:00000420       ___xc_z                    005bb420     LIBCMTD:crt0init.obj
 0003:00000524       ___xi_a                    005bb524     LIBCMTD:crt0init.obj
 0003:00000948       ___xi_z                    005bb948     LIBCMTD:crt0init.obj
 0003:00000a4c       ___xp_a                    005bba4c     LIBCMTD:crt0init.obj
 0003:00000d60       ___xp_z                    005bbd60     LIBCMTD:crt0init.obj
 0003:00000e64       ___xt_a                    005bbe64     LIBCMTD:crt0init.obj
 0003:00000f68       ___xt_z                    005bbf68     LIBCMTD:crt0init.obj
 0003:000010b8       ??_7AccelKeys@@6B@         005bc0b8     AccelKeys.obj
 0003:000011b8       ?collate@?$_Locbase@H@std@@2HB 005bc1b8     AuthDialog.obj
 0003:000011bc       ?ctype@?$_Locbase@H@std@@2HB 005bc1bc     AuthDialog.obj
 0003:000011c0       ?monetary@?$_Locbase@H@std@@2HB 005bc1c0     AuthDialog.obj
 0003:000011c4       ?numeric@?$_Locbase@H@std@@2HB 005bc1c4     AuthDialog.obj
 0003:000011c8       ?time@?$_Locbase@H@std@@2HB 005bc1c8     AuthDialog.obj
 0003:000011cc       ?messages@?$_Locbase@H@std@@2HB 005bc1cc     AuthDialog.obj
 0003:000011d0       ?all@?$_Locbase@H@std@@2HB 005bc1d0     AuthDialog.obj
 0003:000011d4       ?none@?$_Locbase@H@std@@2HB 005bc1d4     AuthDialog.obj
 0003:000011d8       ?table_size@?$ctype@D@std@@2IB 005bc1d8     AuthDialog.obj
 0003:000011dc       ?skipws@?$_Iosb@H@std@@2W4_Fmtflags@12@B 005bc1dc     AuthDialog.obj
 0003:000011e0       ?unitbuf@?$_Iosb@H@std@@2W4_Fmtflags@12@B 005bc1e0     AuthDialog.obj
 0003:000011e4       ?uppercase@?$_Iosb@H@std@@2W4_Fmtflags@12@B 005bc1e4     AuthDialog.obj
 0003:000011e8       ?showbase@?$_Iosb@H@std@@2W4_Fmtflags@12@B 005bc1e8     AuthDialog.obj
 0003:000011ec       ?showpoint@?$_Iosb@H@std@@2W4_Fmtflags@12@B 005bc1ec     AuthDialog.obj
 0003:000011f0       ?showpos@?$_Iosb@H@std@@2W4_Fmtflags@12@B 005bc1f0     AuthDialog.obj
 0003:000011f4       ?left@?$_Iosb@H@std@@2W4_Fmtflags@12@B 005bc1f4     AuthDialog.obj
 0003:000011f8       ?right@?$_Iosb@H@std@@2W4_Fmtflags@12@B 005bc1f8     AuthDialog.obj
 0003:000011fc       ?internal@?$_Iosb@H@std@@2W4_Fmtflags@12@B 005bc1fc     AuthDialog.obj
 0003:00001200       ?dec@?$_Iosb@H@std@@2W4_Fmtflags@12@B 005bc200     AuthDialog.obj
 0003:00001204       ?oct@?$_Iosb@H@std@@2W4_Fmtflags@12@B 005bc204     AuthDialog.obj
 0003:00001208       ?hex@?$_Iosb@H@std@@2W4_Fmtflags@12@B 005bc208     AuthDialog.obj
 0003:0000120c       ?scientific@?$_Iosb@H@std@@2W4_Fmtflags@12@B 005bc20c     AuthDialog.obj
 0003:00001210       ?fixed@?$_Iosb@H@std@@2W4_Fmtflags@12@B 005bc210     AuthDialog.obj
 0003:00001214       ?hexfloat@?$_Iosb@H@std@@2W4_Fmtflags@12@B 005bc214     AuthDialog.obj
 0003:00001218       ?boolalpha@?$_Iosb@H@std@@2W4_Fmtflags@12@B 005bc218     AuthDialog.obj
 0003:0000121c       ?_Stdio@?$_Iosb@H@std@@2W4_Fmtflags@12@B 005bc21c     AuthDialog.obj
 0003:00001220       ?adjustfield@?$_Iosb@H@std@@2W4_Fmtflags@12@B 005bc220     AuthDialog.obj
 0003:00001224       ?basefield@?$_Iosb@H@std@@2W4_Fmtflags@12@B 005bc224     AuthDialog.obj
 0003:00001228       ?floatfield@?$_Iosb@H@std@@2W4_Fmtflags@12@B 005bc228     AuthDialog.obj
 0003:0000122c       ?goodbit@?$_Iosb@H@std@@2W4_Iostate@12@B 005bc22c     AuthDialog.obj
 0003:00001230       ?eofbit@?$_Iosb@H@std@@2W4_Iostate@12@B 005bc230     AuthDialog.obj
 0003:00001234       ?failbit@?$_Iosb@H@std@@2W4_Iostate@12@B 005bc234     AuthDialog.obj
 0003:00001238       ?badbit@?$_Iosb@H@std@@2W4_Iostate@12@B 005bc238     AuthDialog.obj
 0003:0000123c       ?_Hardfail@?$_Iosb@H@std@@2W4_Iostate@12@B 005bc23c     AuthDialog.obj
 0003:00001240       ?in@?$_Iosb@H@std@@2W4_Openmode@12@B 005bc240     AuthDialog.obj
 0003:00001244       ?out@?$_Iosb@H@std@@2W4_Openmode@12@B 005bc244     AuthDialog.obj
 0003:00001248       ?ate@?$_Iosb@H@std@@2W4_Openmode@12@B 005bc248     AuthDialog.obj
 0003:0000124c       ?app@?$_Iosb@H@std@@2W4_Openmode@12@B 005bc24c     AuthDialog.obj
 0003:00001250       ?trunc@?$_Iosb@H@std@@2W4_Openmode@12@B 005bc250     AuthDialog.obj
 0003:00001254       ?_Nocreate@?$_Iosb@H@std@@2W4_Openmode@12@B 005bc254     AuthDialog.obj
 0003:00001258       ?_Noreplace@?$_Iosb@H@std@@2W4_Openmode@12@B 005bc258     AuthDialog.obj
 0003:0000125c       ?binary@?$_Iosb@H@std@@2W4_Openmode@12@B 005bc25c     AuthDialog.obj
 0003:00001260       ?beg@?$_Iosb@H@std@@2W4_Seekdir@12@B 005bc260     AuthDialog.obj
 0003:00001264       ?cur@?$_Iosb@H@std@@2W4_Seekdir@12@B 005bc264     AuthDialog.obj
 0003:00001268       ?end@?$_Iosb@H@std@@2W4_Seekdir@12@B 005bc268     AuthDialog.obj
 0003:00001270       ??_7AuthDialog@@6B@        005bc270     AuthDialog.obj
 0003:00001278       ??_C@_0DB@DFCICIN@D?3?2Microsoft?5Visual?5Studio?59?40?2V@ 005bc278     AuthDialog.obj
 0003:000012b8       ??_7bad_alloc@std@@6B@     005bc2b8     AuthDialog.obj
 0003:000012c8       ??_7?$basic_ios@DU?$char_traits@D@std@@@std@@6B@ 005bc2c8     AuthDialog.obj
 0003:000012d4       ??_7ios_base@std@@6B@      005bc2d4     AuthDialog.obj
 0003:000012e0       ??_7?$basic_stringstream@DU?$char_traits@D@std@@V?$allocator@D@2@@std@@6B@ 005bc2e0     AuthDialog.obj
 0003:000012e8       ??_8?$basic_stringstream@DU?$char_traits@D@std@@V?$allocator@D@2@@std@@7B?$basic_ostream@DU?$char_traits@D@std@@@1@@ 005bc2e8     AuthDialog.obj
 0003:000012f4       ??_8?$basic_stringstream@DU?$char_traits@D@std@@V?$allocator@D@2@@std@@7B?$basic_istream@DU?$char_traits@D@std@@@1@@ 005bc2f4     AuthDialog.obj
 0003:00001304       ??_7?$basic_iostream@DU?$char_traits@D@std@@@std@@6B@ 005bc304     AuthDialog.obj
 0003:00001310       ??_7?$basic_ostream@DU?$char_traits@D@std@@@std@@6B@ 005bc310     AuthDialog.obj
 0003:0000131c       ??_7?$basic_istream@DU?$char_traits@D@std@@@std@@6B@ 005bc31c     AuthDialog.obj
 0003:00001328       ??_7?$basic_stringbuf@DU?$char_traits@D@std@@V?$allocator@D@2@@std@@6B@ 005bc328     AuthDialog.obj
 0003:00001370       ??_7?$basic_streambuf@DU?$char_traits@D@std@@@std@@6B@ 005bc370     AuthDialog.obj
 0003:000013b4       ??_C@_0BF@OOHOMBOF@ios_base?3?3eofbit?5set?$AA@ 005bc3b4     AuthDialog.obj
 0003:000013d0       ??_C@_0BG@FMKFHCIL@ios_base?3?3failbit?5set?$AA@ 005bc3d0     AuthDialog.obj
 0003:000013ec       ??_C@_0BF@PHHKMMFD@ios_base?3?3badbit?5set?$AA@ 005bc3ec     AuthDialog.obj
 0003:0000140c       ??_7runtime_error@std@@6B@ 005bc40c     AuthDialog.obj
 0003:0000141c       ??_7failure@ios_base@std@@6B@ 005bc41c     AuthDialog.obj
 0003:00001428       ?npos@?$basic_string@DU?$char_traits@D@std@@V?$allocator@D@2@@std@@2IB 005bc428     AuthDialog.obj
 0003:00001430       ??_C@_1GE@HHJJGGMG@?$AAD?$AA?3?$AA?2?$AAM?$AAi?$AAc?$AAr?$AAo?$AAs?$AAo?$AAf?$AAt?$AA?5?$AAV?$AAi?$AAs?$AAu?$AAa?$AAl?$AA?5?$AAS?$AAt?$AAu?$AAd?$AAi?$AAo?$AA?5?$AA9?$AA?4?$AA0?$AA?2?$AAV@ 005bc430     AuthDialog.obj
 0003:000014a8       ??_8?$basic_iostream@DU?$char_traits@D@std@@@std@@7B?$basic_ostream@DU?$char_traits@D@std@@@1@@ 005bc4a8     AuthDialog.obj
 0003:000014b4       ??_8?$basic_iostream@DU?$char_traits@D@std@@@std@@7B?$basic_istream@DU?$char_traits@D@std@@@1@@ 005bc4b4     AuthDialog.obj
 0003:000014c0       ?_Stz@?$fpos@H@std@@0HB    005bc4c0     AuthDialog.obj
 0003:000014c4       ??_8?$basic_ostream@DU?$char_traits@D@std@@@std@@7B@ 005bc4c4     AuthDialog.obj
 0003:000014d0       ??_8?$basic_istream@DU?$char_traits@D@std@@@std@@7B@ 005bc4d0     AuthDialog.obj
 0003:000014dc       ??_C@_0DE@KAIBPMMF@D?3?2Microsoft?5Visual?5Studio?59?40?2V@ 005bc4dc     AuthDialog.obj
 0003:0000151c       ??_C@_0DD@MDPCMBFM@D?3?2Microsoft?5Visual?5Studio?59?40?2V@ 005bc51c     AuthDialog.obj
 0003:0000155c       ??_C@_1CK@EOPGIILJ@?$AAi?$AAn?$AAv?$AAa?$AAl?$AAi?$AAd?$AA?5?$AAn?$AAu?$AAl?$AAl?$AA?5?$AAp?$AAo?$AAi?$AAn?$AAt?$AAe?$AAr?$AA?$AA@ 005bc55c     AuthDialog.obj
 0003:00001590       ??_C@_08EPJLHIJG@bad?5cast?$AA@ 005bc590     AuthDialog.obj
 0003:0000159c       ??_C@_0DC@PHLKFJGF@D?3?2Microsoft?5Visual?5Studio?59?40?2V@ 005bc59c     AuthDialog.obj
 0003:000015dc       ??_7?$ctype@D@std@@6B@     005bc5dc     AuthDialog.obj
 0003:00001618       ??_7ctype_base@std@@6B@    005bc618     AuthDialog.obj
 0003:00001624       ??_7facet@locale@std@@6B@  005bc624     AuthDialog.obj
 0003:00001630       ??_C@_1GE@MGHNDPEN@?$AAD?$AA?3?$AA?2?$AAM?$AAi?$AAc?$AAr?$AAo?$AAs?$AAo?$AAf?$AAt?$AA?5?$AAV?$AAi?$AAs?$AAu?$AAa?$AAl?$AA?5?$AAS?$AAt?$AAu?$AAd?$AAi?$AAo?$AA?5?$AA9?$AA?4?$AA0?$AA?2?$AAV@ 005bc630     AuthDialog.obj
 0003:000016a8       ??_C@_1BO@MEPPHOO@?$AA?$CC?$AAo?$AAu?$AAt?$AA?5?$AAo?$AAf?$AA?5?$AAr?$AAa?$AAn?$AAg?$AAe?$AA?$CC?$AA?$AA@ 005bc6a8     AuthDialog.obj
 0003:000016cc       ??_C@_1DM@FBIJBEHP@?$AAs?$AAt?$AAd?$AA?3?$AA?3?$AAc?$AAt?$AAy?$AAp?$AAe?$AA?$DM?$AAc?$AAh?$AAa?$AAr?$AA?$DO?$AA?3?$AA?3?$AA_?$AAD?$AAo?$AA_?$AAw?$AAi?$AAd?$AAe?$AAn?$AA_?$AAs?$AA?$AA@ 005bc6cc     AuthDialog.obj
 0003:00001718       ??_C@_1FM@PEAIHFJH@?$AA?$CI?$AA?$CC?$AA_?$AAD?$AAe?$AAs?$AAt?$AA_?$AAs?$AAi?$AAz?$AAe?$AA?5?$AA?$DO?$AA?$DN?$AA?5?$AA?$CI?$AAs?$AAi?$AAz?$AAe?$AA_?$AAt?$AA?$CJ?$AA?$CI?$AA_?$AAL?$AAa?$AAs?$AAt?$AA?5?$AA?9@ 005bc718     AuthDialog.obj
 0003:00001788       ??_C@_1DO@DNILJADM@?$AAs?$AAt?$AAd?$AA?3?$AA?3?$AAc?$AAt?$AAy?$AAp?$AAe?$AA?$DM?$AAc?$AAh?$AAa?$AAr?$AA?$DO?$AA?3?$AA?3?$AA_?$AAD?$AAo?$AA_?$AAn?$AAa?$AAr?$AAr?$AAo?$AAw?$AA_?$AAs?$AA?$AA@ 005bc788     AuthDialog.obj
 0003:000017d4       ??_C@_0DC@HEPHFLME@D?3?2Microsoft?5Visual?5Studio?59?40?2V@ 005bc7d4     AuthDialog.obj
 0003:00001814       ??_7?$num_put@DV?$ostreambuf_iterator@DU?$char_traits@D@std@@@std@@@std@@6B@ 005bc814     AuthDialog.obj
 0003:00001840       ??_C@_1GE@PODAFGFN@?$AAD?$AA?3?$AA?2?$AAM?$AAi?$AAc?$AAr?$AAo?$AAs?$AAo?$AAf?$AAt?$AA?5?$AAV?$AAi?$AAs?$AAu?$AAa?$AAl?$AA?5?$AAS?$AAt?$AAu?$AAd?$AAi?$AAo?$AA?5?$AA9?$AA?4?$AA0?$AA?2?$AAV@ 005bc840     AuthDialog.obj
 0003:000018b8       ??_C@_02EAOCLKAK@ld?$AA@   005bc8b8     AuthDialog.obj
 0003:000018bc       ??_C@_02BDDLJJBK@lu?$AA@   005bc8bc     AuthDialog.obj
 0003:000018c0       ??_C@_02HIKPPMOK@Ld?$AA@   005bc8c0     AuthDialog.obj
 0003:000018c4       ??_C@_02CLHGNPPK@Lu?$AA@   005bc8c4     AuthDialog.obj
 0003:000018c8       __real@38aa95a5b7f87a0f    005bc8c8     AuthDialog.obj
 0003:000018d8       __real@4202a05f20000000    005bc8d8     AuthDialog.obj
 0003:000018e8       __real@4733426172c74d82    005bc8e8     AuthDialog.obj
 0003:000018f8       __real@0000000000000000    005bc8f8     AuthDialog.obj
 0003:00001908       __real@3fe0000000000000    005bc908     AuthDialog.obj
 0003:00001914       ??_C@_02BBAHNLBA@?$CFp?$AA@ 005bc914     AuthDialog.obj
 0003:00001918       ??_C@_01KGKMHCOC@e?$AA@    005bc918     AuthDialog.obj
 0003:0000191c       ??_C@_01DDCIFGEA@E?$AA@    005bc91c     AuthDialog.obj
 0003:00001920       ??_C@_1LO@NPPEKPAI@?$AAs?$AAt?$AAd?$AA?3?$AA?3?$AAb?$AAa?$AAs?$AAi?$AAc?$AA_?$AAs?$AAt?$AAr?$AAi?$AAn?$AAg?$AA?$DM?$AAc?$AAh?$AAa?$AAr?$AA?0?$AAs?$AAt?$AAr?$AAu?$AAc?$AAt?$AA?5?$AAs?$AAt@ 005bc920     AuthDialog.obj
 0003:00001a08       ??_C@_1FG@CMLDHNON@?$AA?$CI?$AA?$CC?$AAS?$AAt?$AAa?$AAn?$AAd?$AAa?$AAr?$AAd?$AA?5?$AAC?$AA?$CL?$AA?$CL?$AA?5?$AAL?$AAi?$AAb?$AAr?$AAa?$AAr?$AAi?$AAe?$AAs?$AA?5?$AAO?$AAu?$AAt?$AA?5?$AAo?$AAf?$AA?5@ 005bca08     AuthDialog.obj
 0003:00001a70       ??_C@_1DM@GMPLOCPK@?$AAs?$AAt?$AAr?$AAi?$AAn?$AAg?$AA?5?$AAs?$AAu?$AAb?$AAs?$AAc?$AAr?$AAi?$AAp?$AAt?$AA?5?$AAo?$AAu?$AAt?$AA?5?$AAo?$AAf?$AA?5?$AAr?$AAa?$AAn?$AAg?$AAe?$AA?$AA@ 005bca70     AuthDialog.obj
 0003:00001abc       ??_7?$numpunct@D@std@@6B@  005bcabc     AuthDialog.obj
 0003:00001ad9       ??_C@_00CNPNBAHC@?$AA@     005bcad9     AuthDialog.obj
 0003:00001adc       ??_C@_05LAPONLG@false?$AA@ 005bcadc     AuthDialog.obj
 0003:00001ae4       ??_C@_04LOAJBDKD@true?$AA@ 005bcae4     AuthDialog.obj
 0003:00001aec       ??_C@_1CO@DGLIKNHI@?$AAi?$AAn?$AAv?$AAa?$AAl?$AAi?$AAd?$AA?5?$AAi?$AAt?$AAe?$AAr?$AAa?$AAt?$AAo?$AAr?$AA?5?$AAr?$AAa?$AAn?$AAg?$AAe?$AA?$AA@ 005bcaec     AuthDialog.obj
 0003:00001b9c       ?SRCACIC_BLOCK_SIZE@CACIC_Crypt@@0IB 005bcb9c     CACIC_Crypt.obj
 0003:00001ba0       ?SRCACIC_KEY_SIZE@CACIC_Crypt@@0IB 005bcba0     CACIC_Crypt.obj
 0003:00001ba4       ?SRCACIC_KEY@CACIC_Crypt@@0QBDB 005bcba4     CACIC_Crypt.obj
 0003:00001bb8       ?SRCACIC_IV@CACIC_Crypt@@0QBDB 005bcbb8     CACIC_Crypt.obj
 0003:00001bd8       __real@4030000000000000    005bcbd8     CACIC_Crypt.obj
 0003:00001dbc       ??_C@_1DC@POOIKBAO@?$AAI?$AAT?$AAE?$AAR?$AAA?$AAT?$AAO?$AAR?$AA?5?$AAL?$AAI?$AAS?$AAT?$AA?5?$AAC?$AAO?$AAR?$AAR?$AAU?$AAP?$AAT?$AAE?$AAD?$AA?$CB?$AA?$AA@ 005bcdbc     CACIC_Utils.obj
 0003:00001df8       ??_C@_1GG@GIPDLOFE@?$AAD?$AA?3?$AA?2?$AAM?$AAi?$AAc?$AAr?$AAo?$AAs?$AAo?$AAf?$AAt?$AA?5?$AAV?$AAi?$AAs?$AAu?$AAa?$AAl?$AA?5?$AAS?$AAt?$AAu?$AAd?$AAi?$AAo?$AA?5?$AA9?$AA?4?$AA0?$AA?2?$AAV@ 005bcdf8     CACIC_Utils.obj
 0003:00001e74       ??_C@_1CG@JNLFBNGN@?$AA?$CC?$AAi?$AAn?$AAv?$AAa?$AAl?$AAi?$AAd?$AA?5?$AAa?$AAr?$AAg?$AAu?$AAm?$AAe?$AAn?$AAt?$AA?$CC?$AA?$AA@ 005bce74     CACIC_Utils.obj
 0003:00001ea8       ??_C@_1OI@PNIDODDN@?$AAs?$AAt?$AAd?$AA?3?$AA?3?$AA_?$AAS?$AAt?$AAr?$AAi?$AAn?$AAg?$AA_?$AAc?$AAo?$AAn?$AAs?$AAt?$AA_?$AAi?$AAt?$AAe?$AAr?$AAa?$AAt?$AAo?$AAr?$AA?$DM?$AAc?$AAh?$AAa?$AAr@ 005bcea8     CACIC_Utils.obj
 0003:00001fc0       ??_C@_1BEO@GFHFALBP@?$AA?$CI?$AA?$CC?$AA_?$AAP?$AAs?$AAt?$AAr?$AAi?$AAn?$AAg?$AA?5?$AA?$DN?$AA?$DN?$AA?5?$AAN?$AAU?$AAL?$AAL?$AA?5?$AA?$HM?$AA?$HM?$AA?5?$AA_?$AAP?$AAt?$AAr?$AA?5?$AA?$CB?$AA?$DN?$AA?5?$AAN?$AAU@ 005bcfc0     CACIC_Utils.obj
 0003:00002150       ??_C@_1MK@BODNBKIO@?$AAs?$AAt?$AAd?$AA?3?$AA?3?$AA_?$AAS?$AAt?$AAr?$AAi?$AAn?$AAg?$AA_?$AAc?$AAo?$AAn?$AAs?$AAt?$AA_?$AAi?$AAt?$AAe?$AAr?$AAa?$AAt?$AAo?$AAr?$AA?$DM?$AAc?$AAh?$AAa?$AAr@ 005bd150     CACIC_Utils.obj
 0003:00002248       ??_C@_1FO@OCPOOAIA@?$AA?$CI?$AA?$CC?$AAS?$AAt?$AAa?$AAn?$AAd?$AAa?$AAr?$AAd?$AA?5?$AAC?$AA?$CL?$AA?$CL?$AA?5?$AAL?$AAi?$AAb?$AAr?$AAa?$AAr?$AAi?$AAe?$AAs?$AA?5?$AAI?$AAn?$AAv?$AAa?$AAl?$AAi?$AAd@ 005bd248     CACIC_Utils.obj
 0003:000022b8       ??_C@_1DM@KDEKGMPF@?$AAs?$AAt?$AAr?$AAi?$AAn?$AAg?$AA?5?$AAi?$AAt?$AAe?$AAr?$AAa?$AAt?$AAo?$AAr?$AAs?$AA?5?$AAi?$AAn?$AAc?$AAo?$AAm?$AAp?$AAa?$AAt?$AAi?$AAb?$AAl?$AAe?$AA?$AA@ 005bd2b8     CACIC_Utils.obj
 0003:00002304       ??_7?$num_get@DV?$istreambuf_iterator@DU?$char_traits@D@std@@@std@@@std@@6B@ 005bd304     CACIC_Utils.obj
 0003:00002340       ??_C@_0BH@HHDGIIFB@0123456789abcdefABCDEF?$AA@ 005bd340     CACIC_Utils.obj
 0003:00002360       ??_C@_1FE@NIBPPHHA@?$AAi?$AAs?$AAt?$AAr?$AAe?$AAa?$AAm?$AAb?$AAu?$AAf?$AA_?$AAi?$AAt?$AAe?$AAr?$AAa?$AAt?$AAo?$AAr?$AA?5?$AAi?$AAs?$AA?5?$AAn?$AAo?$AAt?$AA?5?$AAd?$AAe?$AAr?$AAe?$AAf@ 005bd360     CACIC_Utils.obj
 0003:000023c8       ??_C@_1GI@BCFFEKOE@?$AAD?$AA?3?$AA?2?$AAM?$AAi?$AAc?$AAr?$AAo?$AAs?$AAo?$AAf?$AAt?$AA?5?$AAV?$AAi?$AAs?$AAu?$AAa?$AAl?$AA?5?$AAS?$AAt?$AAu?$AAd?$AAi?$AAo?$AA?5?$AA9?$AA?4?$AA0?$AA?2?$AAV@ 005bd3c8     CACIC_Utils.obj
 0003:00002448       ??_C@_1FC@CLFDMKBM@?$AAi?$AAs?$AAt?$AAr?$AAe?$AAa?$AAm?$AAb?$AAu?$AAf?$AA_?$AAi?$AAt?$AAe?$AAr?$AAa?$AAt?$AAo?$AAr?$AA?5?$AAi?$AAs?$AA?5?$AAn?$AAo?$AAt?$AA?5?$AAi?$AAn?$AAc?$AAr?$AAe@ 005bd448     CACIC_Utils.obj
 0003:000043ec       ??_7ClientConnection@@6B@  005bf3ec     ClientConnection.obj
 0003:00004400       ??_7WarningException@@6B@  005bf400     ClientConnection.obj
 0003:00004410       ??_7Exception@@6B@         005bf410     ClientConnection.obj
 0003:00004420       ??_7QuietException@@6B@    005bf420     ClientConnection.obj
 0003:00004430       ??_7ErrorException@@6B@    005bf430     ClientConnection.obj
 0003:0000443c       ??_C@_09HINHMOPC@true?5?$CFd?5?6?$AA@ 005bf43c     ClientConnection.obj
 0003:00004448       ??_C@_0CI@CCBNBNNG@D?3?1Cacic?52?46?5?920100406?1contandot@ 005bf448     ClientConnection.obj
 0003:00004478       ??_C@_01MCMALHOG@a?$AA@    005bf478     ClientConnection.obj
 0003:0000447c       ??_C@_0DD@FBPPEKPN@Buffer?5cleared?0?5sync?5should?5be?5b@ 005bf47c     ClientConnection.obj
 0003:000044bc       ??_C@_0BF@FLNOJOAA@fake?5L?5Ctrl?5pressed?6?$AA@ 005bf4bc     ClientConnection.obj
 0003:000044d8       ??_C@_0BE@CONBNGBF@fake?5L?5Alt?5pressed?6?$AA@ 005bf4d8     ClientConnection.obj
 0003:000044f0       ??_C@_0BF@JNHLFGDF@fake?5R?5Ctrl?5pressed?6?$AA@ 005bf4f0     ClientConnection.obj
 0003:0000450c       ??_C@_0BE@IHMAFBCP@fake?5R?5Alt?5pressed?6?$AA@ 005bf50c     ClientConnection.obj
 0003:00004524       ??_C@_0BD@MEDIHBIH@fake?5R?5Alt?5raised?6?$AA@ 005bf524     ClientConnection.obj
 0003:0000453c       ??_C@_0BE@KFOLBGJD@fake?5R?5Ctrl?5raised?6?$AA@ 005bf53c     ClientConnection.obj
 0003:00004554       ??_C@_0BD@GJBBBIGL@fake?5L?5Alt?5raised?6?$AA@ 005bf554     ClientConnection.obj
 0003:0000456c       ??_C@_0BE@MPKJBKJ@fake?5L?5Ctrl?5raised?6?$AA@ 005bf56c     ClientConnection.obj
 0003:00004584       ??_C@_0CP@OMDKALDH@Failed?5to?5create?5timer?5for?5emula@ 005bf584     ClientConnection.obj
 0003:000045bc       ??_C@_0P@BLCJBECI@Blit?5error?5?$CFd?6?$AA@ 005bf5bc     ClientConnection.obj
 0003:000045d0       ??_C@_1EK@PPDBPCAN@?$AAm?$AAa?$AAp?$AA?1?$AAs?$AAe?$AAt?$AA?5?$AAe?$AAr?$AAa?$AAs?$AAe?$AA?5?$AAi?$AAt?$AAe?$AAr?$AAa?$AAt?$AAo?$AAr?$AA?5?$AAo?$AAu?$AAt?$AAs?$AAi?$AAd?$AAe?$AA?5?$AAr@ 005bf5d0     ClientConnection.obj
 0003:00004628       ??_C@_1GA@PCDMJBDL@?$AAD?$AA?3?$AA?2?$AAM?$AAi?$AAc?$AAr?$AAo?$AAs?$AAo?$AAf?$AAt?$AA?5?$AAV?$AAi?$AAs?$AAu?$AAa?$AAl?$AA?5?$AAS?$AAt?$AAu?$AAd?$AAi?$AAo?$AA?5?$AA9?$AA?4?$AA0?$AA?2?$AAV@ 005bf628     ClientConnection.obj
 0003:000046a0       ??_C@_1BHG@MHBDGGNO@?$AAs?$AAt?$AAd?$AA?3?$AA?3?$AA_?$AAT?$AAr?$AAe?$AAe?$AA?$DM?$AAc?$AAl?$AAa?$AAs?$AAs?$AA?5?$AAs?$AAt?$AAd?$AA?3?$AA?3?$AA_?$AAT?$AAm?$AAa?$AAp?$AA_?$AAt?$AAr?$AAa?$AAi@ 005bf6a0     ClientConnection.obj
 0003:00004860       ??_C@_1DO@CFEEPGGJ@?$AAm?$AAa?$AAp?$AA?1?$AAs?$AAe?$AAt?$AA?5?$AAi?$AAt?$AAe?$AAr?$AAa?$AAt?$AAo?$AAr?$AAs?$AA?5?$AAi?$AAn?$AAc?$AAo?$AAm?$AAp?$AAa?$AAt?$AAi?$AAb?$AAl?$AAe?$AA?$AA@ 005bf860     ClientConnection.obj
 0003:000048b0       ??_C@_1BIC@HHJNGDHH@?$AAs?$AAt?$AAd?$AA?3?$AA?3?$AA_?$AAT?$AAr?$AAe?$AAe?$AA?$DM?$AAc?$AAl?$AAa?$AAs?$AAs?$AA?5?$AAs?$AAt?$AAd?$AA?3?$AA?3?$AA_?$AAT?$AAm?$AAa?$AAp?$AA_?$AAt?$AAr?$AAa?$AAi@ 005bf8b0     ClientConnection.obj
 0003:00004a80       ??_C@_1BGI@KPBMJENJ@?$AAs?$AAt?$AAd?$AA?3?$AA?3?$AA_?$AAT?$AAr?$AAe?$AAe?$AA?$DM?$AAc?$AAl?$AAa?$AAs?$AAs?$AA?5?$AAs?$AAt?$AAd?$AA?3?$AA?3?$AA_?$AAT?$AAm?$AAa?$AAp?$AA_?$AAt?$AAr?$AAa?$AAi@ 005bfa80     ClientConnection.obj
 0003:00004c30       ??_C@_1EG@EHJFMBHJ@?$AAm?$AAa?$AAp?$AA?1?$AAs?$AAe?$AAt?$AA?5?$AAi?$AAt?$AAe?$AAr?$AAa?$AAt?$AAo?$AAr?$AA?5?$AAn?$AAo?$AAt?$AA?5?$AAi?$AAn?$AAc?$AAr?$AAe?$AAm?$AAe?$AAn?$AAt?$AAa?$AAb@ 005bfc30     ClientConnection.obj
 0003:00004c88       ??_C@_1BHE@LGBCFDIH@?$AAs?$AAt?$AAd?$AA?3?$AA?3?$AA_?$AAT?$AAr?$AAe?$AAe?$AA?$DM?$AAc?$AAl?$AAa?$AAs?$AAs?$AA?5?$AAs?$AAt?$AAd?$AA?3?$AA?3?$AA_?$AAT?$AAm?$AAa?$AAp?$AA_?$AAt?$AAr?$AAa?$AAi@ 005bfc88     ClientConnection.obj
 0003:00005b10       ??_7Daemon@@6B@            005c0b10     Daemon.obj
 0003:00005b88       ??_7Except@@6B@            005c0b88     dh.obj
 0003:00005c90       ??_7CDSMPlugin@@6B@        005c0c90     DSMPlugin.obj
 0003:000066e8       ??_7FileTransfer@@6B@      005c16e8     FileTransfer.obj
 0003:000066f0       ??_C@_1EG@BPNHNPIG@?$AAl?$AAi?$AAs?$AAt?$AA?5?$AAi?$AAn?$AAs?$AAe?$AAr?$AAt?$AA?5?$AAi?$AAt?$AAe?$AAr?$AAa?$AAt?$AAo?$AAr?$AA?5?$AAo?$AAu?$AAt?$AAs?$AAi?$AAd?$AAe?$AA?5?$AAr?$AAa?$AAn@ 005c16f0     FileTransfer.obj
 0003:00006748       ??_C@_1FO@LNAECEKN@?$AAD?$AA?3?$AA?2?$AAM?$AAi?$AAc?$AAr?$AAo?$AAs?$AAo?$AAf?$AAt?$AA?5?$AAV?$AAi?$AAs?$AAu?$AAa?$AAl?$AA?5?$AAS?$AAt?$AAu?$AAd?$AAi?$AAo?$AA?5?$AA9?$AA?4?$AA0?$AA?2?$AAV@ 005c1748     FileTransfer.obj
 0003:000067b8       ??_C@_1JE@BOLNBPGE@?$AAs?$AAt?$AAd?$AA?3?$AA?3?$AAl?$AAi?$AAs?$AAt?$AA?$DM?$AAi?$AAn?$AAt?$AA?0?$AAc?$AAl?$AAa?$AAs?$AAs?$AA?5?$AAs?$AAt?$AAd?$AA?3?$AA?3?$AAa?$AAl?$AAl?$AAo?$AAc?$AAa?$AAt@ 005c17b8     FileTransfer.obj
 0003:00006870       ??_C@_1EC@HILJLMMC@?$AAl?$AAi?$AAs?$AAt?$AA?5?$AAi?$AAt?$AAe?$AAr?$AAa?$AAt?$AAo?$AAr?$AA?5?$AAn?$AAo?$AAt?$AA?5?$AAd?$AAe?$AAr?$AAe?$AAf?$AAe?$AAr?$AAe?$AAn?$AAc?$AAa?$AAb?$AAl?$AAe@ 005c1870     FileTransfer.obj
 0003:000068c0       ??_C@_0BB@MOGOBHAF@list?$DMT?$DO?5too?5long?$AA@ 005c18c0     FileTransfer.obj
 0003:000068d8       ??_7length_error@std@@6B@  005c18d8     FileTransfer.obj
 0003:000068e8       ??_7logic_error@std@@6B@   005c18e8     FileTransfer.obj
 0003:000068f8       ??_C@_1JG@DAPGEGHB@?$AAs?$AAt?$AAd?$AA?3?$AA?3?$AAl?$AAi?$AAs?$AAt?$AA?$DM?$AAi?$AAn?$AAt?$AA?0?$AAc?$AAl?$AAa?$AAs?$AAs?$AA?5?$AAs?$AAt?$AAd?$AA?3?$AA?3?$AAa?$AAl?$AAl?$AAo?$AAc?$AAa?$AAt@ 005c18f8     FileTransfer.obj
 0003:000069b0       ??_C@_1EA@DOGAGKDH@?$AAl?$AAi?$AAs?$AAt?$AA?5?$AAi?$AAt?$AAe?$AAr?$AAa?$AAt?$AAo?$AAr?$AA?5?$AAn?$AAo?$AAt?$AA?5?$AAi?$AAn?$AAc?$AAr?$AAe?$AAm?$AAe?$AAn?$AAt?$AAa?$AAb?$AAl?$AAe?$AA?$AA@ 005c19b0     FileTransfer.obj
 0003:00006a00       ??_C@_1IO@PEHDCGBA@?$AAs?$AAt?$AAd?$AA?3?$AA?3?$AAl?$AAi?$AAs?$AAt?$AA?$DM?$AAi?$AAn?$AAt?$AA?0?$AAc?$AAl?$AAa?$AAs?$AAs?$AA?5?$AAs?$AAt?$AAd?$AA?3?$AA?3?$AAa?$AAl?$AAl?$AAo?$AAc?$AAa?$AAt@ 005c1a00     FileTransfer.obj
 0003:00006aac       ??_C@_1DI@MDELDGPI@?$AAl?$AAi?$AAs?$AAt?$AA?5?$AAi?$AAt?$AAe?$AAr?$AAa?$AAt?$AAo?$AAr?$AAs?$AA?5?$AAi?$AAn?$AAc?$AAo?$AAm?$AAp?$AAa?$AAt?$AAi?$AAb?$AAl?$AAe?$AA?$AA@ 005c1aac     FileTransfer.obj
 0003:00006c80       ??_7Flasher@@6B@           005c1c80     Flasher.obj
 0003:00006db4       ??_7CTitleBar@@6B@         005c1db4     FullScreenTitleBar.obj
 0003:00008a08       ??_C@_0L@GPMAHOEN@Right?5Alt?5?$AA@ 005c3a08     KeyMap.obj
 0003:00008a18       ??_C@_09FFBHDBBC@Left?5Alt?5?$AA@ 005c3a18     KeyMap.obj
 0003:00008a24       ??_C@_0M@NMDFIPMB@Right?5Ctrl?5?$AA@ 005c3a24     KeyMap.obj
 0003:00008a34       ??_C@_0L@CHNLBEOL@Left?5Ctrl?5?$AA@ 005c3a34     KeyMap.obj
 0003:00008a44       ??_C@_0CG@MIFGIGMN@?5?5Fake?5release?5?$CFs?$CI?$CFsVirtKey?50x?$CF0@ 005c3a44     KeyMap.obj
 0003:00008a74       ??_C@_09BJLKDKJA@extended?5?$AA@ 005c3a74     KeyMap.obj
 0003:00008a80       ??_C@_0CB@DKENIJGF@Fake?5press?5?$CFs?$CI?$CFsVirtKey?50x?$CF02x?$CJ?6@ 005c3a80     KeyMap.obj
 0003:00008aa8       ??_C@_1EM@MHOKKPFH@?$AAm?$AAa?$AAp?$AA?1?$AAs?$AAe?$AAt?$AA?5?$AAi?$AAn?$AAs?$AAe?$AAr?$AAt?$AA?5?$AAi?$AAt?$AAe?$AAr?$AAa?$AAt?$AAo?$AAr?$AA?5?$AAo?$AAu?$AAt?$AAs?$AAi?$AAd?$AAe?$AA?5@ 005c3aa8     KeyMap.obj
 0003:00008b04       ??_C@_0BE@JONHPENG@map?1set?$DMT?$DO?5too?5long?$AA@ 005c3b04     KeyMap.obj
 0003:00008b20       ??_C@_1BHE@IAGOEGB@?$AAs?$AAt?$AAd?$AA?3?$AA?3?$AA_?$AAT?$AAr?$AAe?$AAe?$AA?$DM?$AAc?$AAl?$AAa?$AAs?$AAs?$AA?5?$AAs?$AAt?$AAd?$AA?3?$AA?3?$AA_?$AAT?$AAm?$AAa?$AAp?$AA_?$AAt?$AAr?$AAa?$AAi@ 005c3b20     KeyMap.obj
 0003:00008ce0       ??_C@_1EI@FHEHNNNM@?$AAm?$AAa?$AAp?$AA?1?$AAs?$AAe?$AAt?$AA?5?$AAi?$AAt?$AAe?$AAr?$AAa?$AAt?$AAo?$AAr?$AA?5?$AAn?$AAo?$AAt?$AA?5?$AAd?$AAe?$AAr?$AAe?$AAf?$AAe?$AAr?$AAe?$AAn?$AAc?$AAa@ 005c3ce0     KeyMap.obj
 0003:00008d38       ??_C@_1BIA@ELHEJABJ@?$AAs?$AAt?$AAd?$AA?3?$AA?3?$AA_?$AAT?$AAr?$AAe?$AAe?$AA?$DM?$AAc?$AAl?$AAa?$AAs?$AAs?$AA?5?$AAs?$AAt?$AAd?$AA?3?$AA?3?$AA_?$AAT?$AAm?$AAa?$AAp?$AA_?$AAt?$AAr?$AAa?$AAi@ 005c3d38     KeyMap.obj
 0003:00008f08       ??_C@_1BGI@FONOHBML@?$AAs?$AAt?$AAd?$AA?3?$AA?3?$AA_?$AAT?$AAr?$AAe?$AAe?$AA?$DM?$AAc?$AAl?$AAa?$AAs?$AAs?$AA?5?$AAs?$AAt?$AAd?$AA?3?$AA?3?$AA_?$AAT?$AAm?$AAa?$AAp?$AA_?$AAt?$AAr?$AAa?$AAi@ 005c3f08     KeyMap.obj
 0003:000090b8       ??_C@_1EG@OKCGOALM@?$AAm?$AAa?$AAp?$AA?1?$AAs?$AAe?$AAt?$AA?5?$AAi?$AAt?$AAe?$AAr?$AAa?$AAt?$AAo?$AAr?$AA?5?$AAn?$AAo?$AAt?$AA?5?$AAd?$AAe?$AAc?$AAr?$AAe?$AAm?$AAe?$AAn?$AAt?$AAa?$AAb@ 005c40b8     KeyMap.obj
 0003:00009110       ??_C@_1BHE@EHNALGJF@?$AAs?$AAt?$AAd?$AA?3?$AA?3?$AA_?$AAT?$AAr?$AAe?$AAe?$AA?$DM?$AAc?$AAl?$AAa?$AAs?$AAs?$AA?5?$AAs?$AAt?$AAd?$AA?3?$AA?3?$AA_?$AAT?$AAm?$AAa?$AAp?$AA_?$AAt?$AAr?$AAa?$AAi@ 005c4110     KeyMap.obj
 0003:000092d0       ??_C@_1CE@IGJMOCCK@?$AAi?$AAn?$AAv?$AAa?$AAl?$AAi?$AAd?$AA?5?$AAo?$AAp?$AAe?$AAr?$AAa?$AAt?$AAo?$AAr?$AA?$DM?$AA?$AA@ 005c42d0     KeyMap.obj
 0003:0000963c       ?ToDebug@Log@@2HB          005c463c     Log.obj
 0003:00009640       ?ToFile@Log@@2HB           005c4640     Log.obj
 0003:00009644       ?ToConsole@Log@@2HB        005c4644     Log.obj
 0003:00009688       ??_7Log@@6B@               005c4688     Log.obj
 0003:000096a4       ___lzo_copyright           005c46a4     minilzo.obj
 0003:000096b8       ??_7MRU@@6B@               005c46b8     MRU.obj
 0003:000096d0       ?sm_alog@CRijndael@@0QBHB  005c46d0     Rijndael.obj
 0003:00009ad0       ?sm_log@CRijndael@@0QBHB   005c4ad0     Rijndael.obj
 0003:00009ed0       ?sm_S@CRijndael@@0QBDB     005c4ed0     Rijndael.obj
 0003:00009fd0       ?sm_Si@CRijndael@@0QBDB    005c4fd0     Rijndael.obj
 0003:0000a0d0       ?sm_T1@CRijndael@@0QBHB    005c50d0     Rijndael.obj
 0003:0000a4d0       ?sm_T2@CRijndael@@0QBHB    005c54d0     Rijndael.obj
 0003:0000a8d0       ?sm_T3@CRijndael@@0QBHB    005c58d0     Rijndael.obj
 0003:0000acd0       ?sm_T4@CRijndael@@0QBHB    005c5cd0     Rijndael.obj
 0003:0000b0d0       ?sm_T5@CRijndael@@0QBHB    005c60d0     Rijndael.obj
 0003:0000b4d0       ?sm_T6@CRijndael@@0QBHB    005c64d0     Rijndael.obj
 0003:0000b8d0       ?sm_T7@CRijndael@@0QBHB    005c68d0     Rijndael.obj
 0003:0000bcd0       ?sm_T8@CRijndael@@0QBHB    005c6cd0     Rijndael.obj
 0003:0000c0d0       ?sm_U1@CRijndael@@0QBHB    005c70d0     Rijndael.obj
 0003:0000c4d0       ?sm_U2@CRijndael@@0QBHB    005c74d0     Rijndael.obj
 0003:0000c8d0       ?sm_U3@CRijndael@@0QBHB    005c78d0     Rijndael.obj
 0003:0000ccd0       ?sm_U4@CRijndael@@0QBHB    005c7cd0     Rijndael.obj
 0003:0000d0d0       ?sm_rcon@CRijndael@@0QBDB  005c80d0     Rijndael.obj
 0003:0000d0f0       ?sm_shifts@CRijndael@@0QAY131$$CBHA 005c80f0     Rijndael.obj
 0003:0000ddc0       ??_7CRijndael@@6B@         005c8dc0     Rijndael.obj
 0003:0000de34       ??_7SessionDialog@@6B@     005c8e34     SessionDialog.obj
 0003:0000dfa0       ??_7TextChat@@6B@          005c8fa0     TextChat.obj
 0003:0000ec00       ??_7VNCOptions@@6B@        005c9c00     VNCOptions.obj
 0003:0000ed44       ??_7VNCviewerApp@@6B@      005c9d44     VNCviewerApp.obj
 0003:0000ee68       ??_7VNCviewerApp32@@6B@    005c9e68     VNCviewerApp32.obj
 0003:0000eefc       ??_7CZipUnZip32@@6B@       005c9efc     ZipUnzip32.obj
 0003:0000f6e4       ??_7_internal_omni_thread_dummy@@6B@ 005ca6e4     omnithread:nt.obj
 0003:0000f6f4       ??_7omni_thread@@6B@       005ca6f4     omnithread:nt.obj
 0003:0000f700       __real@3ff0000000000000    005ca700     libjpeg:jdapimin.obj
 0003:0000f70c       ??_C@_0CL@OCGBAKPF@Application?5transferred?5too?5many@ 005ca70c     libjpeg:jerror.obj
 0003:0000f740       ??_C@_0CL@BAKCGOKJ@Invalid?5SOS?5parameters?5for?5seque@ 005ca740     libjpeg:jerror.obj
 0003:0000f774       ??_C@_0DI@NFMBADOH@Corrupt?5JPEG?5data?3?5found?5marker?5@ 005ca774     libjpeg:jerror.obj
 0003:0000f7b8       ??_C@_0BL@DPFPFMLM@Premature?5end?5of?5JPEG?5file?$AA@ 005ca7b8     libjpeg:jerror.obj
 0003:0000f7d8       ??_C@_0CO@ODCCEDLN@Warning?3?5unknown?5JFIF?5revision?5n@ 005ca7d8     libjpeg:jerror.obj
 0003:0000f810       ??_C@_0CE@PBLDOPKB@Corrupt?5JPEG?5data?3?5bad?5Huffman?5c@ 005ca810     libjpeg:jerror.obj
 0003:0000f83c       ??_C@_0DB@PGMEPGHN@Corrupt?5JPEG?5data?3?5premature?5end@ 005ca83c     libjpeg:jerror.obj
 0003:0000f878       ??_C@_0DM@PCOGCKJB@Corrupt?5JPEG?5data?3?5?$CFu?5extraneous@ 005ca878     libjpeg:jerror.obj
 0003:0000f8c0       ??_C@_0EC@CBCJOINE@Inconsistent?5progression?5sequenc@ 005ca8c0     libjpeg:jerror.obj
 0003:0000f910       ??_C@_0CG@KEGHCDOM@Unknown?5Adobe?5color?5transform?5co@ 005ca910     libjpeg:jerror.obj
 0003:0000f940       ??_C@_0BH@LJLGPEFF@Obtained?5XMS?5handle?5?$CFu?$AA@ 005ca940     libjpeg:jerror.obj
 0003:0000f95c       ??_C@_0BE@FOGGKKAO@Freed?5XMS?5handle?5?$CFu?$AA@ 005ca95c     libjpeg:jerror.obj
 0003:0000f974       ??_C@_0DE@EEJCDLOO@Unrecognized?5component?5IDs?5?$CFd?5?$CFd@ 005ca974     libjpeg:jerror.obj
 0003:0000f9b4       ??_C@_0DG@FCFDGNHE@JFIF?5extension?5marker?3?5RGB?5thumb@ 005ca9b4     libjpeg:jerror.obj
 0003:0000f9f4       ??_C@_0DK@JGAPDCJL@JFIF?5extension?5marker?3?5palette?5t@ 005ca9f4     libjpeg:jerror.obj
 0003:0000fa40       ??_C@_0EC@ELDEPOJP@JFIF?5extension?5marker?3?5JPEG?9comp@ 005caa40     libjpeg:jerror.obj
 0003:0000fa90       ??_C@_0BJ@GOCABEP@Opened?5temporary?5file?5?$CFs?$AA@ 005caa90     libjpeg:jerror.obj
 0003:0000fab0       ??_C@_0BJ@KDCGAOJB@Closed?5temporary?5file?5?$CFs?$AA@ 005caab0     libjpeg:jerror.obj
 0003:0000fad0       ??_C@_0BN@GAMIJLDC@?5?5Ss?$DN?$CFd?0?5Se?$DN?$CFd?0?5Ah?$DN?$CFd?0?5Al?$DN?$CFd?$AA@ 005caad0     libjpeg:jerror.obj
 0003:0000faf4       ??_C@_0BO@CDEKFGLC@?5?5?5?5Component?5?$CFd?3?5dc?$DN?$CFd?5ac?$DN?$CFd?$AA@ 005caaf4     libjpeg:jerror.obj
 0003:0000fb18       ??_C@_0BN@BLOOHNC@Start?5Of?5Scan?3?5?$CFd?5components?$AA@ 005cab18     libjpeg:jerror.obj
 0003:0000fb3c       ??_C@_0P@JLCHJELA@Start?5of?5Image?$AA@ 005cab3c     libjpeg:jerror.obj
 0003:0000fb50       ??_C@_0BP@EDCAMHHE@?5?5?5?5Component?5?$CFd?3?5?$CFdhx?$CFdv?5q?$DN?$CFd?$AA@ 005cab50     libjpeg:jerror.obj
 0003:0000fb78       ??_C@_0DK@DMINKOGN@Start?5Of?5Frame?50x?$CF02x?3?5width?$DN?$CFu?0@ 005cab78     libjpeg:jerror.obj
 0003:0000fbc0       ??_C@_0DJ@PCBCLFML@Smoothing?5not?5supported?5with?5non@ 005cabc0     libjpeg:jerror.obj
 0003:0000fc04       ??_C@_05LLAPAOG@RST?$CFd?$AA@ 005cac04     libjpeg:jerror.obj
 0003:0000fc0c       ??_C@_0CF@NIMOLBCP@At?5marker?50x?$CF02x?0?5recovery?5actio@ 005cac0c     libjpeg:jerror.obj
 0003:0000fc38       ??_C@_0CE@FDPBEAOO@Selected?5?$CFd?5colors?5for?5quantizat@ 005cac38     libjpeg:jerror.obj
 0003:0000fc64       ??_C@_0BI@NEIBNACE@Quantizing?5to?5?$CFd?5colors?$AA@ 005cac64     libjpeg:jerror.obj
 0003:0000fc80       ??_C@_0CD@CNNAOOFA@Quantizing?5to?5?$CFd?5?$DN?5?$CFd?$CK?$CFd?$CK?$CFd?5colo@ 005cac80     libjpeg:jerror.obj
 0003:0000fcac       ??_C@_0CI@GHPOCOCL@?5?5?5?5?5?5?5?5?$CF4u?5?$CF4u?5?$CF4u?5?$CF4u?5?$CF4u?5?$CF4u?5@ 005cacac     libjpeg:jerror.obj
 0003:0000fcdc       ??_C@_0BJ@COPODLDN@Unexpected?5marker?50x?$CF02x?$AA@ 005cacdc     libjpeg:jerror.obj
 0003:0000fcfc       ??_C@_0CH@EHHJCMGA@Miscellaneous?5marker?50x?$CF02x?0?5len@ 005cacfc     libjpeg:jerror.obj
 0003:0000fd2c       ??_C@_0CB@BADBMAAB@?5?5?5?5with?5?$CFd?5x?5?$CFd?5thumbnail?5image@ 005cad2c     libjpeg:jerror.obj
 0003:0000fd54       ??_C@_0CO@KKPHGHBA@JFIF?5extension?5marker?3?5type?50x?$CF0@ 005cad54     libjpeg:jerror.obj
 0003:0000fd8c       ??_C@_0DM@JLHNPIBE@Warning?3?5thumbnail?5image?5size?5do@ 005cad8c     libjpeg:jerror.obj
 0003:0000fdd4       ??_C@_0DF@LOKNABIG@JFIF?5APP0?5marker?3?5version?5?$CFd?4?$CF02@ 005cadd4     libjpeg:jerror.obj
 0003:0000fe14       ??_C@_0CI@FKGPAJC@?5?5?5?5?5?5?5?5?$CF3d?5?$CF3d?5?$CF3d?5?$CF3d?5?$CF3d?5?$CF3d?5@ 005cae14     libjpeg:jerror.obj
 0003:0000fe44       ??_C@_0N@HJHFKELG@End?5Of?5Image?$AA@ 005cae44     libjpeg:jerror.obj
 0003:0000fe54       ??_C@_0BH@GIPOLIGC@Obtained?5EMS?5handle?5?$CFu?$AA@ 005cae54     libjpeg:jerror.obj
 0003:0000fe70       ??_C@_0BE@IPCOOGDJ@Freed?5EMS?5handle?5?$CFu?$AA@ 005cae70     libjpeg:jerror.obj
 0003:0000fe88       ??_C@_0BL@EMFIKBEK@Define?5Restart?5Interval?5?$CFu?$AA@ 005cae88     libjpeg:jerror.obj
 0003:0000fea8       ??_C@_0CL@KLDOJIKN@Define?5Quantization?5Table?5?$CFd?5?5pr@ 005caea8     libjpeg:jerror.obj
 0003:0000fedc       ??_C@_0BM@MDIEILCE@Define?5Huffman?5Table?50x?$CF02x?$AA@ 005caedc     libjpeg:jerror.obj
 0003:0000ff00       ??_C@_0CH@KIJGKPAA@Define?5Arithmetic?5Table?50x?$CF02x?3?5@ 005caf00     libjpeg:jerror.obj
 0003:0000ff30       ??_C@_0CM@CAEPHFAA@Unknown?5APP14?5marker?5?$CInot?5Adobe?$CJ@ 005caf30     libjpeg:jerror.obj
 0003:0000ff64       ??_C@_0CK@HCPFFNKJ@Unknown?5APP0?5marker?5?$CInot?5JFIF?$CJ?0?5@ 005caf64     libjpeg:jerror.obj
 0003:0000ff98       ??_C@_0EC@EHPKAOHA@Adobe?5APP14?5marker?3?5version?5?$CFd?0?5@ 005caf98     libjpeg:jerror.obj
 0003:0000ffe8       ??_C@_0DO@EGLODMBB@Caution?3?5quantization?5tables?5are@ 005cafe8     libjpeg:jerror.obj
 0003:00010034       ??_C@_0BA@LIJBPGPA@6b?5?527?9Mar?91998?$AA@ 005cb034     libjpeg:jerror.obj
 0003:00010048       ??_C@_0CD@IMBKIDCD@Copyright?5?$CIC?$CJ?51998?0?5Thomas?5G?4?5La@ 005cb048     libjpeg:jerror.obj
 0003:00010074       ??_C@_0BE@FDPDCBIN@Write?5to?5XMS?5failed?$AA@ 005cb074     libjpeg:jerror.obj
 0003:0001008c       ??_C@_0BF@EKLGFGNM@Read?5from?5XMS?5failed?$AA@ 005cb08c     libjpeg:jerror.obj
 0003:000100a8       ??_C@_0CH@LJLHCCHC@Image?5too?5wide?5for?5this?5implemen@ 005cb0a8     libjpeg:jerror.obj
 0003:000100d8       ??_C@_0CD@GCLFJCHC@Virtual?5array?5controller?5messed?5@ 005cb0d8     libjpeg:jerror.obj
 0003:00010104       ??_C@_0BP@BPKOBOIP@Unsupported?5marker?5type?50x?$CF02x?$AA@ 005cb104     libjpeg:jerror.obj
 0003:0001012c       ??_C@_0CK@EPADOAKC@Application?5transferred?5too?5few?5@ 005cb12c     libjpeg:jerror.obj
 0003:00010160       ??_C@_0DG@KALDLIJB@Write?5failed?5on?5temporary?5file?5?9@ 005cb160     libjpeg:jerror.obj
 0003:000101a0       ??_C@_0BO@GOBJOAAI@Seek?5failed?5on?5temporary?5file?$AA@ 005cb1a0     libjpeg:jerror.obj
 0003:000101c4       ??_C@_0BO@EEPJGHHI@Read?5failed?5on?5temporary?5file?$AA@ 005cb1c4     libjpeg:jerror.obj
 0003:000101e8       ??_C@_0CD@POKNOPOF@Failed?5to?5create?5temporary?5file?5@ 005cb1e8     libjpeg:jerror.obj
 0003:00010214       ??_C@_0CM@HONLBDPH@Invalid?5JPEG?5file?5structure?3?5SOS@ 005cb214     libjpeg:jerror.obj
 0003:00010248       ??_C@_0CN@HGJCMLNE@Invalid?5JPEG?5file?5structure?3?5two@ 005cb248     libjpeg:jerror.obj
 0003:00010280       ??_C@_0CK@HMKECJK@Unsupported?5JPEG?5process?3?5SOF?5ty@ 005cb280     libjpeg:jerror.obj
 0003:000102b4       ??_C@_0DA@GJIJGINK@Invalid?5JPEG?5file?5structure?3?5mis@ 005cb2b4     libjpeg:jerror.obj
 0003:000102f0       ??_C@_0CN@IHJJJAFJ@Invalid?5JPEG?5file?5structure?3?5two@ 005cb2f0     libjpeg:jerror.obj
 0003:00010328       ??_C@_0CH@NHMNHHIB@Cannot?5quantize?5to?5more?5than?5?$CFd?5@ 005cb328     libjpeg:jerror.obj
 0003:00010358       ??_C@_0CI@PLMPLCNO@Cannot?5quantize?5to?5fewer?5than?5?$CFd@ 005cb358     libjpeg:jerror.obj
 0003:00010388       ??_C@_0CO@HPDBAEEA@Cannot?5quantize?5more?5than?5?$CFd?5col@ 005cb388     libjpeg:jerror.obj
 0003:000103c0       ??_C@_0BO@DJPLELIB@Insufficient?5memory?5?$CIcase?5?$CFd?$CJ?$AA@ 005cb3c0     libjpeg:jerror.obj
 0003:000103e4       ??_C@_0CL@GNLFDFCL@Not?5a?5JPEG?5file?3?5starts?5with?50x?$CF@ 005cb3e4     libjpeg:jerror.obj
 0003:00010418       ??_C@_0CK@CCHKIENB@Quantization?5table?50x?$CF02x?5was?5no@ 005cb418     libjpeg:jerror.obj
 0003:0001044c       ??_C@_0CC@BKPLBDLJ@JPEG?5datastream?5contains?5no?5imag@ 005cb44c     libjpeg:jerror.obj
 0003:00010474       ??_C@_0CF@BKANFCCL@Huffman?5table?50x?$CF02x?5was?5not?5def@ 005cb474     libjpeg:jerror.obj
 0003:000104a0       ??_C@_0BM@HJHFKLAF@Backing?5store?5not?5supported?$AA@ 005cb4a0     libjpeg:jerror.obj
 0003:000104c4       ??_C@_0CO@BEHINNOI@Requested?5feature?5was?5omitted?5at@ 005cb4c4     libjpeg:jerror.obj
 0003:000104fc       ??_C@_0BE@EOAAHHJ@Not?5implemented?5yet?$AA@ 005cb4fc     libjpeg:jerror.obj
 0003:00010514       ??_C@_0CH@EFBBPPCK@Invalid?5color?5quantization?5mode?5@ 005cb514     libjpeg:jerror.obj
 0003:00010544       ??_C@_0CH@NIBDNILP@Scan?5script?5does?5not?5transmit?5al@ 005cb544     libjpeg:jerror.obj
 0003:00010574       ??_C@_0DO@OPNPKGO@Cannot?5transcode?5due?5to?5multiple@ 005cb574     libjpeg:jerror.obj
 0003:000105c0       ??_C@_0BM@KEKMMNGA@Premature?5end?5of?5input?5file?$AA@ 005cb5c0     libjpeg:jerror.obj
 0003:000105e4       ??_C@_0BB@JJAIKFBB@Empty?5input?5file?$AA@ 005cb5e4     libjpeg:jerror.obj
 0003:000105f8       ??_C@_0CP@EKFPGPNP@Maximum?5supported?5image?5dimensio@ 005cb5f8     libjpeg:jerror.obj
 0003:00010630       ??_C@_0CB@LFBMFPHI@Missing?5Huffman?5code?5table?5entry@ 005cb630     libjpeg:jerror.obj
 0003:00010658       ??_C@_0CB@LLDOGNPJ@Huffman?5code?5size?5table?5overflow@ 005cb658     libjpeg:jerror.obj
 0003:00010680       ??_C@_0CI@EKDDDHFF@Fractional?5sampling?5not?5implemen@ 005cb680     libjpeg:jerror.obj
 0003:000106b0       ??_C@_0CP@IDOBLGGD@Output?5file?5write?5error?5?9?9?9?5out?5@ 005cb6b0     libjpeg:jerror.obj
 0003:000106e8       ??_C@_0BG@BALCKDNL@Input?5file?5read?5error?$AA@ 005cb6e8     libjpeg:jerror.obj
 0003:00010704       ??_C@_0CB@DMGINPNE@Didn?8t?5expect?5more?5than?5one?5scan@ 005cb704     libjpeg:jerror.obj
 0003:0001072c       ??_C@_0BE@DGJBKIEB@Write?5to?5EMS?5failed?$AA@ 005cb72c     libjpeg:jerror.obj
 0003:00010744       ??_C@_0BF@CPNENPBA@Read?5from?5EMS?5failed?$AA@ 005cb744     libjpeg:jerror.obj
 0003:00010760       ??_C@_0CF@DAGGEAPM@Empty?5JPEG?5image?5?$CIDNL?5not?5suppor@ 005cb760     libjpeg:jerror.obj
 0003:0001078c       ??_C@_0BD@DIMECAOP@Bogus?5DQT?5index?5?$CFd?$AA@ 005cb78c     libjpeg:jerror.obj
 0003:000107a4       ??_C@_0BD@KJHFPHIC@Bogus?5DHT?5index?5?$CFd?$AA@ 005cb7a4     libjpeg:jerror.obj
 0003:000107bc       ??_C@_0BF@CLIOOJFM@Bogus?5DAC?5value?50x?$CFx?$AA@ 005cb7bc     libjpeg:jerror.obj
 0003:000107d8       ??_C@_0BD@LDBBBMFL@Bogus?5DAC?5index?5?$CFd?$AA@ 005cb7d8     libjpeg:jerror.obj
 0003:000107f0       ??_C@_0CF@JDLOPNGO@Unsupported?5color?5conversion?5req@ 005cb7f0     libjpeg:jerror.obj
 0003:0001081c       ??_C@_0CG@BEBDNOCG@Too?5many?5color?5components?3?5?$CFd?0?5m@ 005cb81c     libjpeg:jerror.obj
 0003:0001084c       ??_C@_0CF@LAEFHNAH@CCIR601?5sampling?5not?5implemented@ 005cb84c     libjpeg:jerror.obj
 0003:00010878       ??_C@_0BM@PKHCPJDH@Suspension?5not?5allowed?5here?$AA@ 005cb878     libjpeg:jerror.obj
 0003:0001089c       ??_C@_0CL@JKHIPJLJ@Buffer?5passed?5to?5JPEG?5library?5is@ 005cb89c     libjpeg:jerror.obj
 0003:000108d0       ??_C@_0BL@CBOEEPLK@Bogus?5virtual?5array?5access?$AA@ 005cb8d0     libjpeg:jerror.obj
 0003:000108f0       ??_C@_0EN@DKAEGIBH@JPEG?5parameter?5struct?5mismatch?3?5@ 005cb8f0     libjpeg:jerror.obj
 0003:0001094c       ??_C@_0CK@BAMFIBMM@Improper?5call?5to?5JPEG?5library?5in@ 005cb94c     libjpeg:jerror.obj
 0003:00010980       ??_C@_0CA@MJDDICLK@Invalid?5scan?5script?5at?5entry?5?$CFd?$AA@ 005cb980     libjpeg:jerror.obj
 0003:000109a8       ??_C@_0BH@HMMHPOPE@Bogus?5sampling?5factors?$AA@ 005cb9a8     libjpeg:jerror.obj
 0003:000109c4       ??_C@_0DH@HIKEGPKP@Invalid?5progressive?5parameters?5a@ 005cb9c4     libjpeg:jerror.obj
 0003:00010a08       ??_C@_0DH@LNGGEGOL@Invalid?5progressive?5parameters?5S@ 005cba08     libjpeg:jerror.obj
 0003:00010a4c       ??_C@_0CD@LDBDNLHK@Unsupported?5JPEG?5data?5precision?5@ 005cba4c     libjpeg:jerror.obj
 0003:00010a78       ??_C@_0BM@OEMICEFD@Invalid?5memory?5pool?5code?5?$CFd?$AA@ 005cba78     libjpeg:jerror.obj
 0003:00010a9c       ??_C@_0DA@HLEOHNPA@Sampling?5factors?5too?5large?5for?5i@ 005cba9c     libjpeg:jerror.obj
 0003:00010ad8       ??_C@_0DN@ELFKFKL@Wrong?5JPEG?5library?5version?3?5libr@ 005cbad8     libjpeg:jerror.obj
 0003:00010b24       ??_C@_0BE@OGLAEMOG@Bogus?5marker?5length?$AA@ 005cbb24     libjpeg:jerror.obj
 0003:00010b3c       ??_C@_0BG@NEGIHEMC@Bogus?5JPEG?5colorspace?$AA@ 005cbb3c     libjpeg:jerror.obj
 0003:00010b58       ??_C@_0BH@BGDIGLHC@Bogus?5input?5colorspace?$AA@ 005cbb58     libjpeg:jerror.obj
 0003:00010b74       ??_C@_0BP@EOFJNLFD@Bogus?5Huffman?5table?5definition?$AA@ 005cbb74     libjpeg:jerror.obj
 0003:00010b9c       ??_C@_0CI@MBJANLAP@IDCT?5output?5block?5size?5?$CFd?5not?5su@ 005cbb9c     libjpeg:jerror.obj
 0003:00010bcc       ??_C@_0BN@OJEJKKDL@DCT?5coefficient?5out?5of?5range?$AA@ 005cbbcc     libjpeg:jerror.obj
 0003:00010bf0       ??_C@_0BP@ONFLCDHG@Invalid?5component?5ID?5?$CFd?5in?5SOS?$AA@ 005cbbf0     libjpeg:jerror.obj
 0003:00010c18       ??_C@_0BK@DKALDNKG@Bogus?5buffer?5control?5mode?$AA@ 005cbc18     libjpeg:jerror.obj
 0003:00010c38       ??_C@_0CF@DENLILGA@MAX_ALLOC_CHUNK?5is?5wrong?0?5please@ 005cbc38     libjpeg:jerror.obj
 0003:00010c64       ??_C@_0CA@FDMPGPNI@ALIGN_TYPE?5is?5wrong?0?5please?5fix?$AA@ 005cbc64     libjpeg:jerror.obj
 0003:00010c8c       ??_C@_0DJ@KONAFFHE@Sorry?0?5there?5are?5legal?5restricti@ 005cbc8c     libjpeg:jerror.obj
 0003:00010cd0       ??_C@_0BG@MIBALFBH@Bogus?5message?5code?5?$CFd?$AA@ 005cbcd0     libjpeg:jerror.obj
 0003:00010cf0       _jpeg_std_message_table    005cbcf0     libjpeg:jerror.obj
 0003:00010f48       ??_C@_03OFAPEBGM@?$CFs?6?$AA@ 005cbf48     libjpeg:jerror.obj
 0003:00010f60       ??_C@_05IBIMIMKO@?$CFld?$CFc?$AA@ 005cbf60     libjpeg:jmemmgr.obj
 0003:00010f68       ??_C@_07OOOLPGAB@JPEGMEM?$AA@ 005cbf68     libjpeg:jmemmgr.obj
 0003:00010f78       _jpeg_natural_order        005cbf78     libjpeg:jutils.obj
 0003:00011468       __real@c004e7aea0000000    005cc468     libjpeg:jidctflt.obj
 0003:00011478       __real@3ff1517a80000000    005cc478     libjpeg:jidctflt.obj
 0003:00011488       __real@3ffd906bc0000000    005cc488     libjpeg:jidctflt.obj
 0003:00011498       __real@3ff6a09e60000000    005cc498     libjpeg:jidctflt.obj
 0003:000114a4       ??_C@_0CB@FIOBDKFL@ZlibInStream?3?5inflateInit?5failed@ 005cc4a4     rdr:ZlibInStream.obj
 0003:000114cc       ??_C@_0P@LAFNMDGF@rdr?3?3Exception?$AA@ 005cc4cc     rdr:ZlibInStream.obj
 0003:000114e0       ??_C@_05GDHACFMB@1?42?43?$AA@ 005cc4e0     rdr:ZlibInStream.obj
 0003:000114ec       ??_7ZlibInStream@rdr@@6B@  005cc4ec     rdr:ZlibInStream.obj
 0003:00011504       ??_7InStream@rdr@@6B@      005cc504     rdr:ZlibInStream.obj
 0003:00011518       ??_C@_02LMMGGCAJ@?3?5?$AA@ 005cc518     rdr:ZlibInStream.obj
 0003:00011520       ??_7Exception@rdr@@6B@     005cc520     rdr:ZlibInStream.obj
 0003:00011528       ??_C@_0CL@ILOIFHLI@ZlibInStream?5overrun?3?5no?5underly@ 005cc528     rdr:ZlibInStream.obj
 0003:0001155c       ??_C@_0CM@MBCLANJG@ZlibInStream?5overrun?3?5max?5itemSi@ 005cc55c     rdr:ZlibInStream.obj
 0003:00011590       ??_C@_0BN@BBDCOGPA@ZlibInStream?3?5inflate?5failed?$AA@ 005cc590     rdr:ZlibInStream.obj
 0003:000115b8       ??_7FdInStream@rdr@@6B@    005cc5b8     rdr:FdInStream.obj
 0003:000115cc       ??_C@_0CK@GGMCIOP@FdInStream?5overrun?3?5max?5itemSize@ 005cc5cc     rdr:FdInStream.obj
 0003:00011600       ??_C@_0BH@PADGDDNG@select?5returned?5EINTR?6?$AA@ 005cc600     rdr:FdInStream.obj
 0003:0001161c       ??_C@_04POLDLDMI@read?$AA@ 005cc61c     rdr:FdInStream.obj
 0003:00011624       ??_C@_0BF@HIEOHKLB@read?5returned?5EINTR?6?$AA@ 005cc624     rdr:FdInStream.obj
 0003:00011640       ??_C@_06LGNCCACI@select?$AA@ 005cc640     rdr:FdInStream.obj
 0003:00011648       ??_C@_01PKGAHCOL@?$CJ?$AA@ 005cc648     rdr:FdInStream.obj
 0003:0001164c       ??_C@_02DPKJAMEF@?$CFd?$AA@ 005cc64c     rdr:FdInStream.obj
 0003:00011650       ??_C@_02GFKOMOKH@?5?$CI?$AA@ 005cc650     rdr:FdInStream.obj
 0003:00011654       ??_C@_0BH@DGPOIADI@rdr?3?3SystemException?3?5?$AA@ 005cc654     rdr:FdInStream.obj
 0003:00011674       ??_7SystemException@rdr@@6B@ 005cc674     rdr:FdInStream.obj
 0003:00011680       ??_7TimedOut@rdr@@6B@      005cc680     rdr:FdInStream.obj
 0003:00011688       ??_C@_0O@HCIEMIJD@rdr?3?3TimedOut?$AA@ 005cc688     rdr:FdInStream.obj
 0003:0001169c       ??_7EndOfStream@rdr@@6B@   005cc69c     rdr:FdInStream.obj
 0003:000116a4       ??_C@_0BB@HABGOPEN@rdr?3?3EndOfStream?$AA@ 005cc6a4     rdr:FdInStream.obj
 0003:00012118       ??_C@_0BH@FGKKJGOC@incorrect?5length?5check?$AA@ 005cd118     zlib:inflate.obj
 0003:00012134       ??_C@_0BF@MEIGEHBE@incorrect?5data?5check?$AA@ 005cd134     zlib:inflate.obj
 0003:00012150       ??_C@_0BO@ECPMAOGG@invalid?5distance?5too?5far?5back?$AA@ 005cd150     zlib:inflate.obj
 0003:00012174       ??_C@_0BG@LBKINIKP@invalid?5distance?5code?$AA@ 005cd174     zlib:inflate.obj
 0003:00012190       ??_C@_0BM@FFFLPBBC@invalid?5literal?1length?5code?$AA@ 005cd190     zlib:inflate.obj
 0003:000121b4       ??_C@_0BG@GMDFCBGP@invalid?5distances?5set?$AA@ 005cd1b4     zlib:inflate.obj
 0003:000121d0       ??_C@_0BM@IIMGAINC@invalid?5literal?1lengths?5set?$AA@ 005cd1d0     zlib:inflate.obj
 0003:000121f4       ??_C@_0BK@BMMPFBBH@invalid?5bit?5length?5repeat?$AA@ 005cd1f4     zlib:inflate.obj
 0003:00012214       ??_C@_0BJ@HDEPPGOH@invalid?5code?5lengths?5set?$AA@ 005cd214     zlib:inflate.obj
 0003:00012234       ??_C@_0CE@GMIGFPBB@too?5many?5length?5or?5distance?5symb@ 005cd234     zlib:inflate.obj
 0003:00012260       ??_C@_0BN@LGAADGOK@invalid?5stored?5block?5lengths?$AA@ 005cd260     zlib:inflate.obj
 0003:00012284       ??_C@_0BD@PJCBIDD@invalid?5block?5type?$AA@ 005cd284     zlib:inflate.obj
 0003:0001229c       ??_C@_0BE@GONKLEPM@header?5crc?5mismatch?$AA@ 005cd29c     zlib:inflate.obj
 0003:000122b4       ??_C@_0BJ@BLBBCOMO@unknown?5header?5flags?5set?$AA@ 005cd2b4     zlib:inflate.obj
 0003:000122d4       ??_C@_0BE@EMOGCLGO@invalid?5window?5size?$AA@ 005cd2d4     zlib:inflate.obj
 0003:000122ec       ??_C@_0BL@IHKGDAEE@unknown?5compression?5method?$AA@ 005cd2ec     zlib:inflate.obj
 0003:0001230c       ??_C@_0BH@LIBMMIGA@incorrect?5header?5check?$AA@ 005cd30c     zlib:inflate.obj
 0003:00012328       ??_C@_0BF@CJFPCCEG@incompatible?5version?$AA@ 005cd328     zlib:zutil.obj
 0003:00012344       ??_C@_0N@DFPGLBGC@buffer?5error?$AA@ 005cd344     zlib:zutil.obj
 0003:00012354       ??_C@_0BE@OGGJBMCE@insufficient?5memory?$AA@ 005cd354     zlib:zutil.obj
 0003:0001236c       ??_C@_0L@HAHMBNLP@data?5error?$AA@ 005cd36c     zlib:zutil.obj
 0003:0001237c       ??_C@_0N@MKKNPMJD@stream?5error?$AA@ 005cd37c     zlib:zutil.obj
 0003:0001238c       ??_C@_0L@KIJFAKBJ@file?5error?$AA@ 005cd38c     zlib:zutil.obj
 0003:0001239c       ??_C@_0L@FNAOCBOG@stream?5end?$AA@ 005cd39c     zlib:zutil.obj
 0003:000123ac       ??_C@_0BA@MOKMMFOD@need?5dictionary?$AA@ 005cd3ac     zlib:zutil.obj
 0003:000123c0       _z_errmsg                  005cd3c0     zlib:zutil.obj
 0003:000123f0       _inflate_copyright         005cd3f0     zlib:inftrees.obj
 0003:00014bc8       _deflate_copyright         005cfbc8     zlib:deflate.obj
 0003:000152f0       __dist_code                005d02f0     zlib:trees.obj
 0003:000154f0       __length_code              005d04f0     zlib:trees.obj
 0003:000158ec       ??_C@_0P@GHFPNOJB@bad?5allocation?$AA@ 005d08ec     libcpmtd:xdebug.obj
 0003:00015904       ??_C@_0CO@JPCIKGOF@f?3?2dd?2vctools?2crt_bld?2self_x86?2c@ 005d0904     libcpmtd:xdebug.obj
 0003:0001593c       ?_BADOFF@std@@3JB          005d093c     libcpmtd:ios.obj
 0003:00015940       ??_C@_0DC@FCEKBFBO@f?3?2dd?2vctools?2crt_bld?2self_x86?2c@ 005d0940     libcpmtd:xmutex.obj
 0003:0001597c       ??_C@_0BA@JFNIOLAK@string?5too?5long?$AA@ 005d097c     libcpmtd:string.obj
 0003:00015990       ??_C@_0BI@CFPLBAOH@invalid?5string?5position?$AA@ 005d0990     libcpmtd:string.obj
 0003:000159b0       ??_7out_of_range@std@@6B@  005d09b0     libcpmtd:string.obj
 0003:000159bc       ??_C@_0BI@ILCMCLF@invalid?5string?5argument?$AA@ 005d09bc     libcpmtd:string.obj
 0003:000159dc       ??_7invalid_argument@std@@6B@ 005d09dc     libcpmtd:string.obj
 0003:000159e8       ??_C@_1FO@BEGKGBFG@?$AAf?$AA?3?$AA?2?$AAd?$AAd?$AA?2?$AAv?$AAc?$AAt?$AAo?$AAo?$AAl?$AAs?$AA?2?$AAc?$AAr?$AAt?$AA_?$AAb?$AAl?$AAd?$AA?2?$AAs?$AAe?$AAl?$AAf?$AA_?$AAx?$AA8?$AA6?$AA?2?$AAc@ 005d09e8     libcpmtd:string.obj
 0003:00015a58       ??_C@_0DD@IMKCHGBE@f?3?2dd?2vctools?2crt_bld?2self_x86?2c@ 005d0a58     libcpmtd:locale0.obj
 0003:00015a98       ??_C@_01NBENCBCI@?$CK?$AA@ 005d0a98     libcpmtd:locale0.obj
 0003:00015aa0       ??_7_Locimp@locale@std@@6B@ 005d0aa0     libcpmtd:locale0.obj
 0003:00015aa8       ??_C@_01GFHCPBMG@C?$AA@    005d0aa8     libcpmtd:locale0.obj
 0003:00015aac       ?npos@?$basic_string@DU?$char_traits@D@std@@V?$_DebugHeapAllocator@D@2@@std@@2IB 005d0aac     libcpmtd:locale0.obj
 0003:00015ab0       ??_C@_01EEMJAFIK@?6?$AA@   005d0ab0     libcpmtd:stdthrow.obj
 0003:00015ab4       ??_C@_07CIFAGBMG@unknown?$AA@ 005d0ab4     libcpmtd:stdthrow.obj
 0003:00015ac0       ??_C@_0M@LLHBPFNE@exception?3?5?$AA@ 005d0ac0     libcpmtd:stdthrow.obj
 0003:00015ad0       ??_C@_0DC@CFILDBAI@f?3?2dd?2vctools?2crt_bld?2self_x86?2c@ 005d0ad0     libcpmtd:_tolower.obj
 0003:00015bc8       __real@4024000000000000    005d0bc8     libcpmtd:xstod.obj
 0003:00015bd8       ??_C@_1GC@PMLIMJPH@?$AAf?$AA?3?$AA?2?$AAd?$AAd?$AA?2?$AAv?$AAc?$AAt?$AAo?$AAo?$AAl?$AAs?$AA?2?$AAc?$AAr?$AAt?$AA_?$AAb?$AAl?$AAd?$AA?2?$AAs?$AAe?$AAl?$AAf?$AA_?$AAx?$AA8?$AA6?$AA?2?$AAc@ 005d0bd8     libcpmtd:xmbtowc.obj
 0003:00015c50       ??_C@_1IO@DMPFDAED@?$AA_?$AA_?$AA_?$AAm?$AAb?$AA_?$AAc?$AAu?$AAr?$AA_?$AAm?$AAa?$AAx?$AA_?$AAl?$AA_?$AAf?$AAu?$AAn?$AAc?$AA?$CI?$AAl?$AAo?$AAc?$AAa?$AAl?$AAe?$AA?$CJ?$AA?5?$AA?$DN?$AA?$DN?$AA?5@ 005d0c50     libcpmtd:xmbtowc.obj
 0003:00015cfc       ??_C@_0DB@FHJEAKOL@f?3?2dd?2vctools?2crt_bld?2self_x86?2c@ 005d0cfc     libcpmtd:xmbtowc.obj
 0003:00015d3c       ??_7type_info@@6B@         005d0d3c     LIBCMTD:typinfo.obj
 0003:00015d48       ??_C@_1GE@BDAODJCD@?$AAf?$AA?3?$AA?2?$AAd?$AAd?$AA?2?$AAv?$AAc?$AAt?$AAo?$AAo?$AAl?$AAs?$AA?2?$AAc?$AAr?$AAt?$AA_?$AAb?$AAl?$AAd?$AA?2?$AAs?$AAe?$AAl?$AAf?$AA_?$AAx?$AA8?$AA6?$AA?2?$AAc@ 005d0d48     LIBCMTD:dbgdel.obj
 0003:00015dc0       ??_C@_1EO@LHDAJOCM@?$AA_?$AAB?$AAL?$AAO?$AAC?$AAK?$AA_?$AAT?$AAY?$AAP?$AAE?$AA_?$AAI?$AAS?$AA_?$AAV?$AAA?$AAL?$AAI?$AAD?$AA?$CI?$AAp?$AAH?$AAe?$AAa?$AAd?$AA?9?$AA?$DO?$AAn?$AAB?$AAl?$AAo@ 005d0dc0     LIBCMTD:dbgdel.obj
 0003:00015e20       ?ProcessDetach@NativeDll@<CrtImplementationDetails>@@0IB 005d0e20     LIBCMTD:_trnsctrl_.obj
 0003:00015e24       ?ProcessAttach@NativeDll@<CrtImplementationDetails>@@0IB 005d0e24     LIBCMTD:_trnsctrl_.obj
 0003:00015e28       ?ThreadAttach@NativeDll@<CrtImplementationDetails>@@0IB 005d0e28     LIBCMTD:_trnsctrl_.obj
 0003:00015e2c       ?ThreadDetach@NativeDll@<CrtImplementationDetails>@@0IB 005d0e2c     LIBCMTD:_trnsctrl_.obj
 0003:00015e30       ?ProcessVerifier@NativeDll@<CrtImplementationDetails>@@0IB 005d0e30     LIBCMTD:_trnsctrl_.obj
 0003:00015e60       ??_7exception@std@@6B@     005d0e60     LIBCMTD:stdexcpt.obj
 0003:00015e6c       ??_C@_0BC@EOODALEL@Unknown?5exception?$AA@ 005d0e6c     LIBCMTD:stdexcpt.obj
 0003:00015e88       ??_7bad_cast@std@@6B@      005d0e88     LIBCMTD:stdexcpt.obj
 0003:00015e98       ??_7bad_typeid@std@@6B@    005d0e98     LIBCMTD:stdexcpt.obj
 0003:00015ea8       ??_7__non_rtti_object@std@@6B@ 005d0ea8     LIBCMTD:stdexcpt.obj
 0003:00015eb4       ??_C@_1CK@DDKKOLAN@?$AAs?$AAi?$AAz?$AAe?$AAI?$AAn?$AAB?$AAy?$AAt?$AAe?$AAs?$AA?5?$AA?$DO?$AA?$DN?$AA?5?$AAc?$AAo?$AAu?$AAn?$AAt?$AA?$AA@ 005d0eb4     LIBCMTD:memcpy_s.obj
 0003:00015ee8       ??_C@_1BI@DCHLDCPP@?$AAs?$AAr?$AAc?$AA?5?$AA?$CB?$AA?$DN?$AA?5?$AAN?$AAU?$AAL?$AAL?$AA?$AA@ 005d0ee8     LIBCMTD:memcpy_s.obj
 0003:00015f04       ??_C@_1BC@GKHDJMGB@?$AAm?$AAe?$AAm?$AAc?$AAp?$AAy?$AA_?$AAs?$AA?$AA@ 005d0f04     LIBCMTD:memcpy_s.obj
 0003:00015f20       ??_C@_1GE@NEOPGGBM@?$AAf?$AA?3?$AA?2?$AAd?$AAd?$AA?2?$AAv?$AAc?$AAt?$AAo?$AAo?$AAl?$AAs?$AA?2?$AAc?$AAr?$AAt?$AA_?$AAb?$AAl?$AAd?$AA?2?$AAs?$AAe?$AAl?$AAf?$AA_?$AAx?$AA8?$AA6?$AA?2?$AAc@ 005d0f20     LIBCMTD:memcpy_s.obj
 0003:00015f98       ??_C@_1BI@GKKCBDMD@?$AAd?$AAs?$AAt?$AA?5?$AA?$CB?$AA?$DN?$AA?5?$AAN?$AAU?$AAL?$AAL?$AA?$AA@ 005d0f98     LIBCMTD:memcpy_s.obj
 0003:00015fb4       ??_C@_17LGKOMLJ@?$AA?4?$AA?4?$AA?4?$AA?$AA@ 005d0fb4     LIBCMTD:dbgrptw.obj
 0003:00015fc0       ??_C@_1CC@CGHMNGDG@?$AAA?$AAs?$AAs?$AAe?$AAr?$AAt?$AAi?$AAo?$AAn?$AA?5?$AAF?$AAa?$AAi?$AAl?$AAe?$AAd?$AA?$AA@ 005d0fc0     LIBCMTD:dbgrptw.obj
 0003:00015fe8       ??_C@_1M@ILHOPKA@?$AAE?$AAr?$AAr?$AAo?$AAr?$AA?$AA@ 005d0fe8     LIBCMTD:dbgrptw.obj
 0003:00015ff8       ??_C@_1BA@GLMCNLEM@?$AAW?$AAa?$AAr?$AAn?$AAi?$AAn?$AAg?$AA?$AA@ 005d0ff8     LIBCMTD:dbgrptw.obj
 0003:0001601c       ??_C@_0DA@PCCBBBID@f?3?2dd?2vctools?2crt_bld?2self_x86?2c@ 005d101c     LIBCMTD:dbgrptw.obj
 0003:00016058       ??_C@_1FI@PHIAFFHM@?$AA?$CI?$AA?$CC?$AAT?$AAh?$AAe?$AA?5?$AAh?$AAo?$AAo?$AAk?$AA?5?$AAf?$AAu?$AAn?$AAc?$AAt?$AAi?$AAo?$AAn?$AA?5?$AAi?$AAs?$AA?5?$AAn?$AAo?$AAt?$AA?5?$AAi?$AAn?$AA?5?$AAt?$AAh@ 005d1058     LIBCMTD:dbgrptw.obj
 0003:000160c4       ??_C@_1CG@JBJEFOCM@?$AAp?$AAf?$AAn?$AAN?$AAe?$AAw?$AAH?$AAo?$AAo?$AAk?$AA?5?$AA?$CB?$AA?$DN?$AA?5?$AAN?$AAU?$AAL?$AAL?$AA?$AA@ 005d10c4     LIBCMTD:dbgrptw.obj
 0003:000160f4       ??_C@_1CI@IIHEAKEI@?$AA_?$AAC?$AAr?$AAt?$AAS?$AAe?$AAt?$AAR?$AAe?$AAp?$AAo?$AAr?$AAt?$AAH?$AAo?$AAo?$AAk?$AAW?$AA2?$AA?$AA@ 005d10f4     LIBCMTD:dbgrptw.obj
 0003:00016128       ??_C@_1GA@IBJGKIFE@?$AAf?$AA?3?$AA?2?$AAd?$AAd?$AA?2?$AAv?$AAc?$AAt?$AAo?$AAo?$AAl?$AAs?$AA?2?$AAc?$AAr?$AAt?$AA_?$AAb?$AAl?$AAd?$AA?2?$AAs?$AAe?$AAl?$AAf?$AA_?$AAx?$AA8?$AA6?$AA?2?$AAc@ 005d1128     LIBCMTD:dbgrptw.obj
 0003:000161a0       ??_C@_1HI@OFEHGPPC@?$AAm?$AAo?$AAd?$AAe?$AA?5?$AA?$DN?$AA?$DN?$AA?5?$AA_?$AAC?$AAR?$AAT?$AA_?$AAR?$AAP?$AAT?$AAH?$AAO?$AAO?$AAK?$AA_?$AAI?$AAN?$AAS?$AAT?$AAA?$AAL?$AAL?$AA?5?$AA?$HM?$AA?$HM?$AA?5@ 005d11a0     LIBCMTD:dbgrptw.obj
 0003:00016230       ??_C@_1EG@PEOEAKBB@?$AAM?$AAi?$AAc?$AAr?$AAo?$AAs?$AAo?$AAf?$AAt?$AA?5?$AAV?$AAi?$AAs?$AAu?$AAa?$AAl?$AA?5?$AAC?$AA?$CL?$AA?$CL?$AA?5?$AAD?$AAe?$AAb?$AAu?$AAg?$AA?5?$AAL?$AAi?$AAb?$AAr?$AAa@ 005d1230     LIBCMTD:dbgrptw.obj
 0003:00016288       ??_C@_1FG@BBOLDHGF@?$AA_?$AAC?$AAr?$AAt?$AAD?$AAb?$AAg?$AAR?$AAe?$AAp?$AAo?$AAr?$AAt?$AA?3?$AA?5?$AAS?$AAt?$AAr?$AAi?$AAn?$AAg?$AA?5?$AAt?$AAo?$AAo?$AA?5?$AAl?$AAo?$AAn?$AAg?$AA?5?$AAo@ 005d1288     LIBCMTD:dbgrptw.obj
 0003:000162f0       ??_C@_1JI@EACPGHID@?$AAw?$AAc?$AAs?$AAc?$AAp?$AAy?$AA_?$AAs?$AA?$CI?$AAs?$AAz?$AAO?$AAu?$AAt?$AAM?$AAe?$AAs?$AAs?$AAa?$AAg?$AAe?$AA?0?$AA?5?$AA4?$AA0?$AA9?$AA6?$AA?0?$AA?5?$AAL?$AA?$CC?$AA_@ 005d12f0     LIBCMTD:dbgrptw.obj
 0003:000163a8       ??_C@_1BI@KALLJECN@?$AA?$CI?$AA?$CK?$AA_?$AAe?$AAr?$AAr?$AAn?$AAo?$AA?$CI?$AA?$CJ?$AA?$CJ?$AA?$AA@ 005d13a8     LIBCMTD:dbgrptw.obj
 0003:000163c8       ??_C@_1KK@MEFMPOLM@?$AAD?$AAe?$AAb?$AAu?$AAg?$AA?5?$AA?$CF?$AAs?$AA?$CB?$AA?6?$AA?6?$AAP?$AAr?$AAo?$AAg?$AAr?$AAa?$AAm?$AA?3?$AA?5?$AA?$CF?$AAs?$AA?$CF?$AAs?$AA?$CF?$AAs?$AA?$CF?$AAs?$AA?$CF?$AAs?$AA?$CF?$AAs@ 005d13c8     LIBCMTD:dbgrptw.obj
 0003:00016494       ??_C@_1BE@CGCJKGHI@?$AA?6?$AAM?$AAo?$AAd?$AAu?$AAl?$AAe?$AA?3?$AA?5?$AA?$AA@ 005d1494     LIBCMTD:dbgrptw.obj
 0003:000164ac       ??_C@_1BA@LNHECFIM@?$AA?6?$AAF?$AAi?$AAl?$AAe?$AA?3?$AA?5?$AA?$AA@ 005d14ac     LIBCMTD:dbgrptw.obj
 0003:000164c0       ??_C@_1BA@GLLGCPCK@?$AA?6?$AAL?$AAi?$AAn?$AAe?$AA?3?$AA?5?$AA?$AA@ 005d14c0     LIBCMTD:dbgrptw.obj
 0003:000164d4       ??_C@_15IABLJNFO@?$AA?6?$AA?6?$AA?$AA@ 005d14d4     LIBCMTD:dbgrptw.obj
 0003:000164dc       ??_C@_1BK@PEDCIPMA@?$AAE?$AAx?$AAp?$AAr?$AAe?$AAs?$AAs?$AAi?$AAo?$AAn?$AA?3?$AA?5?$AA?$AA@ 005d14dc     LIBCMTD:dbgrptw.obj
 0003:000164fc       ??_C@_11LOCGONAA@?$AA?$AA@ 005d14fc     LIBCMTD:dbgrptw.obj
 0003:00016500       ??_C@_1OG@PMPPFHAF@?$AA?6?$AA?6?$AAF?$AAo?$AAr?$AA?5?$AAi?$AAn?$AAf?$AAo?$AAr?$AAm?$AAa?$AAt?$AAi?$AAo?$AAn?$AA?5?$AAo?$AAn?$AA?5?$AAh?$AAo?$AAw?$AA?5?$AAy?$AAo?$AAu?$AAr?$AA?5?$AAp?$AAr@ 005d1500     LIBCMTD:dbgrptw.obj
 0003:00016618       ??_C@_1NO@LECLLHOL@?$AAm?$AAe?$AAm?$AAc?$AAp?$AAy?$AA_?$AAs?$AA?$CI?$AAs?$AAz?$AAS?$AAh?$AAo?$AAr?$AAt?$AAP?$AAr?$AAo?$AAg?$AAN?$AAa?$AAm?$AAe?$AA?0?$AA?5?$AAs?$AAi?$AAz?$AAe?$AAo?$AAf@ 005d1618     LIBCMTD:dbgrptw.obj
 0003:00016724       ??_C@_1CO@EAEJAADC@?$AA?$DM?$AAp?$AAr?$AAo?$AAg?$AAr?$AAa?$AAm?$AA?5?$AAn?$AAa?$AAm?$AAe?$AA?5?$AAu?$AAn?$AAk?$AAn?$AAo?$AAw?$AAn?$AA?$DO?$AA?$AA@ 005d1724     LIBCMTD:dbgrptw.obj
 0003:00016760       ??_C@_1GI@DEDNNLCI@?$AAw?$AAc?$AAs?$AAc?$AAp?$AAy?$AA_?$AAs?$AA?$CI?$AAs?$AAz?$AAE?$AAx?$AAe?$AAN?$AAa?$AAm?$AAe?$AA?0?$AA?5?$AA2?$AA6?$AA0?$AA?0?$AA?5?$AAL?$AA?$CC?$AA?$DM?$AAp?$AAr?$AAo?$AAg@ 005d1760     LIBCMTD:dbgrptw.obj
 0003:000167dc       ??_C@_1CI@PGJIFDEK@?$AA_?$AA_?$AAc?$AAr?$AAt?$AAM?$AAe?$AAs?$AAs?$AAa?$AAg?$AAe?$AAW?$AAi?$AAn?$AAd?$AAo?$AAw?$AAW?$AA?$AA@ 005d17dc     LIBCMTD:dbgrptw.obj
 0003:0001680c       ??_C@_1CC@OLIJCKA@?$AA?$CI?$AAs?$AAt?$AAr?$AAi?$AAn?$AAg?$AA?5?$AA?$CB?$AA?$DN?$AA?5?$AAN?$AAU?$AAL?$AAL?$AA?$CJ?$AA?$AA@ 005d180c     LIBCMTD:sprintf.obj
 0003:00016834       ??_C@_1BA@KBJJGFFE@?$AAs?$AAp?$AAr?$AAi?$AAn?$AAt?$AAf?$AA?$AA@ 005d1834     LIBCMTD:sprintf.obj
 0003:00016848       ??_C@_1GC@BMNPEKNN@?$AAf?$AA?3?$AA?2?$AAd?$AAd?$AA?2?$AAv?$AAc?$AAt?$AAo?$AAo?$AAl?$AAs?$AA?2?$AAc?$AAr?$AAt?$AA_?$AAb?$AAl?$AAd?$AA?2?$AAs?$AAe?$AAl?$AAf?$AA_?$AAx?$AA8?$AA6?$AA?2?$AAc@ 005d1848     LIBCMTD:sprintf.obj
 0003:000168c0       ??_C@_1CC@MGIEJOME@?$AA?$CI?$AAf?$AAo?$AAr?$AAm?$AAa?$AAt?$AA?5?$AA?$CB?$AA?$DN?$AA?5?$AAN?$AAU?$AAL?$AAL?$AA?$CJ?$AA?$AA@ 005d18c0     LIBCMTD:sprintf.obj
 0003:000168e8       __FPinit                   005d18e8     LIBCMTD:_fpinit_.obj
 0003:000168ec       __FPmtinit                 005d18ec     LIBCMTD:_fpinit_.obj
 0003:000168f0       __FPmtterm                 005d18f0     LIBCMTD:_fpinit_.obj
 0003:000168f8       ??_C@_1BE@NMKKBGPA@?$AAm?$AAe?$AAm?$AAm?$AAo?$AAv?$AAe?$AA_?$AAs?$AA?$AA@ 005d18f8     LIBCMTD:memmove_s.obj
 0003:00016910       ??_C@_1GG@JKNLCIHH@?$AAf?$AA?3?$AA?2?$AAd?$AAd?$AA?2?$AAv?$AAc?$AAt?$AAo?$AAo?$AAl?$AAs?$AA?2?$AAc?$AAr?$AAt?$AA_?$AAb?$AAl?$AAd?$AA?2?$AAs?$AAe?$AAl?$AAf?$AA_?$AAx?$AA8?$AA6?$AA?2?$AAc@ 005d1910     LIBCMTD:memmove_s.obj
 0003:0001698c       ??_C@_0DA@HMCPFNKN@f?3?2dd?2vctools?2crt_bld?2self_x86?2c@ 005d198c     LIBCMTD:onexit.obj
 0003:00016a28       ??_C@_1FE@CEHLKAHD@?$AAi?$AAb?$AAa?$AAs?$AAe?$AA?5?$AA?$DN?$AA?$DN?$AA?5?$AA0?$AA?5?$AA?$HM?$AA?$HM?$AA?5?$AA?$CI?$AA2?$AA?5?$AA?$DM?$AA?$DN?$AA?5?$AAi?$AAb?$AAa?$AAs?$AAe?$AA?5?$AA?$CG?$AA?$CG?$AA?5?$AAi?$AAb?$AAa@ 005d1a28     LIBCMTD:strtol.obj
 0003:00016a8c       ??_C@_1BA@LOLAMAJG@?$AAs?$AAt?$AAr?$AAt?$AAo?$AAx?$AAl?$AA?$AA@ 005d1a8c     LIBCMTD:strtol.obj
 0003:00016aa0       ??_C@_1GA@IPHKKOEI@?$AAf?$AA?3?$AA?2?$AAd?$AAd?$AA?2?$AAv?$AAc?$AAt?$AAo?$AAo?$AAl?$AAs?$AA?2?$AAc?$AAr?$AAt?$AA_?$AAb?$AAl?$AAd?$AA?2?$AAs?$AAe?$AAl?$AAf?$AA_?$AAx?$AA8?$AA6?$AA?2?$AAc@ 005d1aa0     LIBCMTD:strtol.obj
 0003:00016b14       ??_C@_1BK@LAOAACLJ@?$AAn?$AAp?$AAt?$AAr?$AA?5?$AA?$CB?$AA?$DN?$AA?5?$AAN?$AAU?$AAL?$AAL?$AA?$AA@ 005d1b14     LIBCMTD:strtol.obj
 0003:00016b38       ??_C@_1EC@FABAOFFO@?$AA?$CI?$AAc?$AAo?$AAu?$AAn?$AAt?$AA?5?$AA?$DN?$AA?$DN?$AA?5?$AA0?$AA?$CJ?$AA?5?$AA?$HM?$AA?$HM?$AA?5?$AA?$CI?$AAs?$AAt?$AAr?$AAi?$AAn?$AAg?$AA?5?$AA?$CB?$AA?$DN?$AA?5?$AAN?$AAU?$AAL?$AAL?$AA?$CJ@ 005d1b38     LIBCMTD:vsnprnc.obj
 0003:00016b88       ??_C@_1CE@PCFPEIFI@?$AA_?$AAv?$AAs?$AAn?$AAp?$AAr?$AAi?$AAn?$AAt?$AAf?$AA_?$AAh?$AAe?$AAl?$AAp?$AAe?$AAr?$AA?$AA@ 005d1b88     LIBCMTD:vsnprnc.obj
 0003:00016bb8       ??_C@_1GE@DPADKNCG@?$AAf?$AA?3?$AA?2?$AAd?$AAd?$AA?2?$AAv?$AAc?$AAt?$AAo?$AAo?$AAl?$AAs?$AA?2?$AAc?$AAr?$AAt?$AA_?$AAb?$AAl?$AAd?$AA?2?$AAs?$AAe?$AAl?$AAf?$AA_?$AAx?$AA8?$AA6?$AA?2?$AAc@ 005d1bb8     LIBCMTD:vsnprnc.obj
 0003:00016c30       ??_C@_1DA@HPBFKMEB@?$AA?$CI?$AA?$CC?$AAB?$AAu?$AAf?$AAf?$AAe?$AAr?$AA?5?$AAt?$AAo?$AAo?$AA?5?$AAs?$AAm?$AAa?$AAl?$AAl?$AA?$CC?$AA?0?$AA?5?$AA0?$AA?$CJ?$AA?$AA@ 005d1c30     LIBCMTD:vsnprnc.obj
 0003:00016c70       ??_C@_1EE@OKCKIGFK@?$AAs?$AAt?$AAr?$AAi?$AAn?$AAg?$AA?5?$AA?$CB?$AA?$DN?$AA?5?$AAN?$AAU?$AAL?$AAL?$AA?5?$AA?$CG?$AA?$CG?$AA?5?$AAs?$AAi?$AAz?$AAe?$AAI?$AAn?$AAB?$AAy?$AAt?$AAe?$AAs?$AA?5?$AA?$DO?$AA?5@ 005d1c70     LIBCMTD:vsnprnc.obj
 0003:00016cc4       ??_C@_1BM@BLJALHEF@?$AA_?$AAv?$AAs?$AAp?$AAr?$AAi?$AAn?$AAt?$AAf?$AA_?$AAs?$AA_?$AAl?$AA?$AA@ 005d1cc4     LIBCMTD:vsnprnc.obj
 0003:00016ce8       ??_C@_1BO@MLMCMBKN@?$AAf?$AAo?$AAr?$AAm?$AAa?$AAt?$AA?5?$AA?$CB?$AA?$DN?$AA?5?$AAN?$AAU?$AAL?$AAL?$AA?$AA@ 005d1ce8     LIBCMTD:vsnprnc.obj
 0003:00016d0c       ??_C@_1BO@MMPELNIM@?$AA_?$AAv?$AAs?$AAn?$AAp?$AAr?$AAi?$AAn?$AAt?$AAf?$AA_?$AAs?$AA_?$AAl?$AA?$AA@ 005d1d0c     LIBCMTD:vsnprnc.obj
 0003:00016d30       ??_C@_1BG@GLLONOEH@?$AA_?$AAs?$AAt?$AAr?$AAi?$AAc?$AAm?$AAp?$AA_?$AAl?$AA?$AA@ 005d1d30     LIBCMTD:stricmp.obj
 0003:00016d50       ??_C@_1GC@OILHAOLL@?$AAf?$AA?3?$AA?2?$AAd?$AAd?$AA?2?$AAv?$AAc?$AAt?$AAo?$AAo?$AAl?$AAs?$AA?2?$AAc?$AAr?$AAt?$AA_?$AAb?$AAl?$AAd?$AA?2?$AAs?$AAe?$AAl?$AAf?$AA_?$AAx?$AA8?$AA6?$AA?2?$AAc@ 005d1d50     LIBCMTD:stricmp.obj
 0003:00016dc8       ??_C@_1BC@JLGKKIIG@?$AA_?$AAs?$AAt?$AAr?$AAi?$AAc?$AAm?$AAp?$AA?$AA@ 005d1dc8     LIBCMTD:stricmp.obj
 0003:00016de0       ??_C@_1FA@HILOOCMA@?$AA?$CI?$AA_?$AAt?$AAc?$AAs?$AAn?$AAl?$AAe?$AAn?$AA?$CI?$AAo?$AAp?$AAt?$AAi?$AAo?$AAn?$AA?0?$AA?5?$AA_?$AAM?$AAA?$AAX?$AA_?$AAE?$AAN?$AAV?$AA?$CJ?$AA?5?$AA?$DM?$AA?5?$AA_?$AAM@ 005d1de0     LIBCMTD:getenv.obj
 0003:00016e40       ??_C@_1O@GMKGKCJO@?$AAg?$AAe?$AAt?$AAe?$AAn?$AAv?$AA?$AA@ 005d1e40     LIBCMTD:getenv.obj
 0003:00016e50       ??_C@_1GA@IPPICGKB@?$AAf?$AA?3?$AA?2?$AAd?$AAd?$AA?2?$AAv?$AAc?$AAt?$AAo?$AAo?$AAl?$AAs?$AA?2?$AAc?$AAr?$AAt?$AA_?$AAb?$AAl?$AAd?$AA?2?$AAs?$AAe?$AAl?$AAf?$AA_?$AAx?$AA8?$AA6?$AA?2?$AAc@ 005d1e50     LIBCMTD:getenv.obj
 0003:00016ec4       ??_C@_1CC@FKAOHHLO@?$AA?$CI?$AAo?$AAp?$AAt?$AAi?$AAo?$AAn?$AA?5?$AA?$CB?$AA?$DN?$AA?5?$AAN?$AAU?$AAL?$AAL?$AA?$CJ?$AA?$AA@ 005d1ec4     LIBCMTD:getenv.obj
 0003:00016ef0       ??_C@_1GI@JBIFPFJH@?$AA_?$AAt?$AAc?$AAs?$AAn?$AAl?$AAe?$AAn?$AA?$CI?$AA?$CK?$AAs?$AAe?$AAa?$AAr?$AAc?$AAh?$AA?5?$AA?$CL?$AA?5?$AAl?$AAe?$AAn?$AAg?$AAt?$AAh?$AA?5?$AA?$CL?$AA?5?$AA1?$AA?0?$AA?5?$AA_@ 005d1ef0     LIBCMTD:getenv.obj
 0003:00016f70       ??_C@_1EI@HHOBPCFK@?$AAs?$AAt?$AAr?$AAc?$AAp?$AAy?$AA_?$AAs?$AA?$CI?$AAb?$AAu?$AAf?$AAf?$AAe?$AAr?$AA?0?$AA?5?$AAs?$AAi?$AAz?$AAe?$AAI?$AAn?$AAT?$AAC?$AAh?$AAa?$AAr?$AAs?$AA?0?$AA?5?$AAs@ 005d1f70     LIBCMTD:getenv.obj
 0003:00016fc8       ??_C@_1JM@NLPGJJPH@?$AA?$CI?$AAb?$AAu?$AAf?$AAf?$AAe?$AAr?$AA?5?$AA?$CB?$AA?$DN?$AA?5?$AAN?$AAU?$AAL?$AAL?$AA?5?$AA?$CG?$AA?$CG?$AA?5?$AAs?$AAi?$AAz?$AAe?$AAI?$AAn?$AAT?$AAC?$AAh?$AAa?$AAr?$AAs?$AA?5@ 005d1fc8     LIBCMTD:getenv.obj
 0003:00017084       ??_C@_1CC@BAJKDIIF@?$AA_?$AAg?$AAe?$AAt?$AAe?$AAn?$AAv?$AA_?$AAs?$AA_?$AAh?$AAe?$AAl?$AAp?$AAe?$AAr?$AA?$AA@ 005d2084     LIBCMTD:getenv.obj
 0003:000170ac       ??_C@_1CK@PIKDAOCL@?$AAp?$AAR?$AAe?$AAt?$AAu?$AAr?$AAn?$AAV?$AAa?$AAl?$AAu?$AAe?$AA?5?$AA?$CB?$AA?$DN?$AA?5?$AAN?$AAU?$AAL?$AAL?$AA?$AA@ 005d20ac     LIBCMTD:getenv.obj
 0003:000170e0       ??_C@_1DM@GNKNEGJO@?$AAs?$AAt?$AAr?$AAc?$AAp?$AAy?$AA_?$AAs?$AA?$CI?$AA?$CK?$AAp?$AAB?$AAu?$AAf?$AAf?$AAe?$AAr?$AA?0?$AA?5?$AAs?$AAi?$AAz?$AAe?$AA?0?$AA?5?$AAs?$AAt?$AAr?$AA?$CJ?$AA?$AA@ 005d20e0     LIBCMTD:getenv.obj
 0003:00017128       ??_C@_1CA@GDBKELOE@?$AAv?$AAa?$AAr?$AAn?$AAa?$AAm?$AAe?$AA?5?$AA?$CB?$AA?$DN?$AA?5?$AAN?$AAU?$AAL?$AAL?$AA?$AA@ 005d2128     LIBCMTD:getenv.obj
 0003:00017150       ??_C@_1CC@KPLOPIEM@?$AA_?$AAd?$AAu?$AAp?$AAe?$AAn?$AAv?$AA_?$AAs?$AA_?$AAh?$AAe?$AAl?$AAp?$AAe?$AAr?$AA?$AA@ 005d2150     LIBCMTD:getenv.obj
 0003:00017178       ??_C@_1CA@FHNFMDOJ@?$AAp?$AAB?$AAu?$AAf?$AAf?$AAe?$AAr?$AA?5?$AA?$CB?$AA?$DN?$AA?5?$AAN?$AAU?$AAL?$AAL?$AA?$AA@ 005d2178     LIBCMTD:getenv.obj
 0003:000171a0       ??_C@_1BC@KMGJCMNP@?$AAv?$AAs?$AAc?$AAa?$AAn?$AA_?$AAf?$AAn?$AA?$AA@ 005d21a0     LIBCMTD:sscanf.obj
 0003:000171b8       ??_C@_1GA@GDIHGGDN@?$AAf?$AA?3?$AA?2?$AAd?$AAd?$AA?2?$AAv?$AAc?$AAt?$AAo?$AAo?$AAl?$AAs?$AA?2?$AAc?$AAr?$AAt?$AA_?$AAb?$AAl?$AAd?$AA?2?$AAs?$AAe?$AAl?$AAf?$AA_?$AAx?$AA8?$AA6?$AA?2?$AAc@ 005d21b8     LIBCMTD:sscanf.obj
 0003:0001722c       ??_C@_1O@EGMJNCOI@?$AAf?$AAc?$AAl?$AAo?$AAs?$AAe?$AA?$AA@ 005d222c     LIBCMTD:fclose.obj
 0003:00017240       ??_C@_1GA@KMIDAPAP@?$AAf?$AA?3?$AA?2?$AAd?$AAd?$AA?2?$AAv?$AAc?$AAt?$AAo?$AAo?$AAl?$AAs?$AA?2?$AAc?$AAr?$AAt?$AA_?$AAb?$AAl?$AAd?$AA?2?$AAs?$AAe?$AAl?$AAf?$AA_?$AAx?$AA8?$AA6?$AA?2?$AAc@ 005d2240     LIBCMTD:fclose.obj
 0003:000172b4       ??_C@_1CC@FADMNIL@?$AA?$CI?$AAs?$AAt?$AAr?$AAe?$AAa?$AAm?$AA?5?$AA?$CB?$AA?$DN?$AA?5?$AAN?$AAU?$AAL?$AAL?$AA?$CJ?$AA?$AA@ 005d22b4     LIBCMTD:fclose.obj
 0003:000172dc       ??_C@_1BO@JINCABEC@?$AA_?$AAf?$AAc?$AAl?$AAo?$AAs?$AAe?$AA_?$AAn?$AAo?$AAl?$AAo?$AAc?$AAk?$AA?$AA@ 005d22dc     LIBCMTD:fclose.obj
 0003:00017300       ??_C@_1BM@JMKHIAHP@?$AA?$CI?$AAs?$AAt?$AAr?$AA?5?$AA?$CB?$AA?$DN?$AA?5?$AAN?$AAU?$AAL?$AAL?$AA?$CJ?$AA?$AA@ 005d2300     LIBCMTD:fclose.obj
 0003:00017328       ??_C@_1BAA@ODEGEDCK@?$AA?$CI?$AA?5?$AA?$CI?$AA_?$AAS?$AAt?$AAr?$AAe?$AAa?$AAm?$AA?9?$AA?$DO?$AA_?$AAf?$AAl?$AAa?$AAg?$AA?5?$AA?$CG?$AA?5?$AA_?$AAI?$AAO?$AAS?$AAT?$AAR?$AAG?$AA?$CJ?$AA?5?$AA?$HM?$AA?$HM?$AA?5@ 005d2328     LIBCMTD:fprintf.obj
 0003:0001745c       ??_C@_1BA@DNOHIGNM@?$AAf?$AAp?$AAr?$AAi?$AAn?$AAt?$AAf?$AA?$AA@ 005d245c     LIBCMTD:fprintf.obj
 0003:00017470       ??_C@_1GC@NHJDDBOH@?$AAf?$AA?3?$AA?2?$AAd?$AAd?$AA?2?$AAv?$AAc?$AAt?$AAo?$AAo?$AAl?$AAs?$AA?2?$AAc?$AAr?$AAt?$AA_?$AAb?$AAl?$AAd?$AA?2?$AAs?$AAe?$AAl?$AAf?$AA_?$AAx?$AA8?$AA6?$AA?2?$AAc@ 005d2470     LIBCMTD:fprintf.obj
 0003:000174e8       ??_C@_1CI@HBNALCBB@?$AA?$CI?$AA?$CK?$AAm?$AAo?$AAd?$AAe?$AA?5?$AA?$CB?$AA?$DN?$AA?5?$AA_?$AAT?$AA?$CI?$AA?8?$AA?2?$AA0?$AA?8?$AA?$CJ?$AA?$CJ?$AA?$AA@ 005d24e8     LIBCMTD:fopen.obj
 0003:00017518       ??_C@_1BO@MJMKAKCJ@?$AA?$CI?$AAm?$AAo?$AAd?$AAe?$AA?5?$AA?$CB?$AA?$DN?$AA?5?$AAN?$AAU?$AAL?$AAL?$AA?$CJ?$AA?$AA@ 005d2518     LIBCMTD:fopen.obj
 0003:0001753c       ??_C@_1BA@HNEAFMNL@?$AA_?$AAf?$AAs?$AAo?$AAp?$AAe?$AAn?$AA?$AA@ 005d253c     LIBCMTD:fopen.obj
 0003:00017550       ??_C@_1FO@NCADDBOO@?$AAf?$AA?3?$AA?2?$AAd?$AAd?$AA?2?$AAv?$AAc?$AAt?$AAo?$AAo?$AAl?$AAs?$AA?2?$AAc?$AAr?$AAt?$AA_?$AAb?$AAl?$AAd?$AA?2?$AAs?$AAe?$AAl?$AAf?$AA_?$AAx?$AA8?$AA6?$AA?2?$AAc@ 005d2550     LIBCMTD:fopen.obj
 0003:000175c0       ??_C@_1BO@CLGIAEOJ@?$AA?$CI?$AAf?$AAi?$AAl?$AAe?$AA?5?$AA?$CB?$AA?$DN?$AA?5?$AAN?$AAU?$AAL?$AAL?$AA?$CJ?$AA?$AA@ 005d25c0     LIBCMTD:fopen.obj
 0003:000175e4       ??_C@_1BA@PBGKCCAP@?$AAf?$AAo?$AAp?$AAe?$AAn?$AA_?$AAs?$AA?$AA@ 005d25e4     LIBCMTD:fopen.obj
 0003:000175f8       ??_C@_1CA@LLJLFCDN@?$AA?$CI?$AAp?$AAf?$AAi?$AAl?$AAe?$AA?5?$AA?$CB?$AA?$DN?$AA?5?$AAN?$AAU?$AAL?$AAL?$AA?$CJ?$AA?$AA@ 005d25f8     LIBCMTD:fopen.obj
 0003:00017620       ??_C@_13LBAGMAIH@?$AA?6?$AA?$AA@ 005d2620     LIBCMTD:wassert.obj
 0003:00017628       ??_C@_1EK@MBDPDCGA@?$AAM?$AAi?$AAc?$AAr?$AAo?$AAs?$AAo?$AAf?$AAt?$AA?5?$AAV?$AAi?$AAs?$AAu?$AAa?$AAl?$AA?5?$AAC?$AA?$CL?$AA?$CL?$AA?5?$AAR?$AAu?$AAn?$AAt?$AAi?$AAm?$AAe?$AA?5?$AAL?$AAi?$AAb@ 005d2628     LIBCMTD:wassert.obj
 0003:00017680       ??_C@_1HK@POCJMFGK@?$AA?$CI?$AAP?$AAr?$AAe?$AAs?$AAs?$AA?5?$AAR?$AAe?$AAt?$AAr?$AAy?$AA?5?$AAt?$AAo?$AA?5?$AAd?$AAe?$AAb?$AAu?$AAg?$AA?5?$AAt?$AAh?$AAe?$AA?5?$AAa?$AAp?$AAp?$AAl?$AAi?$AAc@ 005d2680     LIBCMTD:wassert.obj
 0003:00017718       ??_C@_1LO@HBAMOOPN@?$AAw?$AAc?$AAs?$AAc?$AAa?$AAt?$AA_?$AAs?$AA?$CI?$AAa?$AAs?$AAs?$AAe?$AAr?$AAt?$AAb?$AAu?$AAf?$AA?0?$AA?5?$AA?$CI?$AA6?$AA0?$AA?5?$AA?$CK?$AA?5?$AA9?$AA?$CJ?$AA?0?$AA?5?$AAL?$AA?$CC@ 005d2718     LIBCMTD:wassert.obj
 0003:00017800       ??_C@_1FG@GMPCGFKH@?$AAw?$AAc?$AAs?$AAc?$AAa?$AAt?$AA_?$AAs?$AA?$CI?$AAa?$AAs?$AAs?$AAe?$AAr?$AAt?$AAb?$AAu?$AAf?$AA?0?$AA?5?$AA?$CI?$AA6?$AA0?$AA?5?$AA?$CK?$AA?5?$AA9?$AA?$CJ?$AA?0?$AA?5?$AAd?$AAb@ 005d2800     LIBCMTD:wassert.obj
 0003:00017868       ??_C@_1OA@EGMLFBHJ@?$AAF?$AAo?$AAr?$AA?5?$AAi?$AAn?$AAf?$AAo?$AAr?$AAm?$AAa?$AAt?$AAi?$AAo?$AAn?$AA?5?$AAo?$AAn?$AA?5?$AAh?$AAo?$AAw?$AA?5?$AAy?$AAo?$AAu?$AAr?$AA?5?$AAp?$AAr?$AAo?$AAg@ 005d2868     LIBCMTD:wassert.obj
 0003:00017978       ??_C@_1BCO@FMFFDPPF@?$AAw?$AAc?$AAs?$AAc?$AAa?$AAt?$AA_?$AAs?$AA?$CI?$AAa?$AAs?$AAs?$AAe?$AAr?$AAt?$AAb?$AAu?$AAf?$AA?0?$AA?5?$AA?$CI?$AA6?$AA0?$AA?5?$AA?$CK?$AA?5?$AA9?$AA?$CJ?$AA?0?$AA?5?$AAL?$AA?$CC@ 005d2978     LIBCMTD:wassert.obj
 0003:00017ae8       ??_C@_1EM@MBEKCGIC@?$AAw?$AAc?$AAs?$AAc?$AAa?$AAt?$AA_?$AAs?$AA?$CI?$AA?5?$AAa?$AAs?$AAs?$AAe?$AAr?$AAt?$AAb?$AAu?$AAf?$AA?0?$AA?5?$AA?$CI?$AA6?$AA0?$AA?5?$AA?$CK?$AA?5?$AA9?$AA?$CJ?$AA?0?$AA?5?$AAe@ 005d2ae8     LIBCMTD:wassert.obj
 0003:00017b48       ??_C@_1CHM@CEIMNDLH@?$AAw?$AAc?$AAs?$AAn?$AAc?$AAa?$AAt?$AA_?$AAs?$AA?$CI?$AA?5?$AAa?$AAs?$AAs?$AAe?$AAr?$AAt?$AAb?$AAu?$AAf?$AA?0?$AA?5?$AA?$CI?$AA6?$AA0?$AA?5?$AA?$CK?$AA?5?$AA9?$AA?$CJ?$AA?0?$AA?5@ 005d2b48     LIBCMTD:wassert.obj
 0003:00017e48       ??_C@_1GC@HOBBPFHJ@?$AAw?$AAc?$AAs?$AAc?$AAa?$AAt?$AA_?$AAs?$AA?$CI?$AA?5?$AAa?$AAs?$AAs?$AAe?$AAr?$AAt?$AAb?$AAu?$AAf?$AA?0?$AA?5?$AA?$CI?$AA6?$AA0?$AA?5?$AA?$CK?$AA?5?$AA9?$AA?$CJ?$AA?0?$AA?5?$AAL@ 005d2e48     LIBCMTD:wassert.obj
 0003:00017ec0       ??_C@_1KG@CFEIMPNH@?$AA_?$AAi?$AAt?$AAo?$AAw?$AA_?$AAs?$AA?$CI?$AA?5?$AAl?$AAi?$AAn?$AAe?$AAn?$AAo?$AA?0?$AA?5?$AAa?$AAs?$AAs?$AAe?$AAr?$AAt?$AAb?$AAu?$AAf?$AA?5?$AA?$CL?$AA?5?$AAw?$AAc?$AAs@ 005d2ec0     LIBCMTD:wassert.obj
 0003:00017f88       ??_C@_1O@KCAFKHJE@?$AAL?$AAi?$AAn?$AAe?$AA?3?$AA?5?$AA?$AA@ 005d2f88     LIBCMTD:wassert.obj
 0003:00017f98       ??_C@_1FG@NHDGJLMI@?$AAw?$AAc?$AAs?$AAc?$AAa?$AAt?$AA_?$AAs?$AA?$CI?$AA?5?$AAa?$AAs?$AAs?$AAe?$AAr?$AAt?$AAb?$AAu?$AAf?$AA?0?$AA?5?$AA?$CI?$AA6?$AA0?$AA?5?$AA?$CK?$AA?5?$AA9?$AA?$CJ?$AA?0?$AA?5?$AAL@ 005d2f98     LIBCMTD:wassert.obj
 0003:00018000       ??_C@_1FE@IIFBBPFI@?$AAw?$AAc?$AAs?$AAc?$AAa?$AAt?$AA_?$AAs?$AA?$CI?$AA?5?$AAa?$AAs?$AAs?$AAe?$AAr?$AAt?$AAb?$AAu?$AAf?$AA?0?$AA?5?$AA?$CI?$AA6?$AA0?$AA?5?$AA?$CK?$AA?5?$AA9?$AA?$CJ?$AA?0?$AA?5?$AAf@ 005d3000     LIBCMTD:wassert.obj
 0003:00018068       ??_C@_1IC@CFFJBMAD@?$AAw?$AAc?$AAs?$AAc?$AAa?$AAt?$AA_?$AAs?$AA?$CI?$AA?5?$AAa?$AAs?$AAs?$AAe?$AAr?$AAt?$AAb?$AAu?$AAf?$AA?0?$AA?5?$AA?$CI?$AA6?$AA0?$AA?5?$AA?$CK?$AA?5?$AA9?$AA?$CJ?$AA?0?$AA?5?$AAp@ 005d3068     LIBCMTD:wassert.obj
 0003:00018108       ??_C@_1HG@OJJMBIKO@?$AAw?$AAc?$AAs?$AAn?$AAc?$AAa?$AAt?$AA_?$AAs?$AA?$CI?$AA?5?$AAa?$AAs?$AAs?$AAe?$AAr?$AAt?$AAb?$AAu?$AAf?$AA?0?$AA?5?$AA?$CI?$AA6?$AA0?$AA?5?$AA?$CK?$AA?5?$AA9?$AA?$CJ?$AA?0?$AA?5@ 005d3108     LIBCMTD:wassert.obj
 0003:00018198       ??_C@_1GO@BIHLMMND@?$AAw?$AAc?$AAs?$AAn?$AAc?$AAa?$AAt?$AA_?$AAs?$AA?$CI?$AA?5?$AAa?$AAs?$AAs?$AAe?$AAr?$AAt?$AAb?$AAu?$AAf?$AA?0?$AA?5?$AA?$CI?$AA6?$AA0?$AA?5?$AA?$CK?$AA?5?$AA9?$AA?$CJ?$AA?0?$AA?5@ 005d3198     LIBCMTD:wassert.obj
 0003:00018220       ??_C@_1FO@IJLLDBEB@?$AAw?$AAc?$AAs?$AAc?$AAa?$AAt?$AA_?$AAs?$AA?$CI?$AA?5?$AAa?$AAs?$AAs?$AAe?$AAr?$AAt?$AAb?$AAu?$AAf?$AA?0?$AA?5?$AA?$CI?$AA6?$AA0?$AA?5?$AA?$CK?$AA?5?$AA9?$AA?$CJ?$AA?0?$AA?5?$AAp@ 005d3220     LIBCMTD:wassert.obj
 0003:00018290       ??_C@_1FG@CLEECKIJ@?$AAw?$AAc?$AAs?$AAc?$AAa?$AAt?$AA_?$AAs?$AA?$CI?$AA?5?$AAa?$AAs?$AAs?$AAe?$AAr?$AAt?$AAb?$AAu?$AAf?$AA?0?$AA?5?$AA?$CI?$AA6?$AA0?$AA?5?$AA?$CK?$AA?5?$AA9?$AA?$CJ?$AA?0?$AA?5?$AAd@ 005d3290     LIBCMTD:wassert.obj
 0003:000182f8       ??_C@_1GG@PMHOPJKA@?$AAw?$AAc?$AAs?$AAn?$AAc?$AAa?$AAt?$AA_?$AAs?$AA?$CI?$AA?5?$AAa?$AAs?$AAs?$AAe?$AAr?$AAt?$AAb?$AAu?$AAf?$AA?0?$AA?5?$AA?$CI?$AA6?$AA0?$AA?5?$AA?$CK?$AA?5?$AA9?$AA?$CJ?$AA?0?$AA?5@ 005d32f8     LIBCMTD:wassert.obj
 0003:00018374       ??_C@_1O@HEMHKNDC@?$AAF?$AAi?$AAl?$AAe?$AA?3?$AA?5?$AA?$AA@ 005d3374     LIBCMTD:wassert.obj
 0003:00018388       ??_C@_1FG@HIDBOJF@?$AAw?$AAc?$AAs?$AAc?$AAa?$AAt?$AA_?$AAs?$AA?$CI?$AA?5?$AAa?$AAs?$AAs?$AAe?$AAr?$AAt?$AAb?$AAu?$AAf?$AA?0?$AA?5?$AA?$CI?$AA6?$AA0?$AA?5?$AA?$CK?$AA?5?$AA9?$AA?$CJ?$AA?0?$AA?5?$AAL@ 005d3388     LIBCMTD:wassert.obj
 0003:000183f0       ??_C@_1FC@FFKGGIKO@?$AAw?$AAc?$AAs?$AAc?$AAa?$AAt?$AA_?$AAs?$AA?$CI?$AA?5?$AAa?$AAs?$AAs?$AAe?$AAr?$AAt?$AAb?$AAu?$AAf?$AA?0?$AA?5?$AA?$CI?$AA6?$AA0?$AA?5?$AA?$CK?$AA?5?$AA9?$AA?$CJ?$AA?0?$AA?5?$AAn@ 005d33f0     LIBCMTD:wassert.obj
 0003:00018458       ??_C@_1EK@BDNABPEK@?$AAw?$AAc?$AAs?$AAc?$AAa?$AAt?$AA_?$AAs?$AA?$CI?$AA?5?$AAa?$AAs?$AAs?$AAe?$AAr?$AAt?$AAb?$AAu?$AAf?$AA?0?$AA?5?$AA?$CI?$AA6?$AA0?$AA?5?$AA?$CK?$AA?5?$AA9?$AA?$CJ?$AA?0?$AA?5?$AAp@ 005d3458     LIBCMTD:wassert.obj
 0003:000184b0       ??_C@_1HK@JKBDGMGN@?$AAw?$AAc?$AAs?$AAn?$AAc?$AAp?$AAy?$AA_?$AAs?$AA?$CI?$AA?5?$AAp?$AAc?$AAh?$AA?0?$AA?5?$AA?$CI?$AA2?$AA6?$AA0?$AA?5?$AA?$CL?$AA?5?$AA1?$AA?$CJ?$AA?5?$AA?9?$AA?5?$AA?$CI?$AAp?$AAc?$AAh@ 005d34b0     LIBCMTD:wassert.obj
 0003:00018548       ??_C@_1HA@EPFCONEE@?$AAw?$AAc?$AAs?$AAc?$AAp?$AAy?$AA_?$AAs?$AA?$CI?$AA?5?$AAp?$AAr?$AAo?$AAg?$AAn?$AAa?$AAm?$AAe?$AA?0?$AA?5?$AA2?$AA6?$AA0?$AA?5?$AA?$CL?$AA?5?$AA1?$AA?0?$AA?5?$AAL?$AA?$CC?$AA?$DM@ 005d3548     LIBCMTD:wassert.obj
 0003:000185d0       ??_C@_1BE@PHKBBGE@?$AAP?$AAr?$AAo?$AAg?$AAr?$AAa?$AAm?$AA?3?$AA?5?$AA?$AA@ 005d35d0     LIBCMTD:wassert.obj
 0003:000185e8       ??_C@_1FM@LKICECBD@?$AAw?$AAc?$AAs?$AAc?$AAa?$AAt?$AA_?$AAs?$AA?$CI?$AA?5?$AAa?$AAs?$AAs?$AAe?$AAr?$AAt?$AAb?$AAu?$AAf?$AA?0?$AA?5?$AA?$CI?$AA6?$AA0?$AA?5?$AA?$CK?$AA?5?$AA9?$AA?$CJ?$AA?0?$AA?5?$AAL@ 005d35e8     LIBCMTD:wassert.obj
 0003:00018658       ??_C@_1FI@JIGMFG@?$AAw?$AAc?$AAs?$AAc?$AAa?$AAt?$AA_?$AAs?$AA?$CI?$AA?5?$AAa?$AAs?$AAs?$AAe?$AAr?$AAt?$AAb?$AAu?$AAf?$AA?0?$AA?5?$AA?$CI?$AA6?$AA0?$AA?5?$AA?$CK?$AA?5?$AA9?$AA?$CJ?$AA?0?$AA?5?$AAd@ 005d3658     LIBCMTD:wassert.obj
 0003:000186c4       ??_C@_1CE@OJBNHDMO@?$AAA?$AAs?$AAs?$AAe?$AAr?$AAt?$AAi?$AAo?$AAn?$AA?5?$AAf?$AAa?$AAi?$AAl?$AAe?$AAd?$AA?$CB?$AA?$AA@ 005d36c4     LIBCMTD:wassert.obj
 0003:000186f0       ??_C@_1GM@EFCJNBAA@?$AAw?$AAc?$AAs?$AAc?$AAp?$AAy?$AA_?$AAs?$AA?$CI?$AA?5?$AAa?$AAs?$AAs?$AAe?$AAr?$AAt?$AAb?$AAu?$AAf?$AA?0?$AA?5?$AA?$CI?$AA6?$AA0?$AA?5?$AA?$CK?$AA?5?$AA9?$AA?$CJ?$AA?0?$AA?5?$AAL@ 005d36f0     LIBCMTD:wassert.obj
 0003:00018774       ??_C@_1BC@LNOOMFNA@?$AA_?$AAw?$AAa?$AAs?$AAs?$AAe?$AAr?$AAt?$AA?$AA@ 005d3774     LIBCMTD:wassert.obj
 0003:00018790       ??_C@_1GA@COEIABIF@?$AAf?$AA?3?$AA?2?$AAd?$AAd?$AA?2?$AAv?$AAc?$AAt?$AAo?$AAo?$AAl?$AAs?$AA?2?$AAc?$AAr?$AAt?$AA_?$AAb?$AAl?$AAd?$AA?2?$AAs?$AAe?$AAl?$AAf?$AA_?$AAx?$AA8?$AA6?$AA?2?$AAc@ 005d3790     LIBCMTD:wassert.obj
 0003:00018804       ??_C@_03KHICJKCI@?4?4?4?$AA@ 005d3804     LIBCMTD:dbgrpt.obj
 0003:00018808       ??_C@_0BB@NAGLCMLI@Assertion?5Failed?$AA@ 005d3808     LIBCMTD:dbgrpt.obj
 0003:0001881c       ??_C@_05NAOIJFC@Error?$AA@ 005d381c     LIBCMTD:dbgrpt.obj
 0003:00018824       ??_C@_07KGMMFLDN@Warning?$AA@ 005d3824     LIBCMTD:dbgrpt.obj
 0003:00018840       ??_C@_1CG@GNMJDMIO@?$AA_?$AAC?$AAr?$AAt?$AAS?$AAe?$AAt?$AAR?$AAe?$AAp?$AAo?$AAr?$AAt?$AAH?$AAo?$AAo?$AAk?$AA2?$AA?$AA@ 005d3840     LIBCMTD:dbgrpt.obj
 0003:00018870       ??_C@_0CD@EBCGLDDL@Microsoft?5Visual?5C?$CL?$CL?5Debug?5Libra@ 005d3870     LIBCMTD:dbgrpt.obj
 0003:0001889c       ??_C@_0CL@EACFGMNB@_CrtDbgReport?3?5String?5too?5long?5o@ 005d389c     LIBCMTD:dbgrpt.obj
 0003:000188d0       ??_C@_1JG@CPKCIOEE@?$AAs?$AAt?$AAr?$AAc?$AAp?$AAy?$AA_?$AAs?$AA?$CI?$AAs?$AAz?$AAO?$AAu?$AAt?$AAM?$AAe?$AAs?$AAs?$AAa?$AAg?$AAe?$AA?0?$AA?5?$AA4?$AA0?$AA9?$AA6?$AA?0?$AA?5?$AA?$CC?$AA_?$AAC@ 005d38d0     LIBCMTD:dbgrpt.obj
 0003:00018988       ??_C@_0FF@CCONDJCB@Debug?5?$CFs?$CB?6?6Program?3?5?$CFs?$CFs?$CFs?$CFs?$CFs?$CFs@ 005d3988     LIBCMTD:dbgrpt.obj
 0003:000189f0       ??_C@_09OFBFHMBK@?6Module?3?5?$AA@ 005d39f0     LIBCMTD:dbgrpt.obj
 0003:000189fc       ??_C@_07OPHPPLBG@?6File?3?5?$AA@ 005d39fc     LIBCMTD:dbgrpt.obj
 0003:00018a08       ??_C@_07DBMPPHDI@?6Line?3?5?$AA@ 005d3a08     LIBCMTD:dbgrpt.obj
 0003:00018a14       ??_C@_02PHMGELLB@?6?6?$AA@ 005d3a14     LIBCMTD:dbgrpt.obj
 0003:00018a18       ??_C@_0N@MEECIJGN@Expression?3?5?$AA@ 005d3a18     LIBCMTD:dbgrpt.obj
 0003:00018a28       ??_C@_0HD@GNBNFCCL@?6?6For?5information?5on?5how?5your?5pr@ 005d3a28     LIBCMTD:dbgrpt.obj
 0003:00018ab4       ??_C@_0BH@DNAGHKFM@?$DMprogram?5name?5unknown?$DO?$AA@ 005d3ab4     LIBCMTD:dbgrpt.obj
 0003:00018ad0       ??_C@_1GG@DLDHOIGE@?$AAs?$AAt?$AAr?$AAc?$AAp?$AAy?$AA_?$AAs?$AA?$CI?$AAs?$AAz?$AAE?$AAx?$AAe?$AAN?$AAa?$AAm?$AAe?$AA?0?$AA?5?$AA2?$AA6?$AA0?$AA?0?$AA?5?$AA?$CC?$AA?$DM?$AAp?$AAr?$AAo?$AAg?$AAr@ 005d3ad0     LIBCMTD:dbgrpt.obj
 0003:00018b4c       ??_C@_1CI@IDOKFLAJ@?$AA_?$AA_?$AAc?$AAr?$AAt?$AAM?$AAe?$AAs?$AAs?$AAa?$AAg?$AAe?$AAW?$AAi?$AAn?$AAd?$AAo?$AAw?$AAA?$AA?$AA@ 005d3b4c     LIBCMTD:dbgrpt.obj
 0003:00018b7c       ??_C@_1CC@JLPHKJPH@?$AAc?$AAo?$AAu?$AAn?$AAt?$AA?5?$AA?$DM?$AA?$DN?$AA?5?$AAI?$AAN?$AAT?$AA_?$AAM?$AAA?$AAX?$AA?$AA@ 005d3b7c     LIBCMTD:strnicmp.obj
 0003:00018ba4       ??_C@_1BI@BJLEPLEF@?$AA_?$AAs?$AAt?$AAr?$AAn?$AAi?$AAc?$AAm?$AAp?$AA_?$AAl?$AA?$AA@ 005d3ba4     LIBCMTD:strnicmp.obj
 0003:00018bc0       ??_C@_1GE@CONPOJMA@?$AAf?$AA?3?$AA?2?$AAd?$AAd?$AA?2?$AAv?$AAc?$AAt?$AAo?$AAo?$AAl?$AAs?$AA?2?$AAc?$AAr?$AAt?$AA_?$AAb?$AAl?$AAd?$AA?2?$AAs?$AAe?$AAl?$AAf?$AA_?$AAx?$AA8?$AA6?$AA?2?$AAc@ 005d3bc0     LIBCMTD:strnicmp.obj
 0003:00018c38       ??_C@_1BE@BHJDFFNA@?$AA_?$AAs?$AAt?$AAr?$AAn?$AAi?$AAc?$AAm?$AAp?$AA?$AA@ 005d3c38     LIBCMTD:strnicmp.obj
 0003:00018c50       ??_C@_1BG@JBLBIELB@?$AA_?$AAm?$AAb?$AAs?$AAr?$AAc?$AAh?$AAr?$AA_?$AAl?$AA?$AA@ 005d3c50     LIBCMTD:mbsrchr.obj
 0003:00018c70       ??_C@_1GC@BCLIFEEN@?$AAf?$AA?3?$AA?2?$AAd?$AAd?$AA?2?$AAv?$AAc?$AAt?$AAo?$AAo?$AAl?$AAs?$AA?2?$AAc?$AAr?$AAt?$AA_?$AAb?$AAl?$AAd?$AA?2?$AAs?$AAe?$AAl?$AAf?$AA_?$AAx?$AA8?$AA6?$AA?2?$AAc@ 005d3c70     LIBCMTD:mbsrchr.obj
 0003:00018ce8       ??_C@_1BI@MFCLPIBM@?$AAs?$AAt?$AAr?$AA?5?$AA?$CB?$AA?$DN?$AA?5?$AAN?$AAU?$AAL?$AAL?$AA?$AA@ 005d3ce8     LIBCMTD:mbsrchr.obj
 0003:00018d04       ??_C@_1CK@EJMACHNH@?$AA?$CI?$AA?5?$AAs?$AAi?$AAz?$AAe?$AAI?$AAn?$AAC?$AAh?$AAa?$AAr?$AAs?$AA?5?$AA?$DO?$AA?$DN?$AA?5?$AA9?$AA?5?$AA?$CJ?$AA?$AA@ 005d3d04     LIBCMTD:strtime.obj
 0003:00018d38       ??_C@_1BG@GMOAACJH@?$AA_?$AAs?$AAt?$AAr?$AAt?$AAi?$AAm?$AAe?$AA_?$AAs?$AA?$AA@ 005d3d38     LIBCMTD:strtime.obj
 0003:00018d58       ??_C@_1GC@OHJDJFKC@?$AAf?$AA?3?$AA?2?$AAd?$AAd?$AA?2?$AAv?$AAc?$AAt?$AAo?$AAo?$AAl?$AAs?$AA?2?$AAc?$AAr?$AAt?$AA_?$AAb?$AAl?$AAd?$AA?2?$AAs?$AAe?$AAl?$AAf?$AA_?$AAx?$AA8?$AA6?$AA?2?$AAc@ 005d3d58     LIBCMTD:strtime.obj
 0003:00018dd0       ??_C@_1EM@GNJBJFJJ@?$AA?$CI?$AA?5?$AAb?$AAu?$AAf?$AAf?$AAe?$AAr?$AA?5?$AA?$CB?$AA?$DN?$AA?5?$AAN?$AAU?$AAL?$AAL?$AA?5?$AA?$CG?$AA?$CG?$AA?5?$AAs?$AAi?$AAz?$AAe?$AAI?$AAn?$AAC?$AAh?$AAa?$AAr?$AAs?$AA?5@ 005d3dd0     LIBCMTD:strtime.obj
 0003:00018e2c       ??_C@_1CG@GLMCLJFL@?$AA?$CI?$AAs?$AAi?$AAz?$AAe?$AAI?$AAn?$AAC?$AAh?$AAa?$AAr?$AAs?$AA?5?$AA?$DO?$AA?$DN?$AA?5?$AA9?$AA?$CJ?$AA?$AA@ 005d3e2c     LIBCMTD:strdate.obj
 0003:00018e5c       ??_C@_1BG@NHOFOCCH@?$AA_?$AAs?$AAt?$AAr?$AAd?$AAa?$AAt?$AAe?$AA_?$AAs?$AA?$AA@ 005d3e5c     LIBCMTD:strdate.obj
 0003:00018e78       ??_C@_1GC@FMJGHFBC@?$AAf?$AA?3?$AA?2?$AAd?$AAd?$AA?2?$AAv?$AAc?$AAt?$AAo?$AAo?$AAl?$AAs?$AA?2?$AAc?$AAr?$AAt?$AA_?$AAb?$AAl?$AAd?$AA?2?$AAs?$AAe?$AAl?$AAf?$AA_?$AAx?$AA8?$AA6?$AA?2?$AAc@ 005d3e78     LIBCMTD:strdate.obj
 0003:00018ef0       ??_C@_1EA@GEPBEDLJ@?$AAs?$AAt?$AAr?$AAn?$AAc?$AAp?$AAy?$AA_?$AAs?$AA?$CI?$AAt?$AAz?$AAn?$AAa?$AAm?$AAe?$AA?$FL?$AA1?$AA?$FN?$AA?0?$AA?5?$AA6?$AA4?$AA?0?$AA?5?$AAT?$AAZ?$AA?0?$AA?5?$AA3?$AA?$CJ?$AA?$AA@ 005d3ef0     LIBCMTD:tzset.obj
 0003:00018f40       ??_C@_1EA@FIJBKALB@?$AAs?$AAt?$AAr?$AAn?$AAc?$AAp?$AAy?$AA_?$AAs?$AA?$CI?$AAt?$AAz?$AAn?$AAa?$AAm?$AAe?$AA?$FL?$AA0?$AA?$FN?$AA?0?$AA?5?$AA6?$AA4?$AA?0?$AA?5?$AAT?$AAZ?$AA?0?$AA?5?$AA3?$AA?$CJ?$AA?$AA@ 005d3f40     LIBCMTD:tzset.obj
 0003:00018f90       ??_C@_1EK@MCAIMDPB@?$AAs?$AAt?$AAr?$AAc?$AAp?$AAy?$AA_?$AAs?$AA?$CI?$AAl?$AAa?$AAs?$AAt?$AAT?$AAZ?$AA?0?$AA?5?$AAs?$AAt?$AAr?$AAl?$AAe?$AAn?$AA?$CI?$AAT?$AAZ?$AA?$CJ?$AA?5?$AA?$CL?$AA?5?$AA1?$AA?0@ 005d3f90     LIBCMTD:tzset.obj
 0003:00018fe8       ??_C@_0CP@FODJBIFF@f?3?2dd?2vctools?2crt_bld?2self_x86?2c@ 005d3fe8     LIBCMTD:tzset.obj
 0003:00019020       ??_C@_02CLFPBFFP@TZ?$AA@   005d4020     LIBCMTD:tzset.obj
 0003:00019024       ??_C@_1CO@IMMOMMCB@?$AA_?$AAg?$AAe?$AAt?$AA_?$AAd?$AAs?$AAt?$AAb?$AAi?$AAa?$AAs?$AA?$CI?$AA?$CG?$AAd?$AAs?$AAt?$AAb?$AAi?$AAa?$AAs?$AA?$CJ?$AA?$AA@ 005d4024     LIBCMTD:tzset.obj
 0003:0001905c       ??_C@_1DC@MEHEMOPB@?$AA_?$AAg?$AAe?$AAt?$AA_?$AAd?$AAa?$AAy?$AAl?$AAi?$AAg?$AAh?$AAt?$AA?$CI?$AA?$CG?$AAd?$AAa?$AAy?$AAl?$AAi?$AAg?$AAh?$AAt?$AA?$CJ?$AA?$AA@ 005d405c     LIBCMTD:tzset.obj
 0003:00019098       ??_C@_1DC@CMKCHHFC@?$AA_?$AAg?$AAe?$AAt?$AA_?$AAt?$AAi?$AAm?$AAe?$AAz?$AAo?$AAn?$AAe?$AA?$CI?$AA?$CG?$AAt?$AAi?$AAm?$AAe?$AAz?$AAo?$AAn?$AAe?$AA?$CJ?$AA?$AA@ 005d4098     LIBCMTD:tzset.obj
 0003:000190d4       ??_C@_1BM@IIODHMJC@?$AA_?$AAt?$AAz?$AAs?$AAe?$AAt?$AA_?$AAn?$AAo?$AAl?$AAo?$AAc?$AAk?$AA?$AA@ 005d40d4     LIBCMTD:tzset.obj
 0003:000190f8       ??_C@_1FO@MLHAIHAB@?$AAf?$AA?3?$AA?2?$AAd?$AAd?$AA?2?$AAv?$AAc?$AAt?$AAo?$AAo?$AAl?$AAs?$AA?2?$AAc?$AAr?$AAt?$AA_?$AAb?$AAl?$AAd?$AA?2?$AAs?$AAe?$AAl?$AAf?$AA_?$AAx?$AA8?$AA6?$AA?2?$AAc@ 005d40f8     LIBCMTD:tzset.obj
 0003:00019168       ??_C@_1CA@GOLIIEDM@?$AA_?$AAi?$AAs?$AAi?$AAn?$AAd?$AAs?$AAt?$AA_?$AAn?$AAo?$AAl?$AAo?$AAc?$AAk?$AA?$AA@ 005d4168     LIBCMTD:tzset.obj
 0003:00019190       ??_C@_1BA@GOCKIDGO@?$AAc?$AAv?$AAt?$AAd?$AAa?$AAt?$AAe?$AA?$AA@ 005d4190     LIBCMTD:tzset.obj
 0003:000191a4       ??_C@_1BE@JKKFLIKJ@?$AA_?$AAm?$AAb?$AAs?$AAc?$AAh?$AAr?$AA_?$AAl?$AA?$AA@ 005d41a4     LIBCMTD:mbschr.obj
 0003:000191c0       ??_C@_1GA@GDCAGKMG@?$AAf?$AA?3?$AA?2?$AAd?$AAd?$AA?2?$AAv?$AAc?$AAt?$AAo?$AAo?$AAl?$AAs?$AA?2?$AAc?$AAr?$AAt?$AA_?$AAb?$AAl?$AAd?$AA?2?$AAs?$AAe?$AAl?$AAf?$AA_?$AAx?$AA8?$AA6?$AA?2?$AAc@ 005d41c0     LIBCMTD:mbschr.obj
 0003:00019234       ??_C@_1BO@JIBAMMGI@?$AAs?$AAt?$AAr?$AAi?$AAn?$AAg?$AA?5?$AA?$CB?$AA?$DN?$AA?5?$AAN?$AAU?$AAL?$AAL?$AA?$AA@ 005d4234     LIBCMTD:mbschr.obj
 0003:00019258       ??_C@_1BE@CHNFPLHD@?$AA_?$AAs?$AAn?$AAp?$AAr?$AAi?$AAn?$AAt?$AAf?$AA?$AA@ 005d4258     LIBCMTD:snprintf.obj
 0003:00019270       ??_C@_1O@GKDHFACN@?$AAp?$AAr?$AAi?$AAn?$AAt?$AAf?$AA?$AA@ 005d4270     LIBCMTD:printf.obj
 0003:00019280       ??_C@_1GA@LHEGHOAF@?$AAf?$AA?3?$AA?2?$AAd?$AAd?$AA?2?$AAv?$AAc?$AAt?$AAo?$AAo?$AAl?$AAs?$AA?2?$AAc?$AAr?$AAt?$AA_?$AAb?$AAl?$AAd?$AA?2?$AAs?$AAe?$AAl?$AAf?$AA_?$AAx?$AA8?$AA6?$AA?2?$AAc@ 005d4280     LIBCMTD:printf.obj
 0003:000192f4       ??_C@_1CI@KEDPFCAL@?$AA?$CI?$AA?$CK?$AAm?$AAo?$AAd?$AAe?$AA?5?$AA?$DN?$AA?$DN?$AA?5?$AA_?$AAT?$AA?$CI?$AA?8?$AA?2?$AA0?$AA?8?$AA?$CJ?$AA?$CJ?$AA?$AA@ 005d42f4     LIBCMTD:fdopen.obj
 0003:00019324       ??_C@_1DK@PKMJBLLN@?$AA?$CI?$AA?$CC?$AAI?$AAn?$AAv?$AAa?$AAl?$AAi?$AAd?$AA?5?$AAf?$AAi?$AAl?$AAe?$AA?5?$AAo?$AAp?$AAe?$AAn?$AA?5?$AAm?$AAo?$AAd?$AAe?$AA?$CC?$AA?0?$AA0?$AA?$CJ?$AA?$AA@ 005d4324     LIBCMTD:fdopen.obj
 0003:0001936c       ??_C@_1DG@LNNHNFHJ@?$AA?$CI?$AA_?$AAo?$AAs?$AAf?$AAi?$AAl?$AAe?$AA?$CI?$AAf?$AAi?$AAl?$AAe?$AAd?$AAe?$AAs?$AA?$CJ?$AA?5?$AA?$CG?$AA?5?$AAF?$AAO?$AAP?$AAE?$AAN?$AA?$CJ?$AA?$AA@ 005d436c     LIBCMTD:fdopen.obj
 0003:000193b0       ??_C@_1HC@KFLBHHBC@?$AA?$CI?$AAf?$AAi?$AAl?$AAe?$AAd?$AAe?$AAs?$AA?5?$AA?$DO?$AA?$DN?$AA?5?$AA0?$AA?5?$AA?$CG?$AA?$CG?$AA?5?$AA?$CI?$AAu?$AAn?$AAs?$AAi?$AAg?$AAn?$AAe?$AAd?$AA?$CJ?$AAf?$AAi?$AAl?$AAe?$AAd@ 005d43b0     LIBCMTD:fdopen.obj
 0003:00019438       ??_C@_1BA@FMAFIKI@?$AA_?$AAf?$AAd?$AAo?$AAp?$AAe?$AAn?$AA?$AA@ 005d4438     LIBCMTD:fdopen.obj
 0003:00019450       ??_C@_1GA@CEENENNF@?$AAf?$AA?3?$AA?2?$AAd?$AAd?$AA?2?$AAv?$AAc?$AAt?$AAo?$AAo?$AAl?$AAs?$AA?2?$AAc?$AAr?$AAt?$AA_?$AAb?$AAl?$AAd?$AA?2?$AAs?$AAe?$AAl?$AAf?$AA_?$AAx?$AA8?$AA6?$AA?2?$AAc@ 005d4450     LIBCMTD:fdopen.obj
 0003:000194c4       ??_C@_1BK@HGLMNMEC@?$AAm?$AAo?$AAd?$AAe?$AA?5?$AA?$CB?$AA?$DN?$AA?5?$AAN?$AAU?$AAL?$AAL?$AA?$AA@ 005d44c4     LIBCMTD:fdopen.obj
 0003:000194e4       ??_C@_1DI@GIHAGANP@?$AA?$CI?$AA?$CI?$AAu?$AAn?$AAs?$AAi?$AAg?$AAn?$AAe?$AAd?$AA?$CJ?$AAf?$AAh?$AA2?$AA?5?$AA?$DM?$AA?5?$AA_?$AAN?$AAH?$AAA?$AAN?$AAD?$AAL?$AAE?$AA_?$AA?$CJ?$AA?$AA@ 005d44e4     LIBCMTD:dup2.obj
 0003:00019528       ??_C@_1CO@GFKLAENC@?$AA?$CI?$AA_?$AAo?$AAs?$AAf?$AAi?$AAl?$AAe?$AA?$CI?$AAf?$AAh?$AA1?$AA?$CJ?$AA?5?$AA?$CG?$AA?5?$AAF?$AAO?$AAP?$AAE?$AAN?$AA?$CJ?$AA?$AA@ 005d4528     LIBCMTD:dup2.obj
 0003:00019560       ??_C@_1M@KHHJPKPI@?$AA_?$AAd?$AAu?$AAp?$AA2?$AA?$AA@ 005d4560     LIBCMTD:dup2.obj
 0003:00019570       ??_C@_1FM@BPMPJNAP@?$AAf?$AA?3?$AA?2?$AAd?$AAd?$AA?2?$AAv?$AAc?$AAt?$AAo?$AAo?$AAl?$AAs?$AA?2?$AAc?$AAr?$AAt?$AA_?$AAb?$AAl?$AAd?$AA?2?$AAs?$AAe?$AAl?$AAf?$AA_?$AAx?$AA8?$AA6?$AA?2?$AAc@ 005d4570     LIBCMTD:dup2.obj
 0003:000195e0       ??_C@_1GC@EOODNGCK@?$AA?$CI?$AAf?$AAh?$AA1?$AA?5?$AA?$DO?$AA?$DN?$AA?5?$AA0?$AA?5?$AA?$CG?$AA?$CG?$AA?5?$AA?$CI?$AAu?$AAn?$AAs?$AAi?$AAg?$AAn?$AAe?$AAd?$AA?$CJ?$AAf?$AAh?$AA1?$AA?5?$AA?$DM?$AA?5?$AA?$CI?$AAu?$AAn@ 005d45e0     LIBCMTD:dup2.obj
 0003:00019658       ??_C@_1JE@ECKHFIFP@?$AA?$CI?$AA?$CC?$AAI?$AAn?$AAv?$AAa?$AAl?$AAi?$AAd?$AA?5?$AAf?$AAi?$AAl?$AAe?$AA?5?$AAd?$AAe?$AAs?$AAc?$AAr?$AAi?$AAp?$AAt?$AAo?$AAr?$AA?4?$AA?5?$AAF?$AAi?$AAl?$AAe?$AA?5@ 005d4658     LIBCMTD:dup2.obj
 0003:0001970c       ??_C@_0CO@JAFEJCGE@f?3?2dd?2vctools?2crt_bld?2self_x86?2c@ 005d470c     LIBCMTD:dup2.obj
 0003:00019744       ??_C@_0DB@KIKNCIEC@f?3?2dd?2vctools?2crt_bld?2self_x86?2c@ 005d4744     LIBCMTD:osfinfo.obj
 0003:00019780       ??_C@_1CM@OKGMMMDH@?$AA?$CI?$AA_?$AAo?$AAs?$AAf?$AAi?$AAl?$AAe?$AA?$CI?$AAf?$AAh?$AA?$CJ?$AA?5?$AA?$CG?$AA?5?$AAF?$AAO?$AAP?$AAE?$AAN?$AA?$CJ?$AA?$AA@ 005d4780     LIBCMTD:osfinfo.obj
 0003:000197b4       ??_C@_1BO@EMBOBGKE@?$AA_?$AAg?$AAe?$AAt?$AA_?$AAo?$AAs?$AAf?$AAh?$AAa?$AAn?$AAd?$AAl?$AAe?$AA?$AA@ 005d47b4     LIBCMTD:osfinfo.obj
 0003:000197d8       ??_C@_1GC@MLKLDJJG@?$AAf?$AA?3?$AA?2?$AAd?$AAd?$AA?2?$AAv?$AAc?$AAt?$AAo?$AAo?$AAl?$AAs?$AA?2?$AAc?$AAr?$AAt?$AA_?$AAb?$AAl?$AAd?$AA?2?$AAs?$AAe?$AAl?$AAf?$AA_?$AAx?$AA8?$AA6?$AA?2?$AAc@ 005d47d8     LIBCMTD:osfinfo.obj
 0003:00019850       ??_C@_1FO@LPCLHKGE@?$AA?$CI?$AAf?$AAh?$AA?5?$AA?$DO?$AA?$DN?$AA?5?$AA0?$AA?5?$AA?$CG?$AA?$CG?$AA?5?$AA?$CI?$AAu?$AAn?$AAs?$AAi?$AAg?$AAn?$AAe?$AAd?$AA?$CJ?$AAf?$AAh?$AA?5?$AA?$DM?$AA?5?$AA?$CI?$AAu?$AAn?$AAs?$AAi@ 005d4850     LIBCMTD:osfinfo.obj
 0003:000198c0       ??_C@_0CP@BNKDODJJ@f?3?2dd?2vctools?2crt_bld?2self_x86?2c@ 005d48c0     LIBCMTD:_file.obj
 0003:000198f8       ??_C@_1BK@FHMHFMNL@?$AA_?$AAv?$AAs?$AAn?$AAp?$AAr?$AAi?$AAn?$AAt?$AAf?$AA_?$AAl?$AA?$AA@ 005d48f8     LIBCMTD:vsnprint.obj
 0003:00019918       ??_C@_1DO@MOGEFOMO@?$AAs?$AAt?$AAr?$AAc?$AAp?$AAy?$AA_?$AAs?$AA?$CI?$AAm?$AAe?$AAm?$AAo?$AAr?$AAy?$AA?0?$AA?5?$AAs?$AAi?$AAz?$AAe?$AA?0?$AA?5?$AAs?$AAt?$AAr?$AAi?$AAn?$AAg?$AA?$CJ?$AA?$AA@ 005d4918     LIBCMTD:strdup.obj
 0003:00019964       ??_C@_1BI@CBNECNIC@?$AA_?$AAs?$AAt?$AAr?$AAd?$AAu?$AAp?$AA_?$AAd?$AAb?$AAg?$AA?$AA@ 005d4964     LIBCMTD:strdup.obj
 0003:00019980       ??_C@_1GA@JIPKHGPB@?$AAf?$AA?3?$AA?2?$AAd?$AAd?$AA?2?$AAv?$AAc?$AAt?$AAo?$AAo?$AAl?$AAs?$AA?2?$AAc?$AAr?$AAt?$AA_?$AAb?$AAl?$AAd?$AA?2?$AAs?$AAe?$AAl?$AAf?$AA_?$AAx?$AA8?$AA6?$AA?2?$AAc@ 005d4980     LIBCMTD:strdup.obj
 0003:000199f4       ??_C@_1CM@DCGCAFIP@?$AA?$CI?$AA?$CI?$AAa?$AAm?$AAo?$AAd?$AAe?$AA?5?$AA?$CG?$AA?5?$AA?$CI?$AA?$HO?$AA6?$AA?$CJ?$AA?$CJ?$AA?5?$AA?$DN?$AA?$DN?$AA?5?$AA0?$AA?$CJ?$AA?$AA@ 005d49f4     LIBCMTD:access.obj
 0003:00019a28       ??_C@_1BE@LKCFPEPG@?$AA_?$AAa?$AAc?$AAc?$AAe?$AAs?$AAs?$AA_?$AAs?$AA?$AA@ 005d4a28     LIBCMTD:access.obj
 0003:00019a40       ??_C@_1GA@ELNKGBFA@?$AAf?$AA?3?$AA?2?$AAd?$AAd?$AA?2?$AAv?$AAc?$AAt?$AAo?$AAo?$AAl?$AAs?$AA?2?$AAc?$AAr?$AAt?$AA_?$AAb?$AAl?$AAd?$AA?2?$AAs?$AAe?$AAl?$AAf?$AA_?$AAx?$AA8?$AA6?$AA?2?$AAc@ 005d4a40     LIBCMTD:access.obj
 0003:00019ab4       ??_C@_1BO@DPAOGEII@?$AA?$CI?$AAp?$AAa?$AAt?$AAh?$AA?5?$AA?$CB?$AA?$DN?$AA?5?$AAN?$AAU?$AAL?$AAL?$AA?$CJ?$AA?$AA@ 005d4ab4     LIBCMTD:access.obj
 0003:00019ad8       ??_C@_1BM@BMDEPKPP@?$AA_?$AAf?$AAu?$AAl?$AAl?$AAp?$AAa?$AAt?$AAh?$AA_?$AAd?$AAb?$AAg?$AA?$AA@ 005d4ad8     LIBCMTD:fullpath.obj
 0003:00019b00       ??_C@_1GE@EJNCNJPK@?$AAf?$AA?3?$AA?2?$AAd?$AAd?$AA?2?$AAv?$AAc?$AAt?$AAo?$AAo?$AAl?$AAs?$AA?2?$AAc?$AAr?$AAt?$AA_?$AAb?$AAl?$AAd?$AA?2?$AAs?$AAe?$AAl?$AAf?$AA_?$AAx?$AA8?$AA6?$AA?2?$AAc@ 005d4b00     LIBCMTD:fullpath.obj
 0003:00019b78       ??_C@_1BK@NOHKJANJ@?$AA?$CI?$AAm?$AAa?$AAx?$AAl?$AAe?$AAn?$AA?5?$AA?$DO?$AA?5?$AA0?$AA?$CJ?$AA?$AA@ 005d4b78     LIBCMTD:fullpath.obj
 0003:00019b98       ??_C@_0P@MIGLKIOC@CorExitProcess?$AA@ 005d4b98     LIBCMTD:crt0dat.obj
 0003:00019bac       ??_C@_1BI@BGOHAHKC@?$AAm?$AAs?$AAc?$AAo?$AAr?$AAe?$AAe?$AA?4?$AAd?$AAl?$AAl?$AA?$AA@ 005d4bac     LIBCMTD:crt0dat.obj
 0003:00019bc8       ??_C@_1CC@CDIPMFPD@?$AA_?$AAw?$AAp?$AAg?$AAm?$AAp?$AAt?$AAr?$AA?5?$AA?$CB?$AA?$DN?$AA?5?$AAN?$AAU?$AAL?$AAL?$AA?$AA@ 005d4bc8     LIBCMTD:crt0dat.obj
 0003:00019bf0       ??_C@_1BK@PNLDCCDP@?$AA_?$AAg?$AAe?$AAt?$AA_?$AAw?$AAp?$AAg?$AAm?$AAp?$AAt?$AAr?$AA?$AA@ 005d4bf0     LIBCMTD:crt0dat.obj
 0003:00019c10       ??_C@_1GC@DGCPEDNJ@?$AAf?$AA?3?$AA?2?$AAd?$AAd?$AA?2?$AAv?$AAc?$AAt?$AAo?$AAo?$AAl?$AAs?$AA?2?$AAc?$AAr?$AAt?$AA_?$AAb?$AAl?$AAd?$AA?2?$AAs?$AAe?$AAl?$AAf?$AA_?$AAx?$AA8?$AA6?$AA?2?$AAc@ 005d4c10     LIBCMTD:crt0dat.obj
 0003:00019c88       ??_C@_1BO@LKEBEKJP@?$AAp?$AAV?$AAa?$AAl?$AAu?$AAe?$AA?5?$AA?$CB?$AA?$DN?$AA?5?$AAN?$AAU?$AAL?$AAL?$AA?$AA@ 005d4c88     LIBCMTD:crt0dat.obj
 0003:00019cac       ??_C@_1CA@BBNAFCKO@?$AA_?$AAp?$AAg?$AAm?$AAp?$AAt?$AAr?$AA?5?$AA?$CB?$AA?$DN?$AA?5?$AAN?$AAU?$AAL?$AAL?$AA?$AA@ 005d4cac     LIBCMTD:crt0dat.obj
 0003:00019cd4       ??_C@_1BI@COAAPHJK@?$AA_?$AAg?$AAe?$AAt?$AA_?$AAp?$AAg?$AAm?$AAp?$AAt?$AAr?$AA?$AA@ 005d4cd4     LIBCMTD:crt0dat.obj
 0003:00019cf0       ??_C@_1GA@HNJOAPAE@?$AAf?$AA?3?$AA?2?$AAd?$AAd?$AA?2?$AAv?$AAc?$AAt?$AAo?$AAo?$AAl?$AAs?$AA?2?$AAc?$AAr?$AAt?$AA_?$AAb?$AAl?$AAd?$AA?2?$AAs?$AAe?$AAl?$AAf?$AA_?$AAx?$AA8?$AA6?$AA?2?$AAc@ 005d4cf0     LIBCMTD:setbuf.obj
 0003:00019d64       ??_C@_1BO@KIJENGPH@?$AAs?$AAt?$AAr?$AAe?$AAa?$AAm?$AA?5?$AA?$CB?$AA?$DN?$AA?5?$AAN?$AAU?$AAL?$AAL?$AA?$AA@ 005d4d64     LIBCMTD:setbuf.obj
 0003:00019d88       ??_C@_0DC@EFKEANPM@f?3?2dd?2vctools?2crt_bld?2self_x86?2c@ 005d4d88     LIBCMTD:threadex.obj
 0003:00019dc4       ??_C@_1BO@FIKPNENM@?$AA_?$AAb?$AAe?$AAg?$AAi?$AAn?$AAt?$AAh?$AAr?$AAe?$AAa?$AAd?$AAe?$AAx?$AA?$AA@ 005d4dc4     LIBCMTD:threadex.obj
 0003:00019de8       ??_C@_1GE@KFNOMGAL@?$AAf?$AA?3?$AA?2?$AAd?$AAd?$AA?2?$AAv?$AAc?$AAt?$AAo?$AAo?$AAl?$AAs?$AA?2?$AAc?$AAr?$AAt?$AA_?$AAb?$AAl?$AAd?$AA?2?$AAs?$AAe?$AAl?$AAf?$AA_?$AAx?$AA8?$AA6?$AA?2?$AAc@ 005d4de8     LIBCMTD:threadex.obj
 0003:00019e60       ??_C@_1CI@JCFHILLH@?$AAi?$AAn?$AAi?$AAt?$AAi?$AAa?$AAl?$AAc?$AAo?$AAd?$AAe?$AA?5?$AA?$CB?$AA?$DN?$AA?5?$AAN?$AAU?$AAL?$AAL?$AA?$AA@ 005d4e60     LIBCMTD:threadex.obj
 0003:00019e90       ??_C@_1BG@OMGGMME@?$AA_?$AAf?$AAt?$AAi?$AAm?$AAe?$AA6?$AA4?$AA_?$AAs?$AA?$AA@ 005d4e90     LIBCMTD:ftime64.obj
 0003:00019eb0       ??_C@_1GC@IFLFPLPB@?$AAf?$AA?3?$AA?2?$AAd?$AAd?$AA?2?$AAv?$AAc?$AAt?$AAo?$AAo?$AAl?$AAs?$AA?2?$AAc?$AAr?$AAt?$AA_?$AAb?$AAl?$AAd?$AA?2?$AAs?$AAe?$AAl?$AAf?$AA_?$AAx?$AA8?$AA6?$AA?2?$AAc@ 005d4eb0     LIBCMTD:ftime64.obj
 0003:00019f28       ??_C@_1BO@BCOPJGHK@?$AA?$CI?$AA?5?$AAt?$AAp?$AA?5?$AA?$CB?$AA?$DN?$AA?5?$AAN?$AAU?$AAL?$AAL?$AA?5?$AA?$CJ?$AA?$AA@ 005d4f28     LIBCMTD:ftime64.obj
 0003:00019f50       ??_C@_1GM@HFLCJPGH@?$AAs?$AAt?$AAr?$AAc?$AAp?$AAy?$AA_?$AAs?$AA?$CI?$AAe?$AAr?$AAr?$AAm?$AAs?$AAg?$AA?0?$AA?5?$AA?$CI?$AA9?$AA4?$AA?$CL?$AA3?$AA8?$AA?$CL?$AA2?$AA?$CJ?$AA?0?$AA?5?$AA_?$AAg?$AAe?$AAt@ 005d4f50     LIBCMTD:strerror.obj
 0003:00019fd4       ??_C@_1BC@CPPAPMCG@?$AAs?$AAt?$AAr?$AAe?$AAr?$AAr?$AAo?$AAr?$AA?$AA@ 005d4fd4     LIBCMTD:strerror.obj
 0003:00019ff0       ??_C@_1GE@IMODLDCP@?$AAf?$AA?3?$AA?2?$AAd?$AAd?$AA?2?$AAv?$AAc?$AAt?$AAo?$AAo?$AAl?$AAs?$AA?2?$AAc?$AAr?$AAt?$AA_?$AAb?$AAl?$AAd?$AA?2?$AAs?$AAe?$AAl?$AAf?$AA_?$AAx?$AA8?$AA6?$AA?2?$AAc@ 005d4ff0     LIBCMTD:strerror.obj
 0003:0001a068       ??_C@_0DC@PHLJOGAJ@f?3?2dd?2vctools?2crt_bld?2self_x86?2c@ 005d5068     LIBCMTD:strerror.obj
 0003:0001a0a8       ??_C@_0EA@FCLIIPNN@Visual?5C?$CL?$CL?5CRT?3?5Not?5enough?5memor@ 005d50a8     LIBCMTD:strerror.obj
 0003:0001a0f8       ??_C@_1JI@GAHGOJMC@?$AAs?$AAt?$AAr?$AAn?$AAc?$AAp?$AAy?$AA_?$AAs?$AA?$CI?$AAb?$AAu?$AAf?$AAf?$AAe?$AAr?$AA?0?$AA?5?$AAs?$AAi?$AAz?$AAe?$AAI?$AAn?$AAT?$AAC?$AAh?$AAa?$AAr?$AAs?$AA?0?$AA?5@ 005d50f8     LIBCMTD:strerror.obj
 0003:0001a1b0       ??_C@_1CC@JNJFIMGE@?$AAs?$AAi?$AAz?$AAe?$AAI?$AAn?$AAT?$AAC?$AAh?$AAa?$AAr?$AAs?$AA?5?$AA?$DO?$AA?5?$AA0?$AA?$AA@ 005d51b0     LIBCMTD:strerror.obj
 0003:0001a1d8       ??_C@_1BG@CLIBDOC@?$AAs?$AAt?$AAr?$AAe?$AAr?$AAr?$AAo?$AAr?$AA_?$AAs?$AA?$AA@ 005d51d8     LIBCMTD:strerror.obj
 0003:0001a1f4       ??_C@_1BO@PNINNIGK@?$AAb?$AAu?$AAf?$AAf?$AAe?$AAr?$AA?5?$AA?$CB?$AA?$DN?$AA?5?$AAN?$AAU?$AAL?$AAL?$AA?$AA@ 005d51f4     LIBCMTD:strerror.obj
 0003:0001a218       ??_C@_06PJIGMIJB@Client?$AA@ 005d5218     LIBCMTD:dbgheap.obj
 0003:0001a220       ??_C@_06KMEJCCGM@Ignore?$AA@ 005d5220     LIBCMTD:dbgheap.obj
 0003:0001a228       ??_C@_03OGPFLFLO@CRT?$AA@  005d5228     LIBCMTD:dbgheap.obj
 0003:0001a22c       ??_C@_06EFAGIKOH@Normal?$AA@ 005d522c     LIBCMTD:dbgheap.obj
 0003:0001a234       ??_C@_04HJMOFLDF@Free?$AA@ 005d5234     LIBCMTD:dbgheap.obj
 0003:0001a254       ??_C@_0DC@JEMAGEKG@Error?3?5memory?5allocation?3?5bad?5me@ 005d5254     LIBCMTD:dbgheap.obj
 0003:0001a290       ??_C@_0CF@BICKFLAF@Invalid?5allocation?5size?3?5?$CFIu?5byt@ 005d5290     LIBCMTD:dbgheap.obj
 0003:0001a2bc       ??_C@_02DKCKIIND@?$CFs?$AA@ 005d52bc     LIBCMTD:dbgheap.obj
 0003:0001a2c0       ??_C@_0CB@CCLOLAHO@Client?5hook?5allocation?5failure?4?6@ 005d52c0     LIBCMTD:dbgheap.obj
 0003:0001a2e8       ??_C@_0DF@BBEGIFEK@Client?5hook?5allocation?5failure?5a@ 005d52e8     LIBCMTD:dbgheap.obj
 0003:0001a328       ??_C@_1GC@DNJKKEAA@?$AAf?$AA?3?$AA?2?$AAd?$AAd?$AA?2?$AAv?$AAc?$AAt?$AAo?$AAo?$AAl?$AAs?$AA?2?$AAc?$AAr?$AAt?$AA_?$AAb?$AAl?$AAd?$AA?2?$AAs?$AAe?$AAl?$AAf?$AA_?$AAx?$AA8?$AA6?$AA?2?$AAc@ 005d5328     LIBCMTD:dbgheap.obj
 0003:0001a3a0       ??_C@_1CE@LJFEPPMP@?$AA_?$AAC?$AAr?$AAt?$AAC?$AAh?$AAe?$AAc?$AAk?$AAM?$AAe?$AAm?$AAo?$AAr?$AAy?$AA?$CI?$AA?$CJ?$AA?$AA@ 005d53a0     LIBCMTD:dbgheap.obj
 0003:0001a3cc       ??_C@_1CC@CKBDKDFF@?$AA_?$AAc?$AAa?$AAl?$AAl?$AAo?$AAc?$AA_?$AAd?$AAb?$AAg?$AA_?$AAi?$AAm?$AAp?$AAl?$AA?$AA@ 005d53cc     LIBCMTD:dbgheap.obj
 0003:0001a3f4       ??_C@_1DO@MEOGCGBN@?$AA?$CI?$AA_?$AAH?$AAE?$AAA?$AAP?$AA_?$AAM?$AAA?$AAX?$AAR?$AAE?$AAQ?$AA?5?$AA?1?$AA?5?$AAn?$AAN?$AAu?$AAm?$AA?$CJ?$AA?5?$AA?$DO?$AA?$DN?$AA?5?$AAn?$AAS?$AAi?$AAz?$AAe?$AA?$AA@ 005d53f4     LIBCMTD:dbgheap.obj
 0003:0001a440       ??_C@_1DE@KOOKLFBB@?$AA_?$AAp?$AAF?$AAi?$AAr?$AAs?$AAt?$AAB?$AAl?$AAo?$AAc?$AAk?$AA?5?$AA?$DN?$AA?$DN?$AA?5?$AAp?$AAO?$AAl?$AAd?$AAB?$AAl?$AAo?$AAc?$AAk?$AA?$AA@ 005d5440     LIBCMTD:dbgheap.obj
 0003:0001a480       ??_C@_1DC@GEFKNOOL@?$AA_?$AAp?$AAL?$AAa?$AAs?$AAt?$AAB?$AAl?$AAo?$AAc?$AAk?$AA?5?$AA?$DN?$AA?$DN?$AA?5?$AAp?$AAO?$AAl?$AAd?$AAB?$AAl?$AAo?$AAc?$AAk?$AA?$AA@ 005d5480     LIBCMTD:dbgheap.obj
 0003:0001a4c0       ??_C@_1GE@PCKLOLAO@?$AAf?$AAR?$AAe?$AAa?$AAl?$AAl?$AAo?$AAc?$AA?5?$AA?$HM?$AA?$HM?$AA?5?$AA?$CI?$AA?$CB?$AAf?$AAR?$AAe?$AAa?$AAl?$AAl?$AAo?$AAc?$AA?5?$AA?$CG?$AA?$CG?$AA?5?$AAp?$AAN?$AAe?$AAw?$AAB?$AAl@ 005d54c0     LIBCMTD:dbgheap.obj
 0003:0001a538       ??_C@_0DA@HFBKENN@Error?3?5possible?5heap?5corruption?5@ 005d5538     LIBCMTD:dbgheap.obj
 0003:0001a578       ??_C@_1IK@DCPKDGNH@?$AAp?$AAO?$AAl?$AAd?$AAB?$AAl?$AAo?$AAc?$AAk?$AA?9?$AA?$DO?$AAn?$AAL?$AAi?$AAn?$AAe?$AA?5?$AA?$DN?$AA?$DN?$AA?5?$AAI?$AAG?$AAN?$AAO?$AAR?$AAE?$AA_?$AAL?$AAI?$AAN?$AAE?$AA?5@ 005d5578     LIBCMTD:dbgheap.obj
 0003:0001a620       ??_C@_1EE@GFOPCECE@?$AA_?$AAC?$AAr?$AAt?$AAI?$AAs?$AAV?$AAa?$AAl?$AAi?$AAd?$AAH?$AAe?$AAa?$AAp?$AAP?$AAo?$AAi?$AAn?$AAt?$AAe?$AAr?$AA?$CI?$AAp?$AAU?$AAs?$AAe?$AAr?$AAD?$AAa?$AAt?$AAa@ 005d5620     LIBCMTD:dbgheap.obj
 0003:0001a678       ??_C@_0EM@LGFLMAGJ@The?5Block?5at?50x?$CFp?5was?5allocated?5@ 005d5678     LIBCMTD:dbgheap.obj
 0003:0001a6d8       ??_C@_0FA@EFEIGJKG@Error?3?5memory?5allocation?3?5bad?5me@ 005d56d8     LIBCMTD:dbgheap.obj
 0003:0001a738       ??_C@_0ED@GPCPBAGP@Invalid?5allocation?5size?3?5?$CFIu?5byt@ 005d5738     LIBCMTD:dbgheap.obj
 0003:0001a788       ??_C@_0CE@DOFMDOL@Client?5hook?5re?9allocation?5failur@ 005d5788     LIBCMTD:dbgheap.obj
 0003:0001a7b4       ??_C@_0DI@KKJPDPGM@Client?5hook?5re?9allocation?5failur@ 005d57b4     LIBCMTD:dbgheap.obj
 0003:0001a7f8       ??_C@_1BM@OKFKJCEN@?$AA_?$AAr?$AAe?$AAc?$AAa?$AAl?$AAl?$AAo?$AAc?$AA_?$AAd?$AAb?$AAg?$AA?$AA@ 005d57f8     LIBCMTD:dbgheap.obj
 0003:0001a81c       ??_C@_1DO@GOKJCEHJ@?$AA?$CI?$AA_?$AAH?$AAE?$AAA?$AAP?$AA_?$AAM?$AAA?$AAX?$AAR?$AAE?$AAQ?$AA?5?$AA?1?$AA?5?$AAc?$AAo?$AAu?$AAn?$AAt?$AA?$CJ?$AA?5?$AA?$DO?$AA?$DN?$AA?5?$AAs?$AAi?$AAz?$AAe?$AA?$AA@ 005d581c     LIBCMTD:dbgheap.obj
 0003:0001a868       ??_C@_1BI@HAPNGHDP@?$AA_?$AAe?$AAx?$AAp?$AAa?$AAn?$AAd?$AA_?$AAd?$AAb?$AAg?$AA?$AA@ 005d5868     LIBCMTD:dbgheap.obj
 0003:0001a884       ??_C@_1CE@CJACEFBA@?$AAp?$AAU?$AAs?$AAe?$AAr?$AAD?$AAa?$AAt?$AAa?$AA?5?$AA?$CB?$AA?$DN?$AA?5?$AAN?$AAU?$AAL?$AAL?$AA?$AA@ 005d5884     LIBCMTD:dbgheap.obj
 0003:0001a8b0       ??_C@_1CM@MMAADDMD@?$AA_?$AAp?$AAF?$AAi?$AAr?$AAs?$AAt?$AAB?$AAl?$AAo?$AAc?$AAk?$AA?5?$AA?$DN?$AA?$DN?$AA?5?$AAp?$AAH?$AAe?$AAa?$AAd?$AA?$AA@ 005d58b0     LIBCMTD:dbgheap.obj
 0003:0001a8e4       ??_C@_1CK@DMAGEMBG@?$AA_?$AAp?$AAL?$AAa?$AAs?$AAt?$AAB?$AAl?$AAo?$AAc?$AAk?$AA?5?$AA?$DN?$AA?$DN?$AA?5?$AAp?$AAH?$AAe?$AAa?$AAd?$AA?$AA@ 005d58e4     LIBCMTD:dbgheap.obj
 0003:0001a918       ??_C@_1DM@ODCJIDCP@?$AAp?$AAH?$AAe?$AAa?$AAd?$AA?9?$AA?$DO?$AAn?$AAB?$AAl?$AAo?$AAc?$AAk?$AAU?$AAs?$AAe?$AA?5?$AA?$DN?$AA?$DN?$AA?5?$AAn?$AAB?$AAl?$AAo?$AAc?$AAk?$AAU?$AAs?$AAe?$AA?$AA@ 005d5918     LIBCMTD:dbgheap.obj
 0003:0001a960       ??_C@_1HK@HPCBMDFG@?$AAp?$AAH?$AAe?$AAa?$AAd?$AA?9?$AA?$DO?$AAn?$AAL?$AAi?$AAn?$AAe?$AA?5?$AA?$DN?$AA?$DN?$AA?5?$AAI?$AAG?$AAN?$AAO?$AAR?$AAE?$AA_?$AAL?$AAI?$AAN?$AAE?$AA?5?$AA?$CG?$AA?$CG?$AA?5?$AAp@ 005d5960     LIBCMTD:dbgheap.obj
 0003:0001a9f8       ??_C@_0IG@LEMBDCJK@HEAP?5CORRUPTION?5DETECTED?3?5after?5@ 005d59f8     LIBCMTD:dbgheap.obj
 0003:0001aa98       ??_C@_0KE@MBMNHHHN@HEAP?5CORRUPTION?5DETECTED?3?5after?5@ 005d5a98     LIBCMTD:dbgheap.obj
 0003:0001ab60       ??_C@_0IK@PJCGLBOB@HEAP?5CORRUPTION?5DETECTED?3?5before@ 005d5b60     LIBCMTD:dbgheap.obj
 0003:0001ac08       ??_C@_0KI@JGFOHMEB@HEAP?5CORRUPTION?5DETECTED?3?5before@ 005d5c08     LIBCMTD:dbgheap.obj
 0003:0001acd4       ??_C@_0BL@KEIPLFAC@Client?5hook?5free?5failure?4?6?$AA@ 005d5cd4     LIBCMTD:dbgheap.obj
 0003:0001acf8       ??_C@_0EJ@HEIBCIMJ@The?5Block?5at?50x?$CFp?5was?5allocated?5@ 005d5cf8     LIBCMTD:dbgheap.obj
 0003:0001ad50       ??_C@_1BG@MBKOGDLD@?$AA_?$AAm?$AAs?$AAi?$AAz?$AAe?$AA_?$AAd?$AAb?$AAg?$AA?$AA@ 005d5d50     LIBCMTD:dbgheap.obj
 0003:0001ad6c       ??_C@_0CI@JMLBEDHJ@?$CFhs?5located?5at?50x?$CFp?5is?5?$CFIu?5bytes@ 005d5d6c     LIBCMTD:dbgheap.obj
 0003:0001ada0       ??_C@_0EG@DGJMPDBH@?$CFhs?5located?5at?50x?$CFp?5is?5?$CFIu?5bytes@ 005d5da0     LIBCMTD:dbgheap.obj
 0003:0001adf8       ??_C@_0IC@BBJIOOJH@HEAP?5CORRUPTION?5DETECTED?3?5on?5top@ 005d5df8     LIBCMTD:dbgheap.obj
 0003:0001ae98       ??_C@_0KA@IHNJJKPL@HEAP?5CORRUPTION?5DETECTED?3?5on?5top@ 005d5e98     LIBCMTD:dbgheap.obj
 0003:0001af58       ??_C@_07OHKEFPKJ@DAMAGED?$AA@ 005d5f58     LIBCMTD:dbgheap.obj
 0003:0001af64       ??_C@_0CL@HNNNMKMJ@_heapchk?5fails?5with?5unknown?5retu@ 005d5f64     LIBCMTD:dbgheap.obj
 0003:0001af98       ??_C@_0CC@MFFCHFHO@_heapchk?5fails?5with?5_HEAPBADPTR?4@ 005d5f98     LIBCMTD:dbgheap.obj
 0003:0001afc0       ??_C@_0CC@MJGLGBDG@_heapchk?5fails?5with?5_HEAPBADEND?4@ 005d5fc0     LIBCMTD:dbgheap.obj
 0003:0001afe8       ??_C@_0CD@CPKEAPBD@_heapchk?5fails?5with?5_HEAPBADNODE@ 005d5fe8     LIBCMTD:dbgheap.obj
 0003:0001b014       ??_C@_0CE@MKKHMBMK@_heapchk?5fails?5with?5_HEAPBADBEGI@ 005d6014     LIBCMTD:dbgheap.obj
 0003:0001b040       ??_C@_1BO@GJFDNMNF@?$AA_?$AAC?$AAr?$AAt?$AAS?$AAe?$AAt?$AAD?$AAb?$AAg?$AAF?$AAl?$AAa?$AAg?$AA?$AA@ 005d6040     LIBCMTD:dbgheap.obj
 0003:0001b068       ??_C@_1BHO@NNANJNF@?$AA?$CI?$AAf?$AAN?$AAe?$AAw?$AAB?$AAi?$AAt?$AAs?$AA?$DN?$AA?$DN?$AA_?$AAC?$AAR?$AAT?$AAD?$AAB?$AAG?$AA_?$AAR?$AAE?$AAP?$AAO?$AAR?$AAT?$AA_?$AAF?$AAL?$AAA?$AAG?$AA?$CJ?$AA?5@ 005d6068     LIBCMTD:dbgheap.obj
 0003:0001b234       ??_C@_1DE@GJCKCKEC@?$AA_?$AAC?$AAr?$AAt?$AAD?$AAo?$AAF?$AAo?$AAr?$AAA?$AAl?$AAl?$AAC?$AAl?$AAi?$AAe?$AAn?$AAt?$AAO?$AAb?$AAj?$AAe?$AAc?$AAt?$AAs?$AA?$AA@ 005d6234     LIBCMTD:dbgheap.obj
 0003:0001b274       ??_C@_1BI@CJGCEEDL@?$AAp?$AAf?$AAn?$AA?5?$AA?$CB?$AA?$DN?$AA?5?$AAN?$AAU?$AAL?$AAL?$AA?$AA@ 005d6274     LIBCMTD:dbgheap.obj
 0003:0001b290       ??_C@_0CB@EAAIGELO@Bad?5memory?5block?5found?5at?50x?$CFp?4?6@ 005d6290     LIBCMTD:dbgheap.obj
 0003:0001b2b8       ??_C@_0DP@LEFMFBOD@Bad?5memory?5block?5found?5at?50x?$CFp?4?6@ 005d62b8     LIBCMTD:dbgheap.obj
 0003:0001b304       ??_C@_1CE@NJJKELF@?$AA_?$AAC?$AAr?$AAt?$AAM?$AAe?$AAm?$AAC?$AAh?$AAe?$AAc?$AAk?$AAp?$AAo?$AAi?$AAn?$AAt?$AA?$AA@ 005d6304     LIBCMTD:dbgheap.obj
 0003:0001b330       ??_C@_1BM@MIMANDHC@?$AAs?$AAt?$AAa?$AAt?$AAe?$AA?5?$AA?$CB?$AA?$DN?$AA?5?$AAN?$AAU?$AAL?$AAL?$AA?$AA@ 005d6330     LIBCMTD:dbgheap.obj
 0003:0001b354       ??_C@_1CC@DFPEDFBP@?$AAn?$AAe?$AAw?$AAS?$AAt?$AAa?$AAt?$AAe?$AA?5?$AA?$CB?$AA?$DN?$AA?5?$AAN?$AAU?$AAL?$AAL?$AA?$AA@ 005d6354     LIBCMTD:dbgheap.obj
 0003:0001b37c       ??_C@_1CC@DHPFEMMN@?$AAo?$AAl?$AAd?$AAS?$AAt?$AAa?$AAt?$AAe?$AA?5?$AA?$CB?$AA?$DN?$AA?5?$AAN?$AAU?$AAL?$AAL?$AA?$AA@ 005d637c     LIBCMTD:dbgheap.obj
 0003:0001b3a4       ??_C@_1CE@PDIENACM@?$AA_?$AAC?$AAr?$AAt?$AAM?$AAe?$AAm?$AAD?$AAi?$AAf?$AAf?$AAe?$AAr?$AAe?$AAn?$AAc?$AAe?$AA?$AA@ 005d63a4     LIBCMTD:dbgheap.obj
 0003:0001b3d0       ??_C@_0BH@GFGKJDCO@Object?5dump?5complete?4?6?$AA@ 005d63d0     LIBCMTD:dbgheap.obj
 0003:0001b3ec       ??_C@_0DA@MDLBNIBM@crt?5block?5at?50x?$CFp?0?5subtype?5?$CFx?0?5?$CF@ 005d63ec     LIBCMTD:dbgheap.obj
 0003:0001b428       ??_C@_0CH@FAGDDGPN@normal?5block?5at?50x?$CFp?0?5?$CFIu?5bytes?5@ 005d6428     LIBCMTD:dbgheap.obj
 0003:0001b458       ??_C@_0DD@GHNAAKBB@client?5block?5at?50x?$CFp?0?5subtype?5?$CFx@ 005d6458     LIBCMTD:dbgheap.obj
 0003:0001b498       ??_C@_06PKLGBFGM@?$HL?$CFld?$HN?5?$AA@ 005d6498     LIBCMTD:dbgheap.obj
 0003:0001b4a0       ??_C@_0L@JMEFFCCJ@?$CFhs?$CI?$CFd?$CJ?5?3?5?$AA@ 005d64a0     LIBCMTD:dbgheap.obj
 0003:0001b4b0       ??_C@_0BE@OIEFNFL@?$CDFile?5Error?$CD?$CI?$CFd?$CJ?5?3?5?$AA@ 005d64b0     LIBCMTD:dbgheap.obj
 0003:0001b4c8       ??_C@_0BE@KCIPKCIA@Dumping?5objects?5?9?$DO?6?$AA@ 005d64c8     LIBCMTD:dbgheap.obj
 0003:0001b4e0       ??_C@_0BA@HJBKCELP@?5Data?3?5?$DM?$CFs?$DO?5?$CFs?6?$AA@ 005d64e0     LIBCMTD:dbgheap.obj
 0003:0001b4f4       ??_C@_1CG@LPFIACGM@?$AA_?$AAp?$AAr?$AAi?$AAn?$AAt?$AAM?$AAe?$AAm?$AAB?$AAl?$AAo?$AAc?$AAk?$AAD?$AAa?$AAt?$AAa?$AA?$AA@ 005d64f4     LIBCMTD:dbgheap.obj
 0003:0001b524       ??_C@_05MKKEDADM@?$CF?42X?5?$AA@ 005d6524     LIBCMTD:dbgheap.obj
 0003:0001b52c       ??_C@_0BI@JBFPOEJA@Detected?5memory?5leaks?$CB?6?$AA@ 005d652c     LIBCMTD:dbgheap.obj
 0003:0001b548       ??_C@_0BP@DEDHGGGI@Total?5allocations?3?5?$CFId?5bytes?4?6?$AA@ 005d6548     LIBCMTD:dbgheap.obj
 0003:0001b570       ??_C@_0CB@BLHDAFNE@Largest?5number?5used?3?5?$CFId?5bytes?4?6@ 005d6570     LIBCMTD:dbgheap.obj
 0003:0001b598       ??_C@_0BO@DACNIABB@?$CFId?5bytes?5in?5?$CFId?5?$CFhs?5Blocks?4?6?$AA@ 005d6598     LIBCMTD:dbgheap.obj
 0003:0001b5bc       ??_C@_1CM@MPNIBKGK@?$AA_?$AAC?$AAr?$AAt?$AAM?$AAe?$AAm?$AAD?$AAu?$AAm?$AAp?$AAS?$AAt?$AAa?$AAt?$AAi?$AAs?$AAt?$AAi?$AAc?$AAs?$AA?$AA@ 005d65bc     LIBCMTD:dbgheap.obj
 0003:0001b5f0       ??_C@_1DK@LFLKFPDA@?$AAo?$AAf?$AAf?$AAs?$AAe?$AAt?$AA?5?$AA?$DN?$AA?$DN?$AA?5?$AA0?$AA?5?$AA?$HM?$AA?$HM?$AA?5?$AAo?$AAf?$AAf?$AAs?$AAe?$AAt?$AA?5?$AA?$DM?$AA?5?$AAs?$AAi?$AAz?$AAe?$AA?$AA@ 005d65f0     LIBCMTD:dbgheap.obj
 0003:0001b638       ??_C@_1DG@DONCJBBJ@?$AA_?$AAa?$AAl?$AAi?$AAg?$AAn?$AAe?$AAd?$AA_?$AAo?$AAf?$AAf?$AAs?$AAe?$AAt?$AA_?$AAm?$AAa?$AAl?$AAl?$AAo?$AAc?$AA_?$AAd?$AAb?$AAg?$AA?$AA@ 005d6638     LIBCMTD:dbgheap.obj
 0003:0001b678       ??_C@_1CE@NPMGPNNP@?$AAI?$AAS?$AA_?$AA2?$AA_?$AAP?$AAO?$AAW?$AA_?$AAN?$AA?$CI?$AAa?$AAl?$AAi?$AAg?$AAn?$AA?$CJ?$AA?$AA@ 005d6678     LIBCMTD:dbgheap.obj
 0003:0001b6a4       ??_C@_1DI@NINIKFFK@?$AA_?$AAa?$AAl?$AAi?$AAg?$AAn?$AAe?$AAd?$AA_?$AAo?$AAf?$AAf?$AAs?$AAe?$AAt?$AA_?$AAr?$AAe?$AAa?$AAl?$AAl?$AAo?$AAc?$AA_?$AAd?$AAb?$AAg?$AA?$AA@ 005d66a4     LIBCMTD:dbgheap.obj
 0003:0001b6e8       ??_C@_0DL@PGHMMKNE@Damage?5before?50x?$CFp?5which?5was?5all@ 005d66e8     LIBCMTD:dbgheap.obj
 0003:0001b730       ??_C@_0EI@NDNJMAJK@The?5block?5at?50x?$CFp?5was?5not?5alloca@ 005d6730     LIBCMTD:dbgheap.obj
 0003:0001b788       ??_C@_1DK@MMLHIFFH@?$AA_?$AAa?$AAl?$AAi?$AAg?$AAn?$AAe?$AAd?$AA_?$AAo?$AAf?$AAf?$AAs?$AAe?$AAt?$AA_?$AAr?$AAe?$AAc?$AAa?$AAl?$AAl?$AAo?$AAc?$AA_?$AAd?$AAb?$AAg?$AA?$AA@ 005d6788     LIBCMTD:dbgheap.obj
 0003:0001b7d0       ??_C@_0EF@PGELACII@The?5block?5at?50x?$CFp?5was?5not?5alloca@ 005d67d0     LIBCMTD:dbgheap.obj
 0003:0001b824       ??_C@_1CG@CEGMHIMN@?$AA_?$AAa?$AAl?$AAi?$AAg?$AAn?$AAe?$AAd?$AA_?$AAm?$AAs?$AAi?$AAz?$AAe?$AA_?$AAd?$AAb?$AAg?$AA?$AA@ 005d6824     LIBCMTD:dbgheap.obj
 0003:0001b854       ??_C@_1CC@MOBIKHH@?$AAm?$AAe?$AAm?$AAb?$AAl?$AAo?$AAc?$AAk?$AA?5?$AA?$CB?$AA?$DN?$AA?5?$AAN?$AAU?$AAL?$AAL?$AA?$AA@ 005d6854     LIBCMTD:dbgheap.obj
 0003:0001b87c       __pDestructExceptionObject 005d687c     LIBCMTD:frame.obj
 0003:0001b880       ??_C@_0O@DPKOEFFH@bad?5exception?$AA@ 005d6880     LIBCMTD:frame.obj
 0003:0001b894       ??_7bad_exception@std@@6B@ 005d6894     LIBCMTD:frame.obj
 0003:0001b8a0       ??_C@_07LCBHPJJN@LC_TIME?$AA@ 005d68a0     LIBCMTD:setlocal.obj
 0003:0001b8ac       ??_C@_0L@DLHIECNL@LC_NUMERIC?$AA@ 005d68ac     LIBCMTD:setlocal.obj
 0003:0001b8bc       ??_C@_0M@MIENIKLA@LC_MONETARY?$AA@ 005d68bc     LIBCMTD:setlocal.obj
 0003:0001b8cc       ??_C@_08EADHIDAD@LC_CTYPE?$AA@ 005d68cc     LIBCMTD:setlocal.obj
 0003:0001b8d8       ??_C@_0L@KFJHEKIK@LC_COLLATE?$AA@ 005d68d8     LIBCMTD:setlocal.obj
 0003:0001b8e8       ??_C@_06NEFDFEKB@LC_ALL?$AA@ 005d68e8     LIBCMTD:setlocal.obj
 0003:0001b8f0       ___lc_category             005d68f0     LIBCMTD:setlocal.obj
 0003:0001b9e0       ??_C@_1GE@OLEIGPBJ@?$AAf?$AA?3?$AA?2?$AAd?$AAd?$AA?2?$AAv?$AAc?$AAt?$AAo?$AAo?$AAl?$AAs?$AA?2?$AAc?$AAr?$AAt?$AA_?$AAb?$AAl?$AAd?$AA?2?$AAs?$AAe?$AAl?$AAf?$AA_?$AAx?$AA8?$AA6?$AA?2?$AAc@ 005d69e0     LIBCMTD:setlocal.obj
 0003:0001ba58       ??_C@_1BKC@GGIENNAK@?$AA?$CI?$AA?$CI?$AAp?$AAt?$AAl?$AAo?$AAc?$AAi?$AA?9?$AA?$DO?$AAl?$AAc?$AA_?$AAc?$AAa?$AAt?$AAe?$AAg?$AAo?$AAr?$AAy?$AA?$FL?$AAc?$AAa?$AAt?$AAe?$AAg?$AAo?$AAr?$AAy?$AA?$FN?$AA?4@ 005d6a58     LIBCMTD:setlocal.obj
 0003:0001bc50       ??_C@_1CI@FGIONOJM@?$AA_?$AAc?$AAo?$AAn?$AAf?$AAi?$AAg?$AAt?$AAh?$AAr?$AAe?$AAa?$AAd?$AAl?$AAo?$AAc?$AAa?$AAl?$AAe?$AA?$AA@ 005d6c50     LIBCMTD:setlocal.obj
 0003:0001bc80       ??_C@_1GA@LDEGDKD@?$AA?$CI?$AA?$CC?$AAI?$AAn?$AAv?$AAa?$AAl?$AAi?$AAd?$AA?5?$AAp?$AAa?$AAr?$AAa?$AAm?$AAe?$AAt?$AAe?$AAr?$AA?5?$AAf?$AAo?$AAr?$AA?5?$AA_?$AAc?$AAo?$AAn?$AAf?$AAi?$AAg?$AAt@ 005d6c80     LIBCMTD:setlocal.obj
 0003:0001bcf4       ??_C@_0DC@JCPFNMID@f?3?2dd?2vctools?2crt_bld?2self_x86?2c@ 005d6cf4     LIBCMTD:setlocal.obj
 0003:0001bd30       ??_C@_1BE@DBJGBOJC@?$AAs?$AAe?$AAt?$AAl?$AAo?$AAc?$AAa?$AAl?$AAe?$AA?$AA@ 005d6d30     LIBCMTD:setlocal.obj
 0003:0001bd48       ??_C@_1FG@OHLFEKMC@?$AAL?$AAC?$AA_?$AAM?$AAI?$AAN?$AA?5?$AA?$DM?$AA?$DN?$AA?5?$AA_?$AAc?$AAa?$AAt?$AAe?$AAg?$AAo?$AAr?$AAy?$AA?5?$AA?$CG?$AA?$CG?$AA?5?$AA_?$AAc?$AAa?$AAt?$AAe?$AAg?$AAo?$AAr?$AAy@ 005d6d48     LIBCMTD:setlocal.obj
 0003:0001bdb0       ??_C@_1IA@PFIKKKFB@?$AAs?$AAt?$AAr?$AAn?$AAc?$AAp?$AAy?$AA_?$AAs?$AA?$CI?$AAl?$AAc?$AAt?$AAe?$AAm?$AAp?$AA?0?$AA?5?$AA?$CI?$AAs?$AAi?$AAz?$AAe?$AAo?$AAf?$AA?$CI?$AAl?$AAc?$AAt?$AAe?$AAm?$AAp@ 005d6db0     LIBCMTD:setlocal.obj
 0003:0001be4c       ??_C@_1CE@OFNHIOO@?$AA_?$AAs?$AAe?$AAt?$AAl?$AAo?$AAc?$AAa?$AAl?$AAe?$AA_?$AAn?$AAo?$AAl?$AAo?$AAc?$AAk?$AA?$AA@ 005d6e4c     LIBCMTD:setlocal.obj
 0003:0001be78       ??_C@_01ICJEACDI@?$DL?$AA@ 005d6e78     LIBCMTD:setlocal.obj
 0003:0001be7c       ??_C@_02BALPLPBG@?$DN?$DL?$AA@ 005d6e7c     LIBCMTD:setlocal.obj
 0003:0001be80       ??_C@_1GO@JALHLJEH@?$AAs?$AAt?$AAr?$AAc?$AAp?$AAy?$AA_?$AAs?$AA?$CI?$AAp?$AAc?$AAh?$AA?5?$AA?$CL?$AA?5?$AAs?$AAi?$AAz?$AAe?$AAo?$AAf?$AA?$CI?$AAi?$AAn?$AAt?$AA?$CJ?$AA?0?$AA?5?$AAc?$AAc?$AAh?$AA?5@ 005d6e80     LIBCMTD:setlocal.obj
 0003:0001bf04       ??_C@_1CG@IEFIICPK@?$AA_?$AAs?$AAe?$AAt?$AAl?$AAo?$AAc?$AAa?$AAl?$AAe?$AA_?$AAs?$AAe?$AAt?$AA_?$AAc?$AAa?$AAt?$AA?$AA@ 005d6f04     LIBCMTD:setlocal.obj
 0003:0001bf34       ??_C@_1DA@GDKKLCLM@?$AAs?$AAt?$AAr?$AAc?$AAa?$AAt?$AA_?$AAs?$AA?$CI?$AAp?$AAc?$AAh?$AA?0?$AA?5?$AAc?$AAc?$AAh?$AA?0?$AA?5?$AA?$CC?$AA?$DL?$AA?$CC?$AA?$CJ?$AA?$AA@ 005d6f34     LIBCMTD:setlocal.obj
 0003:0001bf70       ??_C@_1CG@NNFIJLDA@?$AA_?$AAs?$AAe?$AAt?$AAl?$AAo?$AAc?$AAa?$AAl?$AAe?$AA_?$AAg?$AAe?$AAt?$AA_?$AAa?$AAl?$AAl?$AA?$AA@ 005d6f70     LIBCMTD:setlocal.obj
 0003:0001bfa0       ??_C@_01NEMOKFLO@?$DN?$AA@ 005d6fa0     LIBCMTD:setlocal.obj
 0003:0001bfa8       ??_C@_1FA@MHAOOIBO@?$AAs?$AAt?$AAr?$AAc?$AAp?$AAy?$AA_?$AAs?$AA?$CI?$AAo?$AAu?$AAt?$AAp?$AAu?$AAt?$AA?0?$AA?5?$AAs?$AAi?$AAz?$AAe?$AAI?$AAn?$AAC?$AAh?$AAa?$AAr?$AAs?$AA?0?$AA?5?$AAc?$AAa@ 005d6fa8     LIBCMTD:setlocal.obj
 0003:0001c008       ??_C@_1IA@ONNFOEDA@?$AAs?$AAt?$AAr?$AAn?$AAc?$AAp?$AAy?$AA_?$AAs?$AA?$CI?$AAc?$AAa?$AAc?$AAh?$AAe?$AAi?$AAn?$AA?0?$AA?5?$AAc?$AAa?$AAc?$AAh?$AAe?$AAi?$AAn?$AAS?$AAi?$AAz?$AAe?$AA?0?$AA?5@ 005d7008     LIBCMTD:setlocal.obj
 0003:0001c0a8       ??_C@_1EG@MOMHKOD@?$AAs?$AAt?$AAr?$AAc?$AAp?$AAy?$AA_?$AAs?$AA?$CI?$AAo?$AAu?$AAt?$AAp?$AAu?$AAt?$AA?0?$AA?5?$AAs?$AAi?$AAz?$AAe?$AAI?$AAn?$AAC?$AAh?$AAa?$AAr?$AAs?$AA?0?$AA?5?$AA?$CC?$AAC@ 005d70a8     LIBCMTD:setlocal.obj
 0003:0001c0fc       ??_C@_1BM@OIIBLEFG@?$AA_?$AAe?$AAx?$AAp?$AAa?$AAn?$AAd?$AAl?$AAo?$AAc?$AAa?$AAl?$AAe?$AA?$AA@ 005d70fc     LIBCMTD:setlocal.obj
 0003:0001c120       ??_C@_1BGM@IJDLABMC@?$AAs?$AAt?$AAr?$AAc?$AAa?$AAt?$AA_?$AAs?$AA?$CI?$AAo?$AAu?$AAt?$AAs?$AAt?$AAr?$AA?0?$AA?5?$AAs?$AAi?$AAz?$AAe?$AAI?$AAn?$AAB?$AAy?$AAt?$AAe?$AAs?$AA?0?$AA?5?$AA?$CI?$AA?5@ 005d7120     LIBCMTD:setlocal.obj
 0003:0001c2d4       ??_C@_1BC@PIABMDIP@?$AA_?$AAs?$AAt?$AAr?$AAc?$AAa?$AAt?$AAs?$AA?$AA@ 005d72d4     LIBCMTD:setlocal.obj
 0003:0001c2f0       ??_C@_1MM@NOPMGFHF@?$AAs?$AAt?$AAr?$AAn?$AAc?$AAp?$AAy?$AA_?$AAs?$AA?$CI?$AAn?$AAa?$AAm?$AAe?$AAs?$AA?9?$AA?$DO?$AAs?$AAz?$AAC?$AAo?$AAd?$AAe?$AAP?$AAa?$AAg?$AAe?$AA?0?$AA?5?$AA?$CI?$AAs?$AAi@ 005d72f0     LIBCMTD:setlocal.obj
 0003:0001c3e8       ??_C@_1MG@PHNILIAG@?$AAs?$AAt?$AAr?$AAn?$AAc?$AAp?$AAy?$AA_?$AAs?$AA?$CI?$AAn?$AAa?$AAm?$AAe?$AAs?$AA?9?$AA?$DO?$AAs?$AAz?$AAC?$AAo?$AAu?$AAn?$AAt?$AAr?$AAy?$AA?0?$AA?5?$AA?$CI?$AAs?$AAi?$AAz@ 005d73e8     LIBCMTD:setlocal.obj
 0003:0001c4d8       ??_C@_1MM@BFEECMAF@?$AAs?$AAt?$AAr?$AAn?$AAc?$AAp?$AAy?$AA_?$AAs?$AA?$CI?$AAn?$AAa?$AAm?$AAe?$AAs?$AA?9?$AA?$DO?$AAs?$AAz?$AAL?$AAa?$AAn?$AAg?$AAu?$AAa?$AAg?$AAe?$AA?0?$AA?5?$AA?$CI?$AAs?$AAi@ 005d74d8     LIBCMTD:setlocal.obj
 0003:0001c5cc       ??_C@_03EGDHDPFD@_?4?0?$AA@ 005d75cc     LIBCMTD:setlocal.obj
 0003:0001c5d0       ??_C@_1NG@FMOPGKGG@?$AAs?$AAt?$AAr?$AAn?$AAc?$AAp?$AAy?$AA_?$AAs?$AA?$CI?$AAn?$AAa?$AAm?$AAe?$AAs?$AA?9?$AA?$DO?$AAs?$AAz?$AAC?$AAo?$AAd?$AAe?$AAP?$AAa?$AAg?$AAe?$AA?0?$AA?5?$AA?$CI?$AAs?$AAi@ 005d75d0     LIBCMTD:setlocal.obj
 0003:0001c6d0       ??_C@_1BK@CBMMLAGJ@?$AA_?$AA_?$AAl?$AAc?$AA_?$AAs?$AAt?$AAr?$AAt?$AAo?$AAl?$AAc?$AA?$AA@ 005d76d0     LIBCMTD:setlocal.obj
 0003:0001c6f0       ??_C@_01LFCBOECM@?4?$AA@   005d76f0     LIBCMTD:setlocal.obj
 0003:0001c6f4       ??_C@_01IDAFKMJL@_?$AA@    005d76f4     LIBCMTD:setlocal.obj
 0003:0001c6f8       ??_C@_1HC@IBDBLKCB@?$AAs?$AAt?$AAr?$AAc?$AAp?$AAy?$AA_?$AAs?$AA?$CI?$AAl?$AAo?$AAc?$AAa?$AAl?$AAe?$AA?0?$AA?5?$AAs?$AAi?$AAz?$AAe?$AAI?$AAn?$AAB?$AAy?$AAt?$AAe?$AAs?$AA?0?$AA?5?$AA?$CI?$AAc@ 005d76f8     LIBCMTD:setlocal.obj
 0003:0001c780       ??_C@_1BK@FGDJDEPG@?$AA_?$AA_?$AAl?$AAc?$AA_?$AAl?$AAc?$AAt?$AAo?$AAs?$AAt?$AAr?$AA?$AA@ 005d7780     LIBCMTD:setlocal.obj
 0003:0001c7a0       ??_C@_1M@LIIFKKLB@?$AAf?$AAp?$AAu?$AAt?$AAs?$AA?$AA@ 005d77a0     LIBCMTD:fputs.obj
 0003:0001c7b0       ??_C@_1FO@FFFEAAEI@?$AAf?$AA?3?$AA?2?$AAd?$AAd?$AA?2?$AAv?$AAc?$AAt?$AAo?$AAo?$AAl?$AAs?$AA?2?$AAc?$AAr?$AAt?$AA_?$AAb?$AAl?$AAd?$AA?2?$AAs?$AAe?$AAl?$AAf?$AA_?$AAx?$AA8?$AA6?$AA?2?$AAc@ 005d77b0     LIBCMTD:fputs.obj
 0003:0001c820       ??_C@_13NOLLCAOD@?$AA?$AA?$AA?$AA@ 005d7820     LIBCMTD:a_map.obj
 0003:0001c828       ??_C@_1GA@INJGGEBC@?$AAf?$AA?3?$AA?2?$AAd?$AAd?$AA?2?$AAv?$AAc?$AAt?$AAo?$AAo?$AAl?$AAs?$AA?2?$AAc?$AAr?$AAt?$AA_?$AAb?$AAl?$AAd?$AA?2?$AAs?$AAe?$AAl?$AAf?$AA_?$AAx?$AA8?$AA6?$AA?2?$AAc@ 005d7828     LIBCMTD:a_map.obj
 0003:0001c8a0       ??_C@_1FE@KNPCCODH@?$AA?$CI?$AA?$CC?$AAC?$AAo?$AAr?$AAr?$AAu?$AAp?$AAt?$AAe?$AAd?$AA?5?$AAp?$AAo?$AAi?$AAn?$AAt?$AAe?$AAr?$AA?5?$AAp?$AAa?$AAs?$AAs?$AAe?$AAd?$AA?5?$AAt?$AAo?$AA?5?$AA_?$AAf@ 005d78a0     LIBCMTD:a_map.obj
 0003:0001c908       ___newctype                005d7908     LIBCMTD:ctype.obj
 0003:0001cc08       __wctype                   005d7c08     LIBCMTD:ctype.obj
 0003:0001ce10       ___newclmap                005d7e10     LIBCMTD:ctype.obj
 0003:0001cf90       ___newcumap                005d7f90     LIBCMTD:ctype.obj
 0003:0001d2ac       ??_C@_1DG@NMBGBDM@?$AAp?$AAl?$AAo?$AAc?$AAi?$AA?9?$AA?$DO?$AAc?$AAt?$AAy?$AAp?$AAe?$AA1?$AA_?$AAr?$AAe?$AAf?$AAc?$AAo?$AAu?$AAn?$AAt?$AA?5?$AA?$DO?$AA?5?$AA0?$AA?$AA@ 005d82ac     LIBCMTD:initctyp.obj
 0003:0001d2f0       ??_C@_1GE@OCPKBDKE@?$AAf?$AA?3?$AA?2?$AAd?$AAd?$AA?2?$AAv?$AAc?$AAt?$AAo?$AAo?$AAl?$AAs?$AA?2?$AAc?$AAr?$AAt?$AA_?$AAb?$AAl?$AAd?$AA?2?$AAs?$AAe?$AAl?$AAf?$AA_?$AAx?$AA8?$AA6?$AA?2?$AAc@ 005d82f0     LIBCMTD:initctyp.obj
 0003:0001d368       ??_C@_0DC@EHLBFILA@f?3?2dd?2vctools?2crt_bld?2self_x86?2c@ 005d8368     LIBCMTD:initctyp.obj
 0003:0001d3a4       ??_C@_1BG@KCMPBBDK@?$AA_?$AAg?$AAe?$AAt?$AA_?$AAe?$AAr?$AAr?$AAn?$AAo?$AA?$AA@ 005d83a4     LIBCMTD:dosmap.obj
 0003:0001d3c0       ??_C@_1GA@MFGIMPNL@?$AAf?$AA?3?$AA?2?$AAd?$AAd?$AA?2?$AAv?$AAc?$AAt?$AAo?$AAo?$AAl?$AAs?$AA?2?$AAc?$AAr?$AAt?$AA_?$AAb?$AAl?$AAd?$AA?2?$AAs?$AAe?$AAl?$AAf?$AA_?$AAx?$AA8?$AA6?$AA?2?$AAc@ 005d83c0     LIBCMTD:dosmap.obj
 0003:0001d434       ??_C@_1BM@INIPHHDD@?$AA_?$AAg?$AAe?$AAt?$AA_?$AAd?$AAo?$AAs?$AAe?$AAr?$AAr?$AAn?$AAo?$AA?$AA@ 005d8434     LIBCMTD:dosmap.obj
 0003:0001d458       ??_C@_1BE@KFBKGHJC@?$AA_?$AAs?$AAt?$AAr?$AAt?$AAo?$AAd?$AA_?$AAl?$AA?$AA@ 005d8458     LIBCMTD:strtod.obj
 0003:0001d470       ??_C@_1GA@FMJPLFPN@?$AAf?$AA?3?$AA?2?$AAd?$AAd?$AA?2?$AAv?$AAc?$AAt?$AAo?$AAo?$AAl?$AAs?$AA?2?$AAc?$AAr?$AAt?$AA_?$AAb?$AAl?$AAd?$AA?2?$AAs?$AAe?$AAl?$AAf?$AA_?$AAx?$AA8?$AA6?$AA?2?$AAc@ 005d8470     LIBCMTD:strtod.obj
 0003:0001d4e4       ??_C@_1CM@HABGDNLJ@?$AAl?$AAe?$AAn?$AAg?$AAt?$AAh?$AA?5?$AA?$DM?$AA?5?$AAs?$AAi?$AAz?$AAe?$AAI?$AAn?$AAT?$AAC?$AAh?$AAa?$AAr?$AAs?$AA?$AA@ 005d84e4     LIBCMTD:xtoas.obj
 0003:0001d518       ??_C@_1DE@PCJGDBBD@?$AA2?$AA?5?$AA?$DM?$AA?$DN?$AA?5?$AAr?$AAa?$AAd?$AAi?$AAx?$AA?5?$AA?$CG?$AA?$CG?$AA?5?$AAr?$AAa?$AAd?$AAi?$AAx?$AA?5?$AA?$DM?$AA?$DN?$AA?5?$AA3?$AA6?$AA?$AA@ 005d8518     LIBCMTD:xtoas.obj
 0003:0001d558       ??_C@_1FA@MKGGAGEI@?$AAs?$AAi?$AAz?$AAe?$AAI?$AAn?$AAT?$AAC?$AAh?$AAa?$AAr?$AAs?$AA?5?$AA?$DO?$AA?5?$AA?$CI?$AAs?$AAi?$AAz?$AAe?$AA_?$AAt?$AA?$CJ?$AA?$CI?$AAi?$AAs?$AA_?$AAn?$AAe?$AAg?$AA?5?$AA?$DP@ 005d8558     LIBCMTD:xtoas.obj
 0003:0001d5b8       ??_C@_1O@GIMBNLEI@?$AAx?$AAt?$AAo?$AAa?$AA_?$AAs?$AA?$AA@ 005d85b8     LIBCMTD:xtoas.obj
 0003:0001d5c8       ??_C@_1FM@MFCBFCGB@?$AAf?$AA?3?$AA?2?$AAd?$AAd?$AA?2?$AAv?$AAc?$AAt?$AAo?$AAo?$AAl?$AAs?$AA?2?$AAc?$AAr?$AAt?$AA_?$AAb?$AAl?$AAd?$AA?2?$AAs?$AAe?$AAl?$AAf?$AA_?$AAx?$AA8?$AA6?$AA?2?$AAc@ 005d85c8     LIBCMTD:xtoas.obj
 0003:0001d638       ??_C@_1BI@ICGGMGLK@?$AAb?$AAu?$AAf?$AA?5?$AA?$CB?$AA?$DN?$AA?5?$AAN?$AAU?$AAL?$AAL?$AA?$AA@ 005d8638     LIBCMTD:xtoas.obj
 0003:0001d654       ??_C@_1BC@MJJNBNFN@?$AAx?$AA6?$AA4?$AAt?$AAo?$AAa?$AA_?$AAs?$AA?$AA@ 005d8654     LIBCMTD:xtoas.obj
 0003:0001d670       ??_C@_1HG@KNCBMCDD@?$AAf?$AA?3?$AA?2?$AAd?$AAd?$AA?2?$AAv?$AAc?$AAt?$AAo?$AAo?$AAl?$AAs?$AA?2?$AAc?$AAr?$AAt?$AA_?$AAb?$AAl?$AAd?$AA?2?$AAs?$AAe?$AAl?$AAf?$AA_?$AAx?$AA8?$AA6?$AA?2?$AAc@ 005d8670     LIBCMTD:typname.obj
 0003:0001d700       ??_C@_1CI@IDCGDBOP@?$AAp?$AAN?$AAo?$AAd?$AAe?$AA?9?$AA?$DO?$AAn?$AAe?$AAx?$AAt?$AA?5?$AA?$CB?$AA?$DN?$AA?5?$AAN?$AAU?$AAL?$AAL?$AA?$AA@ 005d8700     LIBCMTD:typname.obj
 0003:0001d730       ??_C@_1JK@MLBKHELP@?$AAs?$AAt?$AAr?$AAc?$AAp?$AAy?$AA_?$AAs?$AA?5?$AA?$CI?$AA?$CI?$AAc?$AAh?$AAa?$AAr?$AA?5?$AA?$CK?$AA?$CJ?$AA?$CI?$AA?$CI?$AAt?$AAy?$AAp?$AAe?$AA_?$AAi?$AAn?$AAf?$AAo?$AA?5?$AA?$CK?$AA?$CJ@ 005d8730     LIBCMTD:typname.obj
 0003:0001d7e8       ??_C@_1CM@OOICDMK@?$AAt?$AAy?$AAp?$AAe?$AA_?$AAi?$AAn?$AAf?$AAo?$AA?3?$AA?3?$AA_?$AAN?$AAa?$AAm?$AAe?$AA_?$AAb?$AAa?$AAs?$AAe?$AA?$AA@ 005d87e8     LIBCMTD:typname.obj
 0003:0001d820       ??_C@_1GI@EAJKJPED@?$AAs?$AAt?$AAr?$AAc?$AAp?$AAy?$AA_?$AAs?$AA?5?$AA?$CI?$AAp?$AAT?$AAm?$AAp?$AAT?$AAy?$AAp?$AAe?$AAN?$AAa?$AAm?$AAe?$AA?0?$AA?5?$AAl?$AAe?$AAn?$AA?$CL?$AA2?$AA?0?$AA?5?$AA?$CI@ 005d8820     LIBCMTD:typname.obj
 0003:0001d89c       ??_C@_1DO@OJJLFJPE@?$AAt?$AAy?$AAp?$AAe?$AA_?$AAi?$AAn?$AAf?$AAo?$AA?3?$AA?3?$AA_?$AAN?$AAa?$AAm?$AAe?$AA_?$AAb?$AAa?$AAs?$AAe?$AA_?$AAi?$AAn?$AAt?$AAe?$AAr?$AAn?$AAa?$AAl?$AA?$AA@ 005d889c     LIBCMTD:typname.obj
 0003:0001d8e8       ??_C@_0CP@MKONOLCI@f?3?2dd?2vctools?2crt_bld?2self_x86?2c@ 005d88e8     LIBCMTD:mlock.obj
 0003:0001d920       ??_C@_0O@NLDKAIKN@EncodePointer?$AA@ 005d8920     LIBCMTD:tidtable.obj
 0003:0001d930       ??_C@_1BK@DBDEIDLH@?$AAK?$AAE?$AAR?$AAN?$AAE?$AAL?$AA3?$AA2?$AA?4?$AAD?$AAL?$AAL?$AA?$AA@ 005d8930     LIBCMTD:tidtable.obj
 0003:0001d950       ??_C@_0O@KBPMFGHI@DecodePointer?$AA@ 005d8950     LIBCMTD:tidtable.obj
 0003:0001d960       ??_C@_0DC@LMJHGCKC@f?3?2dd?2vctools?2crt_bld?2self_x86?2c@ 005d8960     LIBCMTD:tidtable.obj
 0003:0001d99c       ??_C@_07PEJMOBNF@FlsFree?$AA@ 005d899c     LIBCMTD:tidtable.obj
 0003:0001d9a8       ??_C@_0M@JCPCPOEF@FlsSetValue?$AA@ 005d89a8     LIBCMTD:tidtable.obj
 0003:0001d9b8       ??_C@_0M@GDNOONDI@FlsGetValue?$AA@ 005d89b8     LIBCMTD:tidtable.obj
 0003:0001d9c8       ??_C@_08KNHFBNJ@FlsAlloc?$AA@ 005d89c8     LIBCMTD:tidtable.obj
 0003:0001d9e0       ??_C@_1DM@MADKGDLO@?$AA?$CI?$AAL?$AA?$CC?$AAB?$AAu?$AAf?$AAf?$AAe?$AAr?$AA?5?$AAi?$AAs?$AA?5?$AAt?$AAo?$AAo?$AA?5?$AAs?$AAm?$AAa?$AAl?$AAl?$AA?$CC?$AA?5?$AA?$CG?$AA?$CG?$AA?5?$AA0?$AA?$CJ?$AA?$AA@ 005d89e0     LIBCMTD:strcpy_s.obj
 0003:0001da28       ??_C@_1CI@HCPHDDLE@?$AAB?$AAu?$AAf?$AAf?$AAe?$AAr?$AA?5?$AAi?$AAs?$AA?5?$AAt?$AAo?$AAo?$AA?5?$AAs?$AAm?$AAa?$AAl?$AAl?$AA?$AA@ 005d8a28     LIBCMTD:strcpy_s.obj
 0003:0001da58       ??_C@_1CG@OFBJMIGJ@?$AA?$CI?$AA?$CI?$AA?$CI?$AA_?$AAS?$AAr?$AAc?$AA?$CJ?$AA?$CJ?$AA?$CJ?$AA?5?$AA?$CB?$AA?$DN?$AA?5?$AAN?$AAU?$AAL?$AAL?$AA?$AA@ 005d8a58     LIBCMTD:strcpy_s.obj
 0003:0001da88       ??_C@_1BC@CFJEPFGF@?$AAs?$AAt?$AAr?$AAc?$AAp?$AAy?$AA_?$AAs?$AA?$AA@ 005d8a88     LIBCMTD:strcpy_s.obj
 0003:0001daa0       ??_C@_1GI@BGBNCIMA@?$AAf?$AA?3?$AA?2?$AAd?$AAd?$AA?2?$AAv?$AAc?$AAt?$AAo?$AAo?$AAl?$AAs?$AA?2?$AAc?$AAr?$AAt?$AA_?$AAb?$AAl?$AAd?$AA?2?$AAs?$AAe?$AAl?$AAf?$AA_?$AAx?$AA8?$AA6?$AA?2?$AAc@ 005d8aa0     LIBCMTD:strcpy_s.obj
 0003:0001db20       ??_C@_1FC@NCPEPIBI@?$AA?$CI?$AA?$CI?$AA_?$AAD?$AAs?$AAt?$AA?$CJ?$AA?$CJ?$AA?5?$AA?$CB?$AA?$DN?$AA?5?$AAN?$AAU?$AAL?$AAL?$AA?5?$AA?$CG?$AA?$CG?$AA?5?$AA?$CI?$AA?$CI?$AA_?$AAS?$AAi?$AAz?$AAe?$AAI?$AAn?$AAB?$AAy?$AAt@ 005d8b20     LIBCMTD:strcpy_s.obj
 0003:0001db88       ??_C@_1NK@LOFHIHFC@?$AAf?$AAM?$AAo?$AAd?$AAe?$AA?5?$AA?$DN?$AA?$DN?$AA?5?$AA_?$AAC?$AAR?$AAT?$AAD?$AAB?$AAG?$AA_?$AAR?$AAE?$AAP?$AAO?$AAR?$AAT?$AA_?$AAM?$AAO?$AAD?$AAE?$AA?5?$AA?$HM?$AA?$HM?$AA?5@ 005d8b88     LIBCMTD:dbgrptt.obj
 0003:0001dc90       ??_C@_1CE@FIHIECNJ@?$AA_?$AAC?$AAr?$AAt?$AAS?$AAe?$AAt?$AAR?$AAe?$AAp?$AAo?$AAr?$AAt?$AAM?$AAo?$AAd?$AAe?$AA?$AA@ 005d8c90     LIBCMTD:dbgrptt.obj
 0003:0001dcc0       ??_C@_1GC@FIGJJMEN@?$AAf?$AA?3?$AA?2?$AAd?$AAd?$AA?2?$AAv?$AAc?$AAt?$AAo?$AAo?$AAl?$AAs?$AA?2?$AAc?$AAr?$AAt?$AA_?$AAb?$AAl?$AAd?$AA?2?$AAs?$AAe?$AAl?$AAf?$AA_?$AAx?$AA8?$AA6?$AA?2?$AAc@ 005d8cc0     LIBCMTD:dbgrptt.obj
 0003:0001dd38       ??_C@_1FA@IFFFOLDJ@?$AAn?$AAR?$AAp?$AAt?$AAT?$AAy?$AAp?$AAe?$AA?5?$AA?$DO?$AA?$DN?$AA?5?$AA0?$AA?5?$AA?$CG?$AA?$CG?$AA?5?$AAn?$AAR?$AAp?$AAt?$AAT?$AAy?$AAp?$AAe?$AA?5?$AA?$DM?$AA?5?$AA_?$AAC?$AAR?$AAT@ 005d8d38     LIBCMTD:dbgrptt.obj
 0003:0001dd98       ??_C@_1CE@IKKEDCME@?$AA_?$AAC?$AAr?$AAt?$AAS?$AAe?$AAt?$AAR?$AAe?$AAp?$AAo?$AAr?$AAt?$AAF?$AAi?$AAl?$AAe?$AA?$AA@ 005d8d98     LIBCMTD:dbgrptt.obj
 0003:0001ddc8       ??_C@_1HO@PJOFIKFE@?$AA_?$AAC?$AAr?$AAt?$AAD?$AAb?$AAg?$AAR?$AAe?$AAp?$AAo?$AAr?$AAt?$AA?3?$AA?5?$AAS?$AAt?$AAr?$AAi?$AAn?$AAg?$AA?5?$AAt?$AAo?$AAo?$AA?5?$AAl?$AAo?$AAn?$AAg?$AA?5?$AAo@ 005d8dc8     LIBCMTD:dbgrptt.obj
 0003:0001de60       ??_C@_1MC@IGEECMDB@?$AAw?$AAc?$AAs?$AAc?$AAp?$AAy?$AA_?$AAs?$AA?$CI?$AAs?$AAz?$AAO?$AAu?$AAt?$AAM?$AAe?$AAs?$AAs?$AAa?$AAg?$AAe?$AA2?$AA?0?$AA?5?$AA4?$AA0?$AA9?$AA6?$AA?0?$AA?5?$AAL?$AA?$CC@ 005d8e60     LIBCMTD:dbgrptt.obj
 0003:0001df48       ??_C@_1IM@OOKIFKOH@?$AAe?$AA?5?$AA?$DN?$AA?5?$AAm?$AAb?$AAs?$AAt?$AAo?$AAw?$AAc?$AAs?$AA_?$AAs?$AA?$CI?$AA?$CG?$AAr?$AAe?$AAt?$AA?0?$AA?5?$AAs?$AAz?$AAO?$AAu?$AAt?$AAM?$AAe?$AAs?$AAs?$AAa?$AAg@ 005d8f48     LIBCMTD:dbgrptt.obj
 0003:0001dff0       ??_C@_1FI@IBIOIHEG@?$AAs?$AAt?$AAr?$AAc?$AAp?$AAy?$AA_?$AAs?$AA?$CI?$AAs?$AAz?$AAO?$AAu?$AAt?$AAM?$AAe?$AAs?$AAs?$AAa?$AAg?$AAe?$AA?0?$AA?5?$AA4?$AA0?$AA9?$AA6?$AA?0?$AA?5?$AAs?$AAz?$AAL@ 005d8ff0     LIBCMTD:dbgrptt.obj
 0003:0001e05c       ??_C@_0M@IPILFDFN@?$CFs?$CI?$CFd?$CJ?5?3?5?$CFs?$AA@ 005d905c     LIBCMTD:dbgrptt.obj
 0003:0001e070       ??_C@_1EI@LDHJEDO@?$AAs?$AAt?$AAr?$AAc?$AAa?$AAt?$AA_?$AAs?$AA?$CI?$AAs?$AAz?$AAL?$AAi?$AAn?$AAe?$AAM?$AAe?$AAs?$AAs?$AAa?$AAg?$AAe?$AA?0?$AA?5?$AA4?$AA0?$AA9?$AA6?$AA?0?$AA?5?$AA?$CC?$AA?2@ 005d9070     LIBCMTD:dbgrptt.obj
 0003:0001e0c8       ??_C@_01LIIJDEN@?$AN?$AA@  005d90c8     LIBCMTD:dbgrptt.obj
 0003:0001e0d0       ??_C@_1EI@CACDLAFK@?$AAs?$AAt?$AAr?$AAc?$AAa?$AAt?$AA_?$AAs?$AA?$CI?$AAs?$AAz?$AAL?$AAi?$AAn?$AAe?$AAM?$AAe?$AAs?$AAs?$AAa?$AAg?$AAe?$AA?0?$AA?5?$AA4?$AA0?$AA9?$AA6?$AA?0?$AA?5?$AA?$CC?$AA?2@ 005d90d0     LIBCMTD:dbgrptt.obj
 0003:0001e128       ??_C@_1FK@NPGBPOFO@?$AAs?$AAt?$AAr?$AAc?$AAa?$AAt?$AA_?$AAs?$AA?$CI?$AAs?$AAz?$AAL?$AAi?$AAn?$AAe?$AAM?$AAe?$AAs?$AAs?$AAa?$AAg?$AAe?$AA?0?$AA?5?$AA4?$AA0?$AA9?$AA6?$AA?0?$AA?5?$AAs?$AAz@ 005d9128     LIBCMTD:dbgrptt.obj
 0003:0001e198       ??_C@_1KK@GIGAEDMO@?$AAs?$AAt?$AAr?$AAc?$AAp?$AAy?$AA_?$AAs?$AA?$CI?$AAs?$AAz?$AAL?$AAi?$AAn?$AAe?$AAM?$AAe?$AAs?$AAs?$AAa?$AAg?$AAe?$AA?0?$AA?5?$AA4?$AA0?$AA9?$AA6?$AA?0?$AA?5?$AAs?$AAz@ 005d9198     LIBCMTD:dbgrptt.obj
 0003:0001e264       ??_C@_0BC@LAIDCHCH@Assertion?5failed?$CB?$AA@ 005d9264     LIBCMTD:dbgrptt.obj
 0003:0001e27c       ??_C@_0BD@CAENFOHP@Assertion?5failed?3?5?$AA@ 005d927c     LIBCMTD:dbgrptt.obj
 0003:0001e298       ??_C@_1JI@GAALPGBM@?$AAs?$AAt?$AAr?$AAc?$AAp?$AAy?$AA_?$AAs?$AA?$CI?$AAs?$AAz?$AAU?$AAs?$AAe?$AAr?$AAM?$AAe?$AAs?$AAs?$AAa?$AAg?$AAe?$AA?0?$AA?5?$AA4?$AA0?$AA9?$AA6?$AA?0?$AA?5?$AA?$CC?$AA_@ 005d9298     LIBCMTD:dbgrptt.obj
 0003:0001e350       ??_C@_07BHGABMGB@?0?5Line?5?$AA@ 005d9350     LIBCMTD:dbgrptt.obj
 0003:0001e35c       ??_C@_0P@DFJNDPOP@?$DMfile?5unknown?$DO?$AA@ 005d935c     LIBCMTD:dbgrptt.obj
 0003:0001e370       ??_C@_0CG@BNGLOCEO@Second?5Chance?5Assertion?5Failed?3?5@ 005d9370     LIBCMTD:dbgrptt.obj
 0003:0001e3a0       ??_C@_1FA@JPHJBHEM@?$AA_?$AAi?$AAt?$AAo?$AAa?$AA_?$AAs?$AA?$CI?$AAn?$AAL?$AAi?$AAn?$AAe?$AA?0?$AA?5?$AAs?$AAz?$AAL?$AAi?$AAn?$AAe?$AAM?$AAe?$AAs?$AAs?$AAa?$AAg?$AAe?$AA?0?$AA?5?$AA4?$AA0@ 005d93a0     LIBCMTD:dbgrptt.obj
 0003:0001e400       ??_C@_1CA@KHJHLKA@?$AA_?$AAV?$AAC?$AAr?$AAt?$AAD?$AAb?$AAg?$AAR?$AAe?$AAp?$AAo?$AAr?$AAt?$AAA?$AA?$AA@ 005d9400     LIBCMTD:dbgrptt.obj
 0003:0001e428       ??_C@_1IE@CPGKIAGP@?$AAw?$AAc?$AAs?$AAt?$AAo?$AAm?$AAb?$AAs?$AA_?$AAs?$AA?$CI?$AA?$CG?$AAr?$AAe?$AAt?$AA?0?$AA?5?$AAs?$AAz?$AAa?$AAO?$AAu?$AAt?$AAM?$AAe?$AAs?$AAs?$AAa?$AAg?$AAe?$AA?0?$AA?5@ 005d9428     LIBCMTD:dbgrptt.obj
 0003:0001e4c8       ??_C@_0DP@GNPEPHJD@_CrtDbgReport?3?5String?5too?5long?5o@ 005d94c8     LIBCMTD:dbgrptt.obj
 0003:0001e518       ??_C@_1MA@LBAMNNOB@?$AAs?$AAt?$AAr?$AAc?$AAp?$AAy?$AA_?$AAs?$AA?$CI?$AAs?$AAz?$AAO?$AAu?$AAt?$AAM?$AAe?$AAs?$AAs?$AAa?$AAg?$AAe?$AA2?$AA?0?$AA?5?$AA4?$AA0?$AA9?$AA6?$AA?0?$AA?5?$AA?$CC?$AA_@ 005d9518     LIBCMTD:dbgrptt.obj
 0003:0001e600       ??_C@_1JC@EOAPFDLN@?$AAw?$AAc?$AAs?$AAt?$AAo?$AAm?$AAb?$AAs?$AA_?$AAs?$AA?$CI?$AA?$CI?$AA?$CI?$AAv?$AAo?$AAi?$AAd?$AA?5?$AA?$CK?$AA?$CJ?$AA0?$AA?$CJ?$AA?0?$AA?5?$AAs?$AAz?$AAO?$AAu?$AAt?$AAM?$AAe?$AAs@ 005d9600     LIBCMTD:dbgrptt.obj
 0003:0001e6b0       ??_C@_1FI@DBAIJPJE@?$AAw?$AAc?$AAs?$AAc?$AAp?$AAy?$AA_?$AAs?$AA?$CI?$AAs?$AAz?$AAO?$AAu?$AAt?$AAM?$AAe?$AAs?$AAs?$AAa?$AAg?$AAe?$AA?0?$AA?5?$AA4?$AA0?$AA9?$AA6?$AA?0?$AA?5?$AAs?$AAz?$AAL@ 005d96b0     LIBCMTD:dbgrptt.obj
 0003:0001e71c       ??_C@_1BI@JIDBEPIG@?$AA?$CF?$AAs?$AA?$CI?$AA?$CF?$AAd?$AA?$CJ?$AA?5?$AA?3?$AA?5?$AA?$CF?$AAs?$AA?$AA@ 005d971c     LIBCMTD:dbgrptt.obj
 0003:0001e738       ??_C@_1EK@PHCBEDKB@?$AAw?$AAc?$AAs?$AAc?$AAa?$AAt?$AA_?$AAs?$AA?$CI?$AAs?$AAz?$AAL?$AAi?$AAn?$AAe?$AAM?$AAe?$AAs?$AAs?$AAa?$AAg?$AAe?$AA?0?$AA?5?$AA4?$AA0?$AA9?$AA6?$AA?0?$AA?5?$AAL?$AA?$CC@ 005d9738     LIBCMTD:dbgrptt.obj
 0003:0001e790       ??_C@_13CMNBPIDO@?$AA?$AN?$AA?$AA@ 005d9790     LIBCMTD:dbgrptt.obj
 0003:0001e798       ??_C@_1EK@NMDFGHMF@?$AAw?$AAc?$AAs?$AAc?$AAa?$AAt?$AA_?$AAs?$AA?$CI?$AAs?$AAz?$AAL?$AAi?$AAn?$AAe?$AAM?$AAe?$AAs?$AAs?$AAa?$AAg?$AAe?$AA?0?$AA?5?$AA4?$AA0?$AA9?$AA6?$AA?0?$AA?5?$AAL?$AA?$CC@ 005d9798     LIBCMTD:dbgrptt.obj
 0003:0001e7f0       ??_C@_1FK@HPADHBBD@?$AAw?$AAc?$AAs?$AAc?$AAa?$AAt?$AA_?$AAs?$AA?$CI?$AAs?$AAz?$AAL?$AAi?$AAn?$AAe?$AAM?$AAe?$AAs?$AAs?$AAa?$AAg?$AAe?$AA?0?$AA?5?$AA4?$AA0?$AA9?$AA6?$AA?0?$AA?5?$AAs?$AAz@ 005d97f0     LIBCMTD:dbgrptt.obj
 0003:0001e860       ??_C@_1KO@DGAHENCH@?$AAw?$AAc?$AAs?$AAc?$AAp?$AAy?$AA_?$AAs?$AA?$CI?$AAs?$AAz?$AAL?$AAi?$AAn?$AAe?$AAM?$AAe?$AAs?$AAs?$AAa?$AAg?$AAe?$AA?0?$AA?5?$AA4?$AA0?$AA9?$AA6?$AA?0?$AA?5?$AAs?$AAz@ 005d9860     LIBCMTD:dbgrptt.obj
 0003:0001e930       ??_C@_1CG@FFFGGODN@?$AAA?$AAs?$AAs?$AAe?$AAr?$AAt?$AAi?$AAo?$AAn?$AA?5?$AAf?$AAa?$AAi?$AAl?$AAe?$AAd?$AA?3?$AA?5?$AA?$AA@ 005d9930     LIBCMTD:dbgrptt.obj
 0003:0001e960       ??_C@_1JK@KHFABAEO@?$AAw?$AAc?$AAs?$AAc?$AAp?$AAy?$AA_?$AAs?$AA?$CI?$AAs?$AAz?$AAU?$AAs?$AAe?$AAr?$AAM?$AAe?$AAs?$AAs?$AAa?$AAg?$AAe?$AA?0?$AA?5?$AA4?$AA0?$AA9?$AA6?$AA?0?$AA?5?$AAL?$AA?$CC@ 005d9960     LIBCMTD:dbgrptt.obj
 0003:0001ea18       ??_C@_1BA@ELMMDCFC@?$AA?0?$AA?5?$AAL?$AAi?$AAn?$AAe?$AA?5?$AA?$AA@ 005d9a18     LIBCMTD:dbgrptt.obj
 0003:0001ea2c       ??_C@_1BO@OCHMLCAG@?$AA?$DM?$AAf?$AAi?$AAl?$AAe?$AA?5?$AAu?$AAn?$AAk?$AAn?$AAo?$AAw?$AAn?$AA?$DO?$AA?$AA@ 005d9a2c     LIBCMTD:dbgrptt.obj
 0003:0001ea50       ??_C@_1EM@MJFLEDMB@?$AAS?$AAe?$AAc?$AAo?$AAn?$AAd?$AA?5?$AAC?$AAh?$AAa?$AAn?$AAc?$AAe?$AA?5?$AAA?$AAs?$AAs?$AAe?$AAr?$AAt?$AAi?$AAo?$AAn?$AA?5?$AAF?$AAa?$AAi?$AAl?$AAe?$AAd?$AA?3?$AA?5@ 005d9a50     LIBCMTD:dbgrptt.obj
 0003:0001eab0       ??_C@_1FA@CNLLOMHI@?$AA_?$AAi?$AAt?$AAo?$AAw?$AA_?$AAs?$AA?$CI?$AAn?$AAL?$AAi?$AAn?$AAe?$AA?0?$AA?5?$AAs?$AAz?$AAL?$AAi?$AAn?$AAe?$AAM?$AAe?$AAs?$AAs?$AAa?$AAg?$AAe?$AA?0?$AA?5?$AA4?$AA0@ 005d9ab0     LIBCMTD:dbgrptt.obj
 0003:0001eb10       ??_C@_1CA@HPALHDOD@?$AA_?$AAV?$AAC?$AAr?$AAt?$AAD?$AAb?$AAg?$AAR?$AAe?$AAp?$AAo?$AAr?$AAt?$AAW?$AA?$AA@ 005d9b10     LIBCMTD:dbgrptt.obj
 0003:0001eb38       ??_C@_1O@EJLDHPPL@?$AAs?$AAi?$AAg?$AAn?$AAa?$AAl?$AA?$AA@ 005d9b38     LIBCMTD:winsig.obj
 0003:0001eb48       ??_C@_1GA@DBECNFG@?$AAf?$AA?3?$AA?2?$AAd?$AAd?$AA?2?$AAv?$AAc?$AAt?$AAo?$AAo?$AAl?$AAs?$AA?2?$AAc?$AAr?$AAt?$AA_?$AAb?$AAl?$AAd?$AA?2?$AAs?$AAe?$AAl?$AAf?$AA_?$AAx?$AA8?$AA6?$AA?2?$AAc@ 005d9b48     LIBCMTD:winsig.obj
 0003:0001ebbc       ??_C@_1DO@MLNEDKGB@?$AA?$CI?$AA?$CC?$AAI?$AAn?$AAv?$AAa?$AAl?$AAi?$AAd?$AA?5?$AAs?$AAi?$AAg?$AAn?$AAa?$AAl?$AA?5?$AAo?$AAr?$AA?5?$AAe?$AAr?$AAr?$AAo?$AAr?$AA?$CC?$AA?0?$AA?5?$AA0?$AA?$CJ?$AA?$AA@ 005d9bbc     LIBCMTD:winsig.obj
 0003:0001ec08       ??_C@_0DA@ELJOOIJF@f?3?2dd?2vctools?2crt_bld?2self_x86?2c@ 005d9c08     LIBCMTD:winsig.obj
 0003:0001ec44       ??_C@_1M@DMJEIKHL@?$AAr?$AAa?$AAi?$AAs?$AAe?$AA?$AA@ 005d9c44     LIBCMTD:winsig.obj
 0003:0001ec54       ??_C@_0BI@DFKBFLJE@GetProcessWindowStation?$AA@ 005d9c54     LIBCMTD:crtmboxw.obj
 0003:0001ec70       ??_C@_0BK@DEKFELLI@GetUserObjectInformationW?$AA@ 005d9c70     LIBCMTD:crtmboxw.obj
 0003:0001ec90       ??_C@_0BD@HHGDFDBJ@GetLastActivePopup?$AA@ 005d9c90     LIBCMTD:crtmboxw.obj
 0003:0001eca8       ??_C@_0BA@HNOPNCHB@GetActiveWindow?$AA@ 005d9ca8     LIBCMTD:crtmboxw.obj
 0003:0001ecbc       ??_C@_0M@DLDCCGNP@MessageBoxW?$AA@ 005d9cbc     LIBCMTD:crtmboxw.obj
 0003:0001eccc       ??_C@_1BG@GOEBHBDC@?$AAU?$AAS?$AAE?$AAR?$AA3?$AA2?$AA?4?$AAD?$AAL?$AAL?$AA?$AA@ 005d9ccc     LIBCMTD:crtmboxw.obj
 0003:0001ece8       ??_C@_1BE@BMIJMLDD@?$AA_?$AAs?$AAw?$AAp?$AAr?$AAi?$AAn?$AAt?$AAf?$AA?$AA@ 005d9ce8     LIBCMTD:swprintf.obj
 0003:0001ed00       ??_C@_1GE@DKGHLBLP@?$AAf?$AA?3?$AA?2?$AAd?$AAd?$AA?2?$AAv?$AAc?$AAt?$AAo?$AAo?$AAl?$AAs?$AA?2?$AAc?$AAr?$AAt?$AA_?$AAb?$AAl?$AAd?$AA?2?$AAs?$AAe?$AAl?$AAf?$AA_?$AAx?$AA8?$AA6?$AA?2?$AAc@ 005d9d00     LIBCMTD:swprintf.obj
 0003:0001ed78       ??_C@_1BC@KIONAFPO@?$AAw?$AAc?$AAs?$AAc?$AAp?$AAy?$AA_?$AAs?$AA?$AA@ 005d9d78     LIBCMTD:wcscpy_s.obj
 0003:0001ed90       ??_C@_1FC@PFMLEHKI@?$AA?$CI?$AA?$CI?$AA_?$AAD?$AAs?$AAt?$AA?$CJ?$AA?$CJ?$AA?5?$AA?$CB?$AA?$DN?$AA?5?$AAN?$AAU?$AAL?$AAL?$AA?5?$AA?$CG?$AA?$CG?$AA?5?$AA?$CI?$AA?$CI?$AA_?$AAS?$AAi?$AAz?$AAe?$AAI?$AAn?$AAW?$AAo?$AAr@ 005d9d90     LIBCMTD:wcscpy_s.obj
 0003:0001edf8       ??_C@_1GG@CDHAPCGF@?$AAf?$AA?3?$AA?2?$AAd?$AAd?$AA?2?$AAv?$AAc?$AAt?$AAo?$AAo?$AAl?$AAs?$AA?2?$AAc?$AAr?$AAt?$AA_?$AAb?$AAl?$AAd?$AA?2?$AAs?$AAe?$AAl?$AAf?$AA_?$AAx?$AA8?$AA6?$AA?2?$AAc@ 005d9df8     LIBCMTD:handler.obj
 0003:0001ee74       ??_C@_1BC@JLLICHIC@?$AAp?$AAn?$AAh?$AA?5?$AA?$DN?$AA?$DN?$AA?5?$AA0?$AA?$AA@ 005d9e74     LIBCMTD:handler.obj
 0003:0001ee90       ??_C@_1HO@MLMGPAFH@?$AA?$CI?$AA?$CC?$AAi?$AAn?$AAc?$AAo?$AAn?$AAs?$AAi?$AAs?$AAt?$AAe?$AAn?$AAt?$AA?5?$AAI?$AAO?$AAB?$AA?5?$AAf?$AAi?$AAe?$AAl?$AAd?$AAs?$AA?$CC?$AA?0?$AA?5?$AAs?$AAt?$AAr?$AAe@ 005d9e90     LIBCMTD:_flsbuf.obj
 0003:0001ef28       ??_C@_1GC@GNCCMPNN@?$AAf?$AA?3?$AA?2?$AAd?$AAd?$AA?2?$AAv?$AAc?$AAt?$AAo?$AAo?$AAl?$AAs?$AA?2?$AAc?$AAr?$AAt?$AA_?$AAb?$AAl?$AAd?$AA?2?$AAs?$AAe?$AAl?$AAf?$AA_?$AAx?$AA8?$AA6?$AA?2?$AAc@ 005d9f28     LIBCMTD:_flsbuf.obj
 0003:0001efa0       ??_C@_1O@CEDCILHN@?$AA?$CI?$AAn?$AAu?$AAl?$AAl?$AA?$CJ?$AA?$AA@ 005d9fa0     LIBCMTD:output.obj
 0003:0001efb0       ??_C@_06OJHGLDPL@?$CInull?$CJ?$AA@ 005d9fb0     LIBCMTD:output.obj
 0003:0001efb8       ___lookuptable             005d9fb8     LIBCMTD:output.obj
 0003:0001f024       ??_C@_0DA@NFBEBPEE@f?3?2dd?2vctools?2crt_bld?2self_x86?2c@ 005da024     LIBCMTD:output.obj
 0003:0001f060       ??_C@_1EK@PNGFDECN@?$AA?$CI?$AA?$CC?$AA?8?$AAn?$AA?8?$AA?5?$AAf?$AAo?$AAr?$AAm?$AAa?$AAt?$AA?5?$AAs?$AAp?$AAe?$AAc?$AAi?$AAf?$AAi?$AAe?$AAr?$AA?5?$AAd?$AAi?$AAs?$AAa?$AAb?$AAl?$AAe?$AAd?$AA?$CC@ 005da060     LIBCMTD:output.obj
 0003:0001f0b8       ??_C@_1CC@IFFHEMNF@?$AA?$CI?$AAc?$AAh?$AA?5?$AA?$CB?$AA?$DN?$AA?5?$AA_?$AAT?$AA?$CI?$AA?8?$AA?2?$AA0?$AA?8?$AA?$CJ?$AA?$CJ?$AA?$AA@ 005da0b8     LIBCMTD:output.obj
 0003:0001f0e0       ??_C@_1BE@IONLIDNC@?$AA_?$AAo?$AAu?$AAt?$AAp?$AAu?$AAt?$AA_?$AAl?$AA?$AA@ 005da0e0     LIBCMTD:output.obj
 0003:0001f0f8       ??_C@_1GA@HHFOFBLN@?$AAf?$AA?3?$AA?2?$AAd?$AAd?$AA?2?$AAv?$AAc?$AAt?$AAo?$AAo?$AAl?$AAs?$AA?2?$AAc?$AAr?$AAt?$AA_?$AAb?$AAl?$AAd?$AA?2?$AAs?$AAe?$AAl?$AAf?$AA_?$AAx?$AA8?$AA6?$AA?2?$AAc@ 005da0f8     LIBCMTD:output.obj
 0003:0001f16c       ??_C@_1BI@IGILPKD@?$AA_?$AAv?$AAs?$AAp?$AAr?$AAi?$AAn?$AAt?$AAf?$AA_?$AAl?$AA?$AA@ 005da16c     LIBCMTD:vsprintf.obj
 0003:0001f188       ??_C@_1CE@HMKDJHB@?$AA_?$AAv?$AAs?$AAc?$AAp?$AAr?$AAi?$AAn?$AAt?$AAf?$AA_?$AAh?$AAe?$AAl?$AAp?$AAe?$AAr?$AA?$AA@ 005da188     LIBCMTD:vsprintf.obj
 0003:0001f1b8       ??_C@_1GE@KOCFNGPB@?$AA_?$AAc?$AAo?$AAn?$AAt?$AAr?$AAo?$AAl?$AAf?$AAp?$AA_?$AAs?$AA?$CI?$AA?$CI?$AA?$CI?$AAv?$AAo?$AAi?$AAd?$AA?5?$AA?$CK?$AA?$CJ?$AA0?$AA?$CJ?$AA?0?$AA?5?$AA0?$AAx?$AA0?$AA0?$AA0?$AA1@ 005da1b8     LIBCMTD:fp8.obj
 0003:0001f230       ??_C@_1CK@JMKHCBEI@?$AA_?$AAs?$AAe?$AAt?$AAd?$AAe?$AAf?$AAa?$AAu?$AAl?$AAt?$AAp?$AAr?$AAe?$AAc?$AAi?$AAs?$AAi?$AAo?$AAn?$AA?$AA@ 005da230     LIBCMTD:fp8.obj
 0003:0001f268       ??_C@_1GG@PHGJJHBC@?$AAf?$AA?3?$AA?2?$AAd?$AAd?$AA?2?$AAv?$AAc?$AAt?$AAo?$AAo?$AAl?$AAs?$AA?2?$AAc?$AAr?$AAt?$AA_?$AAb?$AAl?$AAd?$AA?2?$AAs?$AAe?$AAl?$AAf?$AA_?$AAx?$AA8?$AA6?$AA?2?$AAc@ 005da268     LIBCMTD:fp8.obj
 0003:0001f2e8       __real@4150017ec0000000    005da2e8     LIBCMTD:_testfdiv_.obj
 0003:0001f2f8       __real@4147ffff80000000    005da2f8     LIBCMTD:_testfdiv_.obj
 0003:0001f304       ??_C@_0BK@NHEOCAHP@IsProcessorFeaturePresent?$AA@ 005da304     LIBCMTD:_testfdiv_.obj
 0003:0001f324       ??_C@_08CPNIBGIE@KERNEL32?$AA@ 005da324     LIBCMTD:_testfdiv_.obj
 0003:0001f330       ??_C@_1CA@CBMNPEO@?$AAs?$AAi?$AAz?$AAe?$AAI?$AAn?$AAB?$AAy?$AAt?$AAe?$AAs?$AA?5?$AA?$DO?$AA?5?$AA0?$AA?$AA@ 005da330     LIBCMTD:cvt.obj
 0003:0001f358       ??_C@_1BC@INKAPMHI@?$AA_?$AAc?$AAf?$AAt?$AAo?$AAe?$AA_?$AAl?$AA?$AA@ 005da358     LIBCMTD:cvt.obj
 0003:0001f370       ??_C@_1GO@NCCGBNKI@?$AAf?$AA?3?$AA?2?$AAd?$AAd?$AA?2?$AAv?$AAc?$AAt?$AAo?$AAo?$AAl?$AAs?$AA?2?$AAc?$AAr?$AAt?$AA_?$AAb?$AAl?$AAd?$AA?2?$AAs?$AAe?$AAl?$AAf?$AA_?$AAx?$AA8?$AA6?$AA?2?$AAc@ 005da370     LIBCMTD:cvt.obj
 0003:0001f3f4       ??_C@_05KLBDPFGC@e?$CL000?$AA@ 005da3f4     LIBCMTD:cvt.obj
 0003:0001f400       ??_C@_1LE@EOIFGNCJ@?$AAs?$AAt?$AAr?$AAc?$AAp?$AAy?$AA_?$AAs?$AA?$CI?$AAp?$AA?0?$AA?5?$AA?$CI?$AAs?$AAi?$AAz?$AAe?$AAI?$AAn?$AAB?$AAy?$AAt?$AAe?$AAs?$AA?5?$AA?$DN?$AA?$DN?$AA?5?$AA?$CI?$AAs?$AAi?$AAz@ 005da400     LIBCMTD:cvt.obj
 0003:0001f4d8       ??_C@_1HE@NACBNDPP@?$AAs?$AAi?$AAz?$AAe?$AAI?$AAn?$AAB?$AAy?$AAt?$AAe?$AAs?$AA?5?$AA?$DO?$AA?5?$AA?$CI?$AAs?$AAi?$AAz?$AAe?$AA_?$AAt?$AA?$CJ?$AA?$CI?$AA3?$AA?5?$AA?$CL?$AA?5?$AA?$CI?$AAn?$AAd?$AAe?$AAc@ 005da4d8     LIBCMTD:cvt.obj
 0003:0001f564       ??_C@_1BE@OLBNEILL@?$AA_?$AAc?$AAf?$AAt?$AAo?$AAe?$AA2?$AA_?$AAl?$AA?$AA@ 005da564     LIBCMTD:cvt.obj
 0003:0001f580       ??_C@_1FC@IKIMAMJB@?$AAs?$AAi?$AAz?$AAe?$AAI?$AAn?$AAB?$AAy?$AAt?$AAe?$AAs?$AA?5?$AA?$DO?$AA?5?$AA?$CI?$AAs?$AAi?$AAz?$AAe?$AA_?$AAt?$AA?$CJ?$AA?$CI?$AA1?$AA?5?$AA?$CL?$AA?5?$AA4?$AA?5?$AA?$CL?$AA?5?$AAn@ 005da580     LIBCMTD:cvt.obj
 0003:0001f5e4       ??_C@_1BC@JOKPCIC@?$AA_?$AAc?$AAf?$AAt?$AAo?$AAa?$AA_?$AAl?$AA?$AA@ 005da5e4     LIBCMTD:cvt.obj
 0003:0001f5fc       ??_C@_1BC@DCPPLJL@?$AA_?$AAc?$AAf?$AAt?$AAo?$AAf?$AA_?$AAl?$AA?$AA@ 005da5fc     LIBCMTD:cvt.obj
 0003:0001f614       ??_C@_1BE@CKPDLI@?$AA_?$AAc?$AAf?$AAt?$AAo?$AAf?$AA2?$AA_?$AAl?$AA?$AA@ 005da614     LIBCMTD:cvt.obj
 0003:0001f62c       ??_C@_1BC@MPIFPLAF@?$AA_?$AAc?$AAf?$AAt?$AAo?$AAg?$AA_?$AAl?$AA?$AA@ 005da62c     LIBCMTD:cvt.obj
 0003:0001f648       ??_C@_1GC@CHGJNMHG@?$AAf?$AA?3?$AA?2?$AAd?$AAd?$AA?2?$AAv?$AAc?$AAt?$AAo?$AAo?$AAl?$AAs?$AA?2?$AAc?$AAr?$AAt?$AA_?$AAb?$AAl?$AAd?$AA?2?$AAs?$AAe?$AAl?$AAf?$AA_?$AAx?$AA8?$AA6?$AA?2?$AAc@ 005da648     LIBCMTD:isctype.obj
 0003:0001f6c0       ??_C@_1DC@BPLPALML@?$AA?$CI?$AAu?$AAn?$AAs?$AAi?$AAg?$AAn?$AAe?$AAd?$AA?$CJ?$AA?$CI?$AAc?$AA?5?$AA?$CL?$AA?5?$AA1?$AA?$CJ?$AA?5?$AA?$DM?$AA?$DN?$AA?5?$AA2?$AA5?$AA6?$AA?$AA@ 005da6c0     LIBCMTD:isctype.obj
 0003:0001f6fc       ??_C@_0DB@MHMEONEC@f?3?2dd?2vctools?2crt_bld?2self_x86?2c@ 005da6fc     LIBCMTD:mbctype.obj
 0003:0001f7b4       ??_C@_03IIINPABG@tan?$AA@  005da7b4     LIBCMTD:_libm_error_.obj
 0003:0001f7b8       ??_C@_03LALBNOCG@cos?$AA@  005da7b8     LIBCMTD:_libm_error_.obj
 0003:0001f7bc       ??_C@_03BLEJJJBH@sin?$AA@  005da7bc     LIBCMTD:_libm_error_.obj
 0003:0001f7c0       ??_C@_04EHEDPDJG@modf?$AA@ 005da7c0     LIBCMTD:_libm_error_.obj
 0003:0001f7c8       ??_C@_05PBJFFIGL@floor?$AA@ 005da7c8     LIBCMTD:_libm_error_.obj
 0003:0001f7d0       ??_C@_04GFPJNGEK@ceil?$AA@ 005da7d0     LIBCMTD:_libm_error_.obj
 0003:0001f7d8       ??_C@_04MLLJIGOK@atan?$AA@ 005da7d8     LIBCMTD:_libm_error_.obj
 0003:0001f7e0       ??_C@_05EOHGHCHD@exp10?$AA@ 005da7e0     LIBCMTD:_libm_error_.obj
 0003:0001f7e8       ??_C@_04PDIFKINK@acos?$AA@ 005da7e8     LIBCMTD:_libm_error_.obj
 0003:0001f7f0       ??_C@_04FIHNOPOL@asin?$AA@ 005da7f0     LIBCMTD:_libm_error_.obj
 0003:0001f7f8       ??_C@_03JGHBODFD@pow?$AA@  005da7f8     LIBCMTD:_libm_error_.obj
 0003:0001f7fc       ??_C@_03KHJOGHMM@exp?$AA@  005da7fc     LIBCMTD:_libm_error_.obj
 0003:0001f800       ??_C@_05HGHHAHAP@log10?$AA@ 005da800     LIBCMTD:_libm_error_.obj
 0003:0001f808       ??_C@_03MGHMBJCF@log?$AA@  005da808     LIBCMTD:_libm_error_.obj
 0003:0001f810       ___lookuptable_s           005da810     LIBCMTD:outputs.obj
 0003:0001f880       ??_C@_1FK@LNCFKALM@?$AA?$CI?$AA?$CI?$AAs?$AAt?$AAa?$AAt?$AAe?$AA?5?$AA?$DN?$AA?$DN?$AA?5?$AAS?$AAT?$AA_?$AAN?$AAO?$AAR?$AAM?$AAA?$AAL?$AA?$CJ?$AA?5?$AA?$HM?$AA?$HM?$AA?5?$AA?$CI?$AAs?$AAt?$AAa?$AAt?$AAe?$AA?5@ 005da880     LIBCMTD:outputs.obj
 0003:0001f8f0       ??_C@_1EE@DMAIGNBG@?$AA?$CI?$AA?$CC?$AAI?$AAn?$AAc?$AAo?$AAr?$AAr?$AAe?$AAc?$AAt?$AA?5?$AAf?$AAo?$AAr?$AAm?$AAa?$AAt?$AA?5?$AAs?$AAp?$AAe?$AAc?$AAi?$AAf?$AAi?$AAe?$AAr?$AA?$CC?$AA?0?$AA?5?$AA0@ 005da8f0     LIBCMTD:outputs.obj
 0003:0001f944       ??_C@_1BI@COFBLHCG@?$AA_?$AAo?$AAu?$AAt?$AAp?$AAu?$AAt?$AA_?$AAs?$AA_?$AAl?$AA?$AA@ 005da944     LIBCMTD:outputs.obj
 0003:0001f960       ??_C@_1FK@BCPANIEK@?$AA?$CI?$AA?$CC?$AAM?$AAi?$AAs?$AAs?$AAi?$AAn?$AAg?$AA?5?$AAp?$AAo?$AAs?$AAi?$AAt?$AAi?$AAo?$AAn?$AA?5?$AAi?$AAn?$AA?5?$AAt?$AAh?$AAe?$AA?5?$AAf?$AAo?$AAr?$AAm?$AAa?$AAt@ 005da960     LIBCMTD:outputp.obj
 0003:0001f9d0       ??_C@_1JC@OACKELNN@?$AA_?$AAt?$AAv?$AAa?$AAl?$AAi?$AAd?$AAa?$AAt?$AAe?$AA_?$AAp?$AAa?$AAr?$AAa?$AAm?$AA_?$AAr?$AAe?$AAu?$AAs?$AAe?$AA?$CI?$AA?$CG?$AAp?$AAo?$AAs?$AA_?$AAv?$AAa?$AAl?$AAu@ 005da9d0     LIBCMTD:outputp.obj
 0003:0001fa80       ??_C@_1IK@NBGDDCBN@?$AA_?$AAt?$AAv?$AAa?$AAl?$AAi?$AAd?$AAa?$AAt?$AAe?$AA_?$AAp?$AAa?$AAr?$AAa?$AAm?$AA_?$AAr?$AAe?$AAu?$AAs?$AAe?$AA?$CI?$AA?$CG?$AAp?$AAo?$AAs?$AA_?$AAv?$AAa?$AAl?$AAu@ 005daa80     LIBCMTD:outputp.obj
 0003:0001fb28       ??_C@_1DG@GOHGNKHE@?$AAp?$AAa?$AAs?$AAs?$AA?5?$AA?$DN?$AA?$DN?$AA?5?$AAF?$AAO?$AAR?$AAM?$AAA?$AAT?$AA_?$AAO?$AAU?$AAT?$AAP?$AAU?$AAT?$AA_?$AAP?$AAA?$AAS?$AAS?$AA?$AA@ 005dab28     LIBCMTD:outputp.obj
 0003:0001fb68       ??_C@_1IM@DNGHAPLB@?$AA_?$AAt?$AAv?$AAa?$AAl?$AAi?$AAd?$AAa?$AAt?$AAe?$AA_?$AAp?$AAa?$AAr?$AAa?$AAm?$AA_?$AAr?$AAe?$AAu?$AAs?$AAe?$AA?$CI?$AA?$CG?$AAp?$AAo?$AAs?$AA_?$AAv?$AAa?$AAl?$AAu@ 005dab68     LIBCMTD:outputp.obj
 0003:0001fc10       ??_C@_1IG@HJIMKDHC@?$AA_?$AAt?$AAv?$AAa?$AAl?$AAi?$AAd?$AAa?$AAt?$AAe?$AA_?$AAp?$AAa?$AAr?$AAa?$AAm?$AA_?$AAr?$AAe?$AAu?$AAs?$AAe?$AA?$CI?$AA?$CG?$AAp?$AAo?$AAs?$AA_?$AAv?$AAa?$AAl?$AAu@ 005dac10     LIBCMTD:outputp.obj
 0003:0001fcb0       ??_C@_1IG@FDCPLALG@?$AA_?$AAt?$AAv?$AAa?$AAl?$AAi?$AAd?$AAa?$AAt?$AAe?$AA_?$AAp?$AAa?$AAr?$AAa?$AAm?$AA_?$AAr?$AAe?$AAu?$AAs?$AAe?$AA?$CI?$AA?$CG?$AAp?$AAo?$AAs?$AA_?$AAv?$AAa?$AAl?$AAu@ 005dacb0     LIBCMTD:outputp.obj
 0003:0001fd50       ??_C@_1IK@MHEDJAMK@?$AA_?$AAt?$AAv?$AAa?$AAl?$AAi?$AAd?$AAa?$AAt?$AAe?$AA_?$AAp?$AAa?$AAr?$AAa?$AAm?$AA_?$AAr?$AAe?$AAu?$AAs?$AAe?$AA?$CI?$AA?$CG?$AAp?$AAo?$AAs?$AA_?$AAv?$AAa?$AAl?$AAu@ 005dad50     LIBCMTD:outputp.obj
 0003:0001fdf8       ??_C@_1EM@BNPHBBIA@?$AA?$CI?$AA?$CI?$AAt?$AAy?$AAp?$AAe?$AA_?$AAp?$AAo?$AAs?$AA?$DO?$AA?$DN?$AA0?$AA?$CJ?$AA?5?$AA?$CG?$AA?$CG?$AA?5?$AA?$CI?$AAt?$AAy?$AAp?$AAe?$AA_?$AAp?$AAo?$AAs?$AA?$DM?$AA_?$AAA?$AAR?$AAG@ 005dadf8     LIBCMTD:outputp.obj
 0003:0001fe58       ??_C@_1IK@EIEPDKHJ@?$AA_?$AAt?$AAv?$AAa?$AAl?$AAi?$AAd?$AAa?$AAt?$AAe?$AA_?$AAp?$AAa?$AAr?$AAa?$AAm?$AA_?$AAr?$AAe?$AAu?$AAs?$AAe?$AA?$CI?$AA?$CG?$AAp?$AAo?$AAs?$AA_?$AAv?$AAa?$AAl?$AAu@ 005dae58     LIBCMTD:outputp.obj
 0003:0001ff00       ??_C@_1JG@JBJBOCFB@?$AA?$CI?$AA?$CI?$AAp?$AAr?$AAe?$AAc?$AAi?$AAs?$AA_?$AAp?$AAo?$AAs?$AA?5?$AA?$DO?$AA?$DN?$AA?5?$AA0?$AA?$CJ?$AA?5?$AA?$CG?$AA?$CG?$AA?5?$AA?$CI?$AA?$CK?$AAe?$AAn?$AAd?$AA_?$AAp?$AAo?$AAs?$AA?5@ 005daf00     LIBCMTD:outputp.obj
 0003:0001ffb8       ??_C@_1II@PIPIMLPF@?$AA_?$AAt?$AAv?$AAa?$AAl?$AAi?$AAd?$AAa?$AAt?$AAe?$AA_?$AAp?$AAa?$AAr?$AAa?$AAm?$AA_?$AAr?$AAe?$AAu?$AAs?$AAe?$AA?$CI?$AA?$CG?$AAp?$AAo?$AAs?$AA_?$AAv?$AAa?$AAl?$AAu@ 005dafb8     LIBCMTD:outputp.obj
 0003:00020060       ??_C@_1JE@NMBHOLFI@?$AA?$CI?$AA?$CI?$AAw?$AAi?$AAd?$AAt?$AAh?$AA_?$AAp?$AAo?$AAs?$AA?5?$AA?$DO?$AA?$DN?$AA?5?$AA0?$AA?$CJ?$AA?5?$AA?$CG?$AA?$CG?$AA?5?$AA?$CI?$AA?$CK?$AAe?$AAn?$AAd?$AA_?$AAp?$AAo?$AAs?$AA?5?$AA?$DN@ 005db060     LIBCMTD:outputp.obj
 0003:00020118       ??_C@_1JC@PFJNKEIO@?$AA?$CI?$AA?$CI?$AAt?$AAy?$AAp?$AAe?$AA_?$AAp?$AAo?$AAs?$AA?5?$AA?$DO?$AA?$DN?$AA?5?$AA0?$AA?$CJ?$AA?5?$AA?$CG?$AA?$CG?$AA?5?$AA?$CI?$AA?$CK?$AAe?$AAn?$AAd?$AA_?$AAp?$AAo?$AAs?$AA?5?$AA?$DN?$AA?$DN@ 005db118     LIBCMTD:outputp.obj
 0003:000201c8       ??_C@_1BI@KANOLAMF@?$AA_?$AAo?$AAu?$AAt?$AAp?$AAu?$AAt?$AA_?$AAp?$AA_?$AAl?$AA?$AA@ 005db1c8     LIBCMTD:outputp.obj
 0003:000201e4       ??_C@_0P@GGKDKEEG@runtime?5error?5?$AA@ 005db1e4     LIBCMTD:crt0msg.obj
 0003:000201f8       ??_C@_02PCIJFNDE@?$AN?6?$AA@ 005db1f8     LIBCMTD:crt0msg.obj
 0003:000201fc       ??_C@_0O@MJNIPGOH@TLOSS?5error?$AN?6?$AA@ 005db1fc     LIBCMTD:crt0msg.obj
 0003:0002020c       ??_C@_0N@BONNPDHF@SING?5error?$AN?6?$AA@ 005db20c     LIBCMTD:crt0msg.obj
 0003:0002021c       ??_C@_0P@MBDAJNE@DOMAIN?5error?$AN?6?$AA@ 005db21c     LIBCMTD:crt0msg.obj
 0003:00020230       ??_C@_0BFB@HKKMCDOL@R6034?$AN?6An?5application?5has?5made?5a@ 005db230     LIBCMTD:crt0msg.obj
 0003:000203c8       ??_C@_0PH@EPAFIJ@R6033?$AN?6?9?5Attempt?5to?5use?5MSIL?5cod@ 005db3c8     LIBCMTD:crt0msg.obj
 0003:000204f0       ??_C@_0DD@BKEEABMM@R6032?$AN?6?9?5not?5enough?5space?5for?5lo@ 005db4f0     LIBCMTD:crt0msg.obj
 0003:00020530       ??_C@_0GD@OFKILIED@R6031?$AN?6?9?5Attempt?5to?5initialize?5t@ 005db530     LIBCMTD:crt0msg.obj
 0003:000205a8       ??_C@_0BP@LPMHJOKI@R6030?$AN?6?9?5CRT?5not?5initialized?$AN?6?$AA@ 005db5a8     LIBCMTD:crt0msg.obj
 0003:000205d0       ??_C@_0CF@KJDAIALP@R6028?$AN?6?9?5unable?5to?5initialize?5he@ 005db5d0     LIBCMTD:crt0msg.obj
 0003:000205fc       ??_C@_0DF@GAKBPDFP@R6027?$AN?6?9?5not?5enough?5space?5for?5lo@ 005db5fc     LIBCMTD:crt0msg.obj
 0003:0002063c       ??_C@_0DF@IBLNNAIG@R6026?$AN?6?9?5not?5enough?5space?5for?5st@ 005db63c     LIBCMTD:crt0msg.obj
 0003:0002067c       ??_C@_0CG@IOHKGFNJ@R6025?$AN?6?9?5pure?5virtual?5function?5c@ 005db67c     LIBCMTD:crt0msg.obj
 0003:000206ac       ??_C@_0DF@JIJJFJDC@R6024?$AN?6?9?5not?5enough?5space?5for?5_o@ 005db6ac     LIBCMTD:crt0msg.obj
 0003:000206ec       ??_C@_0CJ@EGEJHFME@R6019?$AN?6?9?5unable?5to?5open?5console?5@ 005db6ec     LIBCMTD:crt0msg.obj
 0003:00020720       ??_C@_0CB@GNHNIELH@R6018?$AN?6?9?5unexpected?5heap?5error?$AN?6@ 005db720     LIBCMTD:crt0msg.obj
 0003:00020748       ??_C@_0CN@FOLDKNG@R6017?$AN?6?9?5unexpected?5multithread?5@ 005db748     LIBCMTD:crt0msg.obj
 0003:00020780       ??_C@_0CM@FAHFJNHO@R6016?$AN?6?9?5not?5enough?5space?5for?5th@ 005db780     LIBCMTD:crt0msg.obj
 0003:000207b8       ??_C@_0JG@LBKMGKLD@?$AN?6This?5application?5has?5requested@ 005db7b8     LIBCMTD:crt0msg.obj
 0003:0002086c       ??_C@_0CM@FLCNIPKK@R6009?$AN?6?9?5not?5enough?5space?5for?5en@ 005db86c     LIBCMTD:crt0msg.obj
 0003:000208a0       ??_C@_0CK@KMMJOAPP@R6008?$AN?6?9?5not?5enough?5space?5for?5ar@ 005db8a0     LIBCMTD:crt0msg.obj
 0003:000208d4       ??_C@_0CN@LEKKICBM@R6002?$AN?6?9?5floating?5point?5support?5@ 005db8d4     LIBCMTD:crt0msg.obj
 0003:0002090c       ??_C@_0CF@GOGNBNAK@Microsoft?5Visual?5C?$CL?$CL?5Runtime?5Lib@ 005db90c     LIBCMTD:crt0msg.obj
 0003:00020938       ??_C@_1KC@JBIKIPNF@?$AAs?$AAt?$AAr?$AAc?$AAa?$AAt?$AA_?$AAs?$AA?$CI?$AAo?$AAu?$AAt?$AAm?$AAs?$AAg?$AA?0?$AA?5?$AA?$CI?$AAs?$AAi?$AAz?$AAe?$AAo?$AAf?$AA?$CI?$AAo?$AAu?$AAt?$AAm?$AAs?$AAg?$AA?$CJ@ 005db938     LIBCMTD:crt0msg.obj
 0003:00020a00       ??_C@_1HO@POLIDBMF@?$AAs?$AAt?$AAr?$AAc?$AAa?$AAt?$AA_?$AAs?$AA?$CI?$AAo?$AAu?$AAt?$AAm?$AAs?$AAg?$AA?0?$AA?5?$AA?$CI?$AAs?$AAi?$AAz?$AAe?$AAo?$AAf?$AA?$CI?$AAo?$AAu?$AAt?$AAm?$AAs?$AAg?$AA?$CJ@ 005dba00     LIBCMTD:crt0msg.obj
 0003:00020a98       ??_C@_1HG@CJJGKFHK@?$AAs?$AAt?$AAr?$AAn?$AAc?$AAp?$AAy?$AA_?$AAs?$AA?$CI?$AAp?$AAc?$AAh?$AA?0?$AA?5?$AAp?$AAr?$AAo?$AAg?$AAn?$AAa?$AAm?$AAe?$AA_?$AAs?$AAi?$AAz?$AAe?$AA?5?$AA?9?$AA?5?$AA?$CI@ 005dba98     LIBCMTD:crt0msg.obj
 0003:00020b28       ??_C@_1HI@FOOPEDMH@?$AAs?$AAt?$AAr?$AAc?$AAp?$AAy?$AA_?$AAs?$AA?$CI?$AAp?$AAr?$AAo?$AAg?$AAn?$AAa?$AAm?$AAe?$AA?0?$AA?5?$AAp?$AAr?$AAo?$AAg?$AAn?$AAa?$AAm?$AAe?$AA_?$AAs?$AAi?$AAz?$AAe@ 005dbb28     LIBCMTD:crt0msg.obj
 0003:00020bb8       ??_C@_0BK@OFGJDLJJ@Runtime?5Error?$CB?6?6Program?3?5?$AA@ 005dbbb8     LIBCMTD:crt0msg.obj
 0003:00020bd8       ??_C@_1KM@NKKPELHG@?$AAs?$AAt?$AAr?$AAc?$AAp?$AAy?$AA_?$AAs?$AA?$CI?$AAo?$AAu?$AAt?$AAm?$AAs?$AAg?$AA?0?$AA?5?$AA?$CI?$AAs?$AAi?$AAz?$AAe?$AAo?$AAf?$AA?$CI?$AAo?$AAu?$AAt?$AAm?$AAs?$AAg?$AA?$CJ@ 005dbbd8     LIBCMTD:crt0msg.obj
 0003:00020ca8       ??_C@_1BI@EAHMBMEC@?$AA_?$AAN?$AAM?$AAS?$AAG?$AA_?$AAW?$AAR?$AAI?$AAT?$AAE?$AA?$AA@ 005dbca8     LIBCMTD:crt0msg.obj
 0003:00020cc8       ??_C@_1GC@HKOJBOFF@?$AAf?$AA?3?$AA?2?$AAd?$AAd?$AA?2?$AAv?$AAc?$AAt?$AAo?$AAo?$AAl?$AAs?$AA?2?$AAc?$AAr?$AAt?$AA_?$AAb?$AAl?$AAd?$AA?2?$AAs?$AAe?$AAl?$AAf?$AA_?$AAx?$AA8?$AA6?$AA?2?$AAc@ 005dbcc8     LIBCMTD:crt0msg.obj
 0003:00020d40       ??_C@_1GO@NGIGJNHH@?$AAs?$AAt?$AAr?$AAn?$AAc?$AAp?$AAy?$AA_?$AAs?$AA?$CI?$AA?$CK?$AAs?$AAt?$AAr?$AAa?$AAd?$AAd?$AAr?$AAe?$AAs?$AAs?$AA?0?$AA?5?$AAo?$AAu?$AAt?$AAs?$AAi?$AAz?$AAe?$AA?0?$AA?5@ 005dbd40     LIBCMTD:inithelp.obj
 0003:00020dc4       ??_C@_1CA@KHHCPEI@?$AA_?$AA_?$AAg?$AAe?$AAt?$AAl?$AAo?$AAc?$AAa?$AAl?$AAe?$AAi?$AAn?$AAf?$AAo?$AA?$AA@ 005dbdc4     LIBCMTD:inithelp.obj
 0003:00020df0       ??_C@_1GE@PLPIMDHG@?$AAf?$AA?3?$AA?2?$AAd?$AAd?$AA?2?$AAv?$AAc?$AAt?$AAo?$AAo?$AAl?$AAs?$AA?2?$AAc?$AAr?$AAt?$AA_?$AAb?$AAl?$AAd?$AA?2?$AAs?$AAe?$AAl?$AAf?$AA_?$AAx?$AA8?$AA6?$AA?2?$AAc@ 005dbdf0     LIBCMTD:inithelp.obj
 0003:00020e68       ??_C@_0DC@CFDMMFIG@f?3?2dd?2vctools?2crt_bld?2self_x86?2c@ 005dbe68     LIBCMTD:inithelp.obj
 0003:00020ea4       ??_C@_1BK@CMPKHPEC@?$AAn?$AA?5?$AA?$DM?$AA?$DN?$AA?5?$AAI?$AAN?$AAT?$AA_?$AAM?$AAA?$AAX?$AA?$AA@ 005dbea4     LIBCMTD:mbsnbico.obj
 0003:00020ec4       ??_C@_1BG@GBJNMPFA@?$AAs?$AA2?$AA?5?$AA?$CB?$AA?$DN?$AA?5?$AAN?$AAU?$AAL?$AAL?$AA?$AA@ 005dbec4     LIBCMTD:mbsnbico.obj
 0003:00020ee0       ??_C@_1BM@FKNNDAHH@?$AA_?$AAm?$AAb?$AAs?$AAn?$AAb?$AAi?$AAc?$AAo?$AAl?$AAl?$AA_?$AAl?$AA?$AA@ 005dbee0     LIBCMTD:mbsnbico.obj
 0003:00020f08       ??_C@_1GE@NJHAJPKI@?$AAf?$AA?3?$AA?2?$AAd?$AAd?$AA?2?$AAv?$AAc?$AAt?$AAo?$AAo?$AAl?$AAs?$AA?2?$AAc?$AAr?$AAt?$AA_?$AAb?$AAl?$AAd?$AA?2?$AAs?$AAe?$AAl?$AAf?$AA_?$AAx?$AA8?$AA6?$AA?2?$AAc@ 005dbf08     LIBCMTD:mbsnbico.obj
 0003:00020f80       ??_C@_1BG@MODEICJK@?$AAs?$AA1?$AA?5?$AA?$CB?$AA?$DN?$AA?5?$AAN?$AAU?$AAL?$AAL?$AA?$AA@ 005dbf80     LIBCMTD:mbsnbico.obj
 0003:00020f9c       ??_C@_0DC@CAFDLBC@f?3?2dd?2vctools?2crt_bld?2self_x86?2c@ 005dbf9c     LIBCMTD:wtombenv.obj
 0003:00020fd8       ??_C@_1BC@MJNBEDIJ@?$AA_?$AAi?$AAn?$AAp?$AAu?$AAt?$AA_?$AAl?$AA?$AA@ 005dbfd8     LIBCMTD:input.obj
 0003:00020ff0       ??_C@_1FO@LDDBLKJ@?$AAf?$AA?3?$AA?2?$AAd?$AAd?$AA?2?$AAv?$AAc?$AAt?$AAo?$AAo?$AAl?$AAs?$AA?2?$AAc?$AAr?$AAt?$AA_?$AAb?$AAl?$AAd?$AA?2?$AAs?$AAe?$AAl?$AAf?$AA_?$AAx?$AA8?$AA6?$AA?2?$AAc@ 005dbff0     LIBCMTD:input.obj
 0003:00021060       ??_C@_0CP@MMGCGBFO@f?3?2dd?2vctools?2crt_bld?2self_x86?2c@ 005dc060     LIBCMTD:input.obj
 0003:00021098       ??_C@_1DO@MBOKMJPK@?$AAn?$AAF?$AAl?$AAo?$AAa?$AAt?$AAS?$AAt?$AAr?$AAU?$AAs?$AAe?$AAd?$AA?$DM?$AA?$DN?$AA?$CI?$AA?$CK?$AAp?$AAn?$AAF?$AAl?$AAo?$AAa?$AAt?$AAS?$AAt?$AAr?$AAS?$AAz?$AA?$CJ?$AA?$AA@ 005dc098     LIBCMTD:input.obj
 0003:000210e4       ??_C@_1DG@MPPGJOHD@?$AA?$CI?$AA?$CC?$AAI?$AAn?$AAv?$AAa?$AAl?$AAi?$AAd?$AA?5?$AAI?$AAn?$AAp?$AAu?$AAt?$AA?5?$AAF?$AAo?$AAr?$AAm?$AAa?$AAt?$AA?$CC?$AA?0?$AA0?$AA?$CJ?$AA?$AA@ 005dc0e4     LIBCMTD:inputs.obj
 0003:00021124       ??_C@_1BG@LBKFJFHM@?$AA_?$AAi?$AAn?$AAp?$AAu?$AAt?$AA_?$AAs?$AA_?$AAl?$AA?$AA@ 005dc124     LIBCMTD:inputs.obj
 0003:00021140       ??_C@_1O@EDEJGJBM@?$AA_?$AAc?$AAl?$AAo?$AAs?$AAe?$AA?$AA@ 005dc140     LIBCMTD:close.obj
 0003:00021150       ??_C@_1FO@NNGNFGFH@?$AAf?$AA?3?$AA?2?$AAd?$AAd?$AA?2?$AAv?$AAc?$AAt?$AAo?$AAo?$AAl?$AAs?$AA?2?$AAc?$AAr?$AAt?$AA_?$AAb?$AAl?$AAd?$AA?2?$AAs?$AAe?$AAl?$AAf?$AA_?$AAx?$AA8?$AA6?$AA?2?$AAc@ 005dc150     LIBCMTD:close.obj
 0003:000211c0       ??_C@_1BA@JGHIEKKM@?$AA_?$AAf?$AAi?$AAl?$AAe?$AAn?$AAo?$AA?$AA@ 005dc1c0     LIBCMTD:fileno.obj
 0003:000211d8       ??_C@_1GA@PBJHELNC@?$AAf?$AA?3?$AA?2?$AAd?$AAd?$AA?2?$AAv?$AAc?$AAt?$AAo?$AAo?$AAl?$AAs?$AA?2?$AAc?$AAr?$AAt?$AA_?$AAb?$AAl?$AAd?$AA?2?$AAs?$AAe?$AAl?$AAf?$AA_?$AAx?$AA8?$AA6?$AA?2?$AAc@ 005dc1d8     LIBCMTD:fileno.obj
 0003:00021250       ??_C@_1GE@MIMBMOF@?$AAf?$AA?3?$AA?2?$AAd?$AAd?$AA?2?$AAv?$AAc?$AAt?$AAo?$AAo?$AAl?$AAs?$AA?2?$AAc?$AAr?$AAt?$AA_?$AAb?$AAl?$AAd?$AA?2?$AAs?$AAe?$AAl?$AAf?$AA_?$AAx?$AA8?$AA6?$AA?2?$AAc@ 005dc250     LIBCMTD:_freebuf.obj
 0003:000212c8       ??_C@_0DB@OLNNDFNH@f?3?2dd?2vctools?2crt_bld?2self_x86?2c@ 005dc2c8     LIBCMTD:_sftbuf.obj
 0003:00021308       ??_C@_1GC@DGAFOCMO@?$AAf?$AA?3?$AA?2?$AAd?$AAd?$AA?2?$AAv?$AAc?$AAt?$AAo?$AAo?$AAl?$AAs?$AA?2?$AAc?$AAr?$AAt?$AA_?$AAb?$AAl?$AAd?$AA?2?$AAs?$AAe?$AAl?$AAf?$AA_?$AAx?$AA8?$AA6?$AA?2?$AAc@ 005dc308     LIBCMTD:_sftbuf.obj
 0003:00021380       ??_C@_1CO@KCKAACMI@?$AAf?$AAl?$AAa?$AAg?$AA?5?$AA?$DN?$AA?$DN?$AA?5?$AA0?$AA?5?$AA?$HM?$AA?$HM?$AA?5?$AAf?$AAl?$AAa?$AAg?$AA?5?$AA?$DN?$AA?$DN?$AA?5?$AA1?$AA?$AA@ 005dc380     LIBCMTD:_sftbuf.obj
 0003:000213b8       ??_C@_0DA@NBLAKPEL@f?3?2dd?2vctools?2crt_bld?2self_x86?2c@ 005dc3b8     LIBCMTD:ioinit.obj
 0003:000213f4       ??_C@_1CA@OEHMHBJF@?$AAv?$AAf?$AAp?$AAr?$AAi?$AAn?$AAt?$AAf?$AA_?$AAh?$AAe?$AAl?$AAp?$AAe?$AAr?$AA?$AA@ 005dc3f4     LIBCMTD:vfprintf.obj
 0003:00021420       ??_C@_1GE@PEEPNGBM@?$AAf?$AA?3?$AA?2?$AAd?$AAd?$AA?2?$AAv?$AAc?$AAt?$AAo?$AAo?$AAl?$AAs?$AA?2?$AAc?$AAr?$AAt?$AA_?$AAb?$AAl?$AAd?$AA?2?$AAs?$AAe?$AAl?$AAf?$AA_?$AAx?$AA8?$AA6?$AA?2?$AAc@ 005dc420     LIBCMTD:vfprintf.obj
 0003:000214c0       ??_C@_1BE@DONHJJKE@?$AA_?$AAo?$AAp?$AAe?$AAn?$AAf?$AAi?$AAl?$AAe?$AA?$AA@ 005dc4c0     LIBCMTD:_open.obj
 0003:000214d8       ??_C@_1FO@POGAHKND@?$AAf?$AA?3?$AA?2?$AAd?$AAd?$AA?2?$AAv?$AAc?$AAt?$AAo?$AAo?$AAl?$AAs?$AA?2?$AAc?$AAr?$AAt?$AA_?$AAb?$AAl?$AAd?$AA?2?$AAs?$AAe?$AAl?$AAf?$AA_?$AAx?$AA8?$AA6?$AA?2?$AAc@ 005dc4d8     LIBCMTD:_open.obj
 0003:00021548       ??_C@_1CC@JBMDNKJP@?$AAf?$AAi?$AAl?$AAe?$AAn?$AAa?$AAm?$AAe?$AA?5?$AA?$CB?$AA?$DN?$AA?5?$AAN?$AAU?$AAL?$AAL?$AA?$AA@ 005dc548     LIBCMTD:_open.obj
 0003:00021570       ??_C@_0DA@NLPACBPK@f?3?2dd?2vctools?2crt_bld?2self_x86?2c@ 005dc570     LIBCMTD:stream.obj
 0003:000215ac       ??_C@_1O@NCBFODOE@?$AAx?$AAt?$AAo?$AAw?$AA_?$AAs?$AA?$AA@ 005dc5ac     LIBCMTD:xtows.obj
 0003:000215bc       ??_C@_1BC@HDEJCFPB@?$AAx?$AA6?$AA4?$AAt?$AAo?$AAw?$AA_?$AAs?$AA?$AA@ 005dc5bc     LIBCMTD:xtows.obj
 0003:000215d8       ??_C@_1FA@MJKDNFFB@?$AA?$CI?$AAL?$AA?$CC?$AAS?$AAt?$AAr?$AAi?$AAn?$AAg?$AA?5?$AAi?$AAs?$AA?5?$AAn?$AAo?$AAt?$AA?5?$AAn?$AAu?$AAl?$AAl?$AA?5?$AAt?$AAe?$AAr?$AAm?$AAi?$AAn?$AAa?$AAt?$AAe?$AAd@ 005dc5d8     LIBCMTD:wcsncat_s.obj
 0003:00021638       ??_C@_1DM@FHLMIEG@?$AAS?$AAt?$AAr?$AAi?$AAn?$AAg?$AA?5?$AAi?$AAs?$AA?5?$AAn?$AAo?$AAt?$AA?5?$AAn?$AAu?$AAl?$AAl?$AA?5?$AAt?$AAe?$AAr?$AAm?$AAi?$AAn?$AAa?$AAt?$AAe?$AAd?$AA?$AA@ 005dc638     LIBCMTD:wcsncat_s.obj
 0003:00021680       ??_C@_1BE@KPKIKKCF@?$AAw?$AAc?$AAs?$AAn?$AAc?$AAa?$AAt?$AA_?$AAs?$AA?$AA@ 005dc680     LIBCMTD:wcsncat_s.obj
 0003:00021698       ??_C@_1GK@DICCLCDF@?$AAf?$AA?3?$AA?2?$AAd?$AAd?$AA?2?$AAv?$AAc?$AAt?$AAo?$AAo?$AAl?$AAs?$AA?2?$AAc?$AAr?$AAt?$AA_?$AAb?$AAl?$AAd?$AA?2?$AAs?$AAe?$AAl?$AAf?$AA_?$AAx?$AA8?$AA6?$AA?2?$AAc@ 005dc698     LIBCMTD:wcsncat_s.obj
 0003:00021718       ??_C@_1BE@PMMBFFCC@?$AAw?$AAc?$AAs?$AAn?$AAc?$AAp?$AAy?$AA_?$AAs?$AA?$AA@ 005dc718     LIBCMTD:wcsncpy_s.obj
 0003:00021730       ??_C@_1GK@PAJJBKJF@?$AAf?$AA?3?$AA?2?$AAd?$AAd?$AA?2?$AAv?$AAc?$AAt?$AAo?$AAo?$AAl?$AAs?$AA?2?$AAc?$AAr?$AAt?$AA_?$AAb?$AAl?$AAd?$AA?2?$AAs?$AAe?$AAl?$AAf?$AA_?$AAx?$AA8?$AA6?$AA?2?$AAc@ 005dc730     LIBCMTD:wcsncpy_s.obj
 0003:000217b0       ??_C@_1BC@PLIEPKPJ@?$AAw?$AAc?$AAs?$AAc?$AAa?$AAt?$AA_?$AAs?$AA?$AA@ 005dc7b0     LIBCMTD:wcscat_s.obj
 0003:000217c8       ??_C@_1GI@NOKGIAGA@?$AAf?$AA?3?$AA?2?$AAd?$AAd?$AA?2?$AAv?$AAc?$AAt?$AAo?$AAo?$AAl?$AAs?$AA?2?$AAc?$AAr?$AAt?$AA_?$AAb?$AAl?$AAd?$AA?2?$AAs?$AAe?$AAl?$AAf?$AA_?$AAx?$AA8?$AA6?$AA?2?$AAc@ 005dc7c8     LIBCMTD:wcscat_s.obj
 0003:00021844       ??_C@_1BC@BHLPNJBO@?$AAf?$AAw?$AAp?$AAr?$AAi?$AAn?$AAt?$AAf?$AA?$AA@ 005dc844     LIBCMTD:fwprintf.obj
 0003:00021860       ??_C@_1GE@NIBJAMDO@?$AAf?$AA?3?$AA?2?$AAd?$AAd?$AA?2?$AAv?$AAc?$AAt?$AAo?$AAo?$AAl?$AAs?$AA?2?$AAc?$AAr?$AAt?$AA_?$AAb?$AAl?$AAd?$AA?2?$AAs?$AAe?$AAl?$AAf?$AA_?$AAx?$AA8?$AA6?$AA?2?$AAc@ 005dc860     LIBCMTD:fwprintf.obj
 0003:000218d8       ??_C@_0DB@MIGHMKAN@f?3?2dd?2vctools?2crt_bld?2self_x86?2c@ 005dc8d8     LIBCMTD:setvbuf.obj
 0003:00021918       ??_C@_1EG@IJNJIDNB@?$AA?$CI?$AA?$CI?$AA2?$AA?5?$AA?$DM?$AA?$DN?$AA?5?$AAs?$AAi?$AAz?$AAe?$AA?$CJ?$AA?5?$AA?$CG?$AA?$CG?$AA?5?$AA?$CI?$AAs?$AAi?$AAz?$AAe?$AA?5?$AA?$DM?$AA?$DN?$AA?5?$AAI?$AAN?$AAT?$AA_?$AAM?$AAA?$AAX@ 005dc918     LIBCMTD:setvbuf.obj
 0003:00021970       ??_C@_1HC@CBFEDAGG@?$AA?$CI?$AAt?$AAy?$AAp?$AAe?$AA?5?$AA?$DN?$AA?$DN?$AA?5?$AA_?$AAI?$AAO?$AAN?$AAB?$AAF?$AA?$CJ?$AA?5?$AA?$HM?$AA?$HM?$AA?5?$AA?$CI?$AAt?$AAy?$AAp?$AAe?$AA?5?$AA?$DN?$AA?$DN?$AA?5?$AA_?$AAI?$AAO@ 005dc970     LIBCMTD:setvbuf.obj
 0003:000219f8       ??_C@_1BA@OGODIODK@?$AAs?$AAe?$AAt?$AAv?$AAb?$AAu?$AAf?$AA?$AA@ 005dc9f8     LIBCMTD:setvbuf.obj
 0003:00021a10       ??_C@_1GC@FPPJLAOD@?$AAf?$AA?3?$AA?2?$AAd?$AAd?$AA?2?$AAv?$AAc?$AAt?$AAo?$AAo?$AAl?$AAs?$AA?2?$AAc?$AAr?$AAt?$AA_?$AAb?$AAl?$AAd?$AA?2?$AAs?$AAe?$AAl?$AAf?$AA_?$AAx?$AA8?$AA6?$AA?2?$AAc@ 005dca10     LIBCMTD:setvbuf.obj
 0003:00021a88       ??_C@_1CA@LFDHAMEM@?$AA_?$AAs?$AAe?$AAt?$AA_?$AAe?$AAr?$AAr?$AAo?$AAr?$AA_?$AAm?$AAo?$AAd?$AAe?$AA?$AA@ 005dca88     LIBCMTD:errmode.obj
 0003:00021ab0       ??_C@_1GC@FGMGFCNB@?$AAf?$AA?3?$AA?2?$AAd?$AAd?$AA?2?$AAv?$AAc?$AAt?$AAo?$AAo?$AAl?$AAs?$AA?2?$AAc?$AAr?$AAt?$AA_?$AAb?$AAl?$AAd?$AA?2?$AAs?$AAe?$AAl?$AAf?$AA_?$AAx?$AA8?$AA6?$AA?2?$AAc@ 005dcab0     LIBCMTD:errmode.obj
 0003:00021b28       ??_C@_1DE@BCNCAIK@?$AA?$CI?$AA?$CC?$AAI?$AAn?$AAv?$AAa?$AAl?$AAi?$AAd?$AA?5?$AAe?$AAr?$AAr?$AAo?$AAr?$AA_?$AAm?$AAo?$AAd?$AAe?$AA?$CC?$AA?0?$AA?5?$AA0?$AA?$CJ?$AA?$AA@ 005dcb28     LIBCMTD:errmode.obj
 0003:00021b68       ??_C@_1CE@IGKFIJFD@?$AA_?$AAv?$AAs?$AAw?$AAp?$AAr?$AAi?$AAn?$AAt?$AAf?$AA_?$AAh?$AAe?$AAl?$AAp?$AAe?$AAr?$AA?$AA@ 005dcb68     LIBCMTD:vswprnc.obj
 0003:00021b98       ??_C@_1GE@KINELFI@?$AAf?$AA?3?$AA?2?$AAd?$AAd?$AA?2?$AAv?$AAc?$AAt?$AAo?$AAo?$AAl?$AAs?$AA?2?$AAc?$AAr?$AAt?$AA_?$AAb?$AAl?$AAd?$AA?2?$AAs?$AAe?$AAl?$AAf?$AA_?$AAx?$AA8?$AA6?$AA?2?$AAc@ 005dcb98     LIBCMTD:vswprnc.obj
 0003:00021c10       ??_C@_1EE@MPCHJFGP@?$AAs?$AAt?$AAr?$AAi?$AAn?$AAg?$AA?5?$AA?$CB?$AA?$DN?$AA?5?$AAN?$AAU?$AAL?$AAL?$AA?5?$AA?$CG?$AA?$CG?$AA?5?$AAs?$AAi?$AAz?$AAe?$AAI?$AAn?$AAW?$AAo?$AAr?$AAd?$AAs?$AA?5?$AA?$DO?$AA?5@ 005dcc10     LIBCMTD:vswprnc.obj
 0003:00021c64       ??_C@_1BO@OALHJLCI@?$AA_?$AAv?$AAs?$AAw?$AAp?$AAr?$AAi?$AAn?$AAt?$AAf?$AA_?$AAs?$AA_?$AAl?$AA?$AA@ 005dcc64     LIBCMTD:vswprnc.obj
 0003:00021c88       ??_C@_1CA@BKFKMJFF@?$AA_?$AAv?$AAs?$AAn?$AAw?$AAp?$AAr?$AAi?$AAn?$AAt?$AAf?$AA_?$AAs?$AA_?$AAl?$AA?$AA@ 005dcc88     LIBCMTD:vswprnc.obj
 0003:00021cb0       ??_C@_0BK@CIDNPOGP@GetUserObjectInformationA?$AA@ 005dccb0     LIBCMTD:crtmbox.obj
 0003:00021cd0       ??_C@_0M@CHKKJDAI@MessageBoxA?$AA@ 005dccd0     LIBCMTD:crtmbox.obj
 0003:00021ce0       ??_C@_0L@NDEGIDAG@USER32?4DLL?$AA@ 005dcce0     LIBCMTD:crtmbox.obj
 0003:00021cf0       ??_C@_1BE@NDMJHJJG@?$AAs?$AAt?$AAr?$AAn?$AAc?$AAp?$AAy?$AA_?$AAs?$AA?$AA@ 005dccf0     LIBCMTD:strncpy_s.obj
 0003:00021d08       ___dnames                  005dcd08     LIBCMTD:timeset.obj
 0003:00021d20       ___mnames                  005dcd20     LIBCMTD:timeset.obj
 0003:00021d54       ??_C@_1BM@FIMHBHEB@?$AA_?$AAg?$AAe?$AAt?$AA_?$AAd?$AAa?$AAy?$AAl?$AAi?$AAg?$AAh?$AAt?$AA?$AA@ 005dcd54     LIBCMTD:timeset.obj
 0003:00021d78       ??_C@_1GC@NEGFAKA@?$AAf?$AA?3?$AA?2?$AAd?$AAd?$AA?2?$AAv?$AAc?$AAt?$AAo?$AAo?$AAl?$AAs?$AA?2?$AAc?$AAr?$AAt?$AA_?$AAb?$AAl?$AAd?$AA?2?$AAs?$AAe?$AAl?$AAf?$AA_?$AAx?$AA8?$AA6?$AA?2?$AAc@ 005dcd78     LIBCMTD:timeset.obj
 0003:00021df0       ??_C@_1CI@MKJEHFPG@?$AA?$CI?$AA_?$AAD?$AAa?$AAy?$AAl?$AAi?$AAg?$AAh?$AAt?$AA?5?$AA?$CB?$AA?$DN?$AA?5?$AAN?$AAU?$AAL?$AAL?$AA?$CJ?$AA?$AA@ 005dcdf0     LIBCMTD:timeset.obj
 0003:00021e20       ??_C@_1BK@EMODDHEE@?$AA_?$AAg?$AAe?$AAt?$AA_?$AAd?$AAs?$AAt?$AAb?$AAi?$AAa?$AAs?$AA?$AA@ 005dce20     LIBCMTD:timeset.obj
 0003:00021e40       ??_C@_1EC@PKDJPAAB@?$AA?$CI?$AA_?$AAD?$AAa?$AAy?$AAl?$AAi?$AAg?$AAh?$AAt?$AA_?$AAs?$AAa?$AAv?$AAi?$AAn?$AAg?$AAs?$AA_?$AAb?$AAi?$AAa?$AAs?$AA?5?$AA?$CB?$AA?$DN?$AA?5?$AAN?$AAU?$AAL?$AAL?$AA?$CJ@ 005dce40     LIBCMTD:timeset.obj
 0003:00021e90       ??_C@_1BM@MGEAKPEJ@?$AA_?$AAg?$AAe?$AAt?$AA_?$AAt?$AAi?$AAm?$AAe?$AAz?$AAo?$AAn?$AAe?$AA?$AA@ 005dce90     LIBCMTD:timeset.obj
 0003:00021eb4       ??_C@_1CI@PODJJGAL@?$AA?$CI?$AA_?$AAT?$AAi?$AAm?$AAe?$AAz?$AAo?$AAn?$AAe?$AA?5?$AA?$CB?$AA?$DN?$AA?5?$AAN?$AAU?$AAL?$AAL?$AA?$CJ?$AA?$AA@ 005dceb4     LIBCMTD:timeset.obj
 0003:00021ee4       ??_C@_1DG@HLGKANIP@?$AA_?$AAI?$AAn?$AAd?$AAe?$AAx?$AA?5?$AA?$DN?$AA?$DN?$AA?5?$AA0?$AA?5?$AA?$HM?$AA?$HM?$AA?5?$AA_?$AAI?$AAn?$AAd?$AAe?$AAx?$AA?5?$AA?$DN?$AA?$DN?$AA?5?$AA1?$AA?$AA@ 005dcee4     LIBCMTD:timeset.obj
 0003:00021f24       ??_C@_1CK@GBKHKEI@?$AA_?$AAR?$AAe?$AAt?$AAu?$AAr?$AAn?$AAV?$AAa?$AAl?$AAu?$AAe?$AA?5?$AA?$CB?$AA?$DN?$AA?5?$AAN?$AAU?$AAL?$AAL?$AA?$AA@ 005dcf24     LIBCMTD:timeset.obj
 0003:00021f58       ??_C@_1BI@BHCKCCFA@?$AA_?$AAg?$AAe?$AAt?$AA_?$AAt?$AAz?$AAn?$AAa?$AAm?$AAe?$AA?$AA@ 005dcf58     LIBCMTD:timeset.obj
 0003:00021f78       ??_C@_1KA@POFLNEC@?$AA?$CI?$AA_?$AAB?$AAu?$AAf?$AAf?$AAe?$AAr?$AA?5?$AA?$CB?$AA?$DN?$AA?5?$AAN?$AAU?$AAL?$AAL?$AA?5?$AA?$CG?$AA?$CG?$AA?5?$AA_?$AAS?$AAi?$AAz?$AAe?$AAI?$AAn?$AAB?$AAy?$AAt?$AAe?$AAs@ 005dcf78     LIBCMTD:timeset.obj
 0003:00022038       ??_C@_1BA@BMMDEPNE@?$AAs?$AAt?$AAr?$AAt?$AAo?$AAx?$AAq?$AA?$AA@ 005dd038     LIBCMTD:strtoq.obj
 0003:00022050       ??_C@_1GA@GIMEIKLC@?$AAf?$AA?3?$AA?2?$AAd?$AAd?$AA?2?$AAv?$AAc?$AAt?$AAo?$AAo?$AAl?$AAs?$AA?2?$AAc?$AAr?$AAt?$AA_?$AAb?$AAl?$AAd?$AA?2?$AAs?$AAe?$AAl?$AAf?$AA_?$AAx?$AA8?$AA6?$AA?2?$AAc@ 005dd050     LIBCMTD:strtoq.obj
 0003:000220c4       ??_C@_1BA@FLNMBBIM@?$AA_?$AAc?$AAo?$AAm?$AAm?$AAi?$AAt?$AA?$AA@ 005dd0c4     LIBCMTD:commit.obj
 0003:000220d8       ??_C@_1GA@BOPCOCFN@?$AAf?$AA?3?$AA?2?$AAd?$AAd?$AA?2?$AAv?$AAc?$AAt?$AAo?$AAo?$AAl?$AAs?$AA?2?$AAc?$AAr?$AAt?$AA_?$AAb?$AAl?$AAd?$AA?2?$AAs?$AAe?$AAl?$AAf?$AA_?$AAx?$AA8?$AA6?$AA?2?$AAc@ 005dd0d8     LIBCMTD:commit.obj
 0003:0002214c       ??_C@_1O@KOFKDHPL@?$AA_?$AAw?$AAr?$AAi?$AAt?$AAe?$AA?$AA@ 005dd14c     LIBCMTD:write.obj
 0003:00022160       ??_C@_1FO@EPLDPDDL@?$AAf?$AA?3?$AA?2?$AAd?$AAd?$AA?2?$AAv?$AAc?$AAt?$AAo?$AAo?$AAl?$AAs?$AA?2?$AAc?$AAr?$AAt?$AA_?$AAb?$AAl?$AAd?$AA?2?$AAs?$AAe?$AAl?$AAf?$AA_?$AAx?$AA8?$AA6?$AA?2?$AAc@ 005dd160     LIBCMTD:write.obj
 0003:000221d0       ??_C@_1DI@CNMHHHLG@?$AAi?$AAs?$AAl?$AAe?$AAa?$AAd?$AAb?$AAy?$AAt?$AAe?$AA?$CI?$AA_?$AAd?$AAb?$AAc?$AAs?$AAB?$AAu?$AAf?$AAf?$AAe?$AAr?$AA?$CI?$AAf?$AAh?$AA?$CJ?$AA?$CJ?$AA?$AA@ 005dd1d0     LIBCMTD:write.obj
 0003:00022214       ??_C@_1CC@EEOLPHGO@?$AA?$CI?$AA?$CI?$AAc?$AAn?$AAt?$AA?5?$AA?$CG?$AA?5?$AA1?$AA?$CJ?$AA?5?$AA?$DN?$AA?$DN?$AA?5?$AA0?$AA?$CJ?$AA?$AA@ 005dd214     LIBCMTD:write.obj
 0003:0002223c       ??_C@_1BM@NCANHCIP@?$AA_?$AAw?$AAr?$AAi?$AAt?$AAe?$AA_?$AAn?$AAo?$AAl?$AAo?$AAc?$AAk?$AA?$AA@ 005dd23c     LIBCMTD:write.obj
 0003:00022260       ??_C@_1BM@KFJLMBPG@?$AA?$CI?$AAb?$AAu?$AAf?$AA?5?$AA?$CB?$AA?$DN?$AA?5?$AAN?$AAU?$AAL?$AAL?$AA?$CJ?$AA?$AA@ 005dd260     LIBCMTD:write.obj
 0003:00022284       ??_C@_1BO@JGFPDJCP@?$AAv?$AAp?$AAr?$AAi?$AAn?$AAt?$AAf?$AA_?$AAh?$AAe?$AAl?$AAp?$AAe?$AAr?$AA?$AA@ 005dd284     LIBCMTD:vprintf.obj
 0003:000222a8       ??_C@_1GC@DHFFJKMC@?$AAf?$AA?3?$AA?2?$AAd?$AAd?$AA?2?$AAv?$AAc?$AAt?$AAo?$AAo?$AAl?$AAs?$AA?2?$AAc?$AAr?$AAt?$AA_?$AAb?$AAl?$AAd?$AA?2?$AAs?$AAe?$AAl?$AAf?$AA_?$AAx?$AA8?$AA6?$AA?2?$AAc@ 005dd2a8     LIBCMTD:vprintf.obj
 0003:00022320       ??_C@_1CA@EAHAIGAM@?$AA_?$AAg?$AAe?$AAt?$AAd?$AAc?$AAw?$AAd?$AA_?$AAl?$AAk?$AA_?$AAd?$AAb?$AAg?$AA?$AA@ 005dd320     LIBCMTD:getcwd.obj
 0003:00022348       ??_C@_1GA@IFOABPDF@?$AAf?$AA?3?$AA?2?$AAd?$AAd?$AA?2?$AAv?$AAc?$AAt?$AAo?$AAo?$AAl?$AAs?$AA?2?$AAc?$AAr?$AAt?$AA_?$AAb?$AAl?$AAd?$AA?2?$AAs?$AAe?$AAl?$AAf?$AA_?$AAx?$AA8?$AA6?$AA?2?$AAc@ 005dd348     LIBCMTD:getcwd.obj
 0003:000223bc       ??_C@_1CI@ICBAMKHM@?$AA?$CI?$AA?$CC?$AAI?$AAn?$AAv?$AAa?$AAl?$AAi?$AAd?$AA?5?$AAD?$AAr?$AAi?$AAv?$AAe?$AA?$CC?$AA?0?$AA0?$AA?$CJ?$AA?$AA@ 005dd3bc     LIBCMTD:getcwd.obj
 0003:000223f0       __XcptActTab               005dd3f0     LIBCMTD:winxfltr.obj
 0003:00022480       ??_C@_0BC@JEAENNKH@SystemFunction036?$AA@ 005dd480     LIBCMTD:rand_s.obj
 0003:00022498       ??_C@_1GA@EBEDGGGB@?$AA?$CI?$AA?$CC?$AAr?$AAa?$AAn?$AAd?$AA_?$AAs?$AA?5?$AAi?$AAs?$AA?5?$AAn?$AAo?$AAt?$AA?5?$AAa?$AAv?$AAa?$AAi?$AAl?$AAa?$AAb?$AAl?$AAe?$AA?5?$AAo?$AAn?$AA?5?$AAt?$AAh?$AAi@ 005dd498     LIBCMTD:rand_s.obj
 0003:0002250c       ??_C@_0N@JJPEKNFO@ADVAPI32?4DLL?$AA@ 005dd50c     LIBCMTD:rand_s.obj
 0003:0002251c       ??_C@_1O@IJGPPOGF@?$AAr?$AAa?$AAn?$AAd?$AA_?$AAs?$AA?$AA@ 005dd51c     LIBCMTD:rand_s.obj
 0003:00022530       ??_C@_1GA@HBGBBKCD@?$AAf?$AA?3?$AA?2?$AAd?$AAd?$AA?2?$AAv?$AAc?$AAt?$AAo?$AAo?$AAl?$AAs?$AA?2?$AAc?$AAr?$AAt?$AA_?$AAb?$AAl?$AAd?$AA?2?$AAs?$AAe?$AAl?$AAf?$AA_?$AAx?$AA8?$AA6?$AA?2?$AAc@ 005dd530     LIBCMTD:rand_s.obj
 0003:000225a4       ??_C@_1CK@GFDNDKK@?$AA_?$AAR?$AAa?$AAn?$AAd?$AAo?$AAm?$AAV?$AAa?$AAl?$AAu?$AAe?$AA?5?$AA?$CB?$AA?$DN?$AA?5?$AAN?$AAU?$AAL?$AAL?$AA?$AA@ 005dd5a4     LIBCMTD:rand_s.obj
 0003:000225d8       ??_C@_1DE@MMOGFGHF@?$AAs?$AAt?$AAr?$AAc?$AAp?$AAy?$AA_?$AAs?$AA?$CI?$AA?$CK?$AAe?$AAn?$AAv?$AA?0?$AA?5?$AAc?$AAc?$AAh?$AAa?$AAr?$AAs?$AA?0?$AA?5?$AAp?$AA?$CJ?$AA?$AA@ 005dd5d8     LIBCMTD:stdenvp.obj
 0003:00022618       ??_C@_1BC@GHMCNHHL@?$AA_?$AAs?$AAe?$AAt?$AAe?$AAn?$AAv?$AAp?$AA?$AA@ 005dd618     LIBCMTD:stdenvp.obj
 0003:00022630       ??_C@_1GC@DGBFLDBN@?$AAf?$AA?3?$AA?2?$AAd?$AAd?$AA?2?$AAv?$AAc?$AAt?$AAo?$AAo?$AAl?$AAs?$AA?2?$AAc?$AAr?$AAt?$AA_?$AAb?$AAl?$AAd?$AA?2?$AAs?$AAe?$AAl?$AAf?$AA_?$AAx?$AA8?$AA6?$AA?2?$AAc@ 005dd630     LIBCMTD:stdenvp.obj
 0003:000226a8       ??_C@_0DB@BMEBJJKP@f?3?2dd?2vctools?2crt_bld?2self_x86?2c@ 005dd6a8     LIBCMTD:stdenvp.obj
 0003:000226e4       ??_C@_0DB@OEPBJOLC@f?3?2dd?2vctools?2crt_bld?2self_x86?2c@ 005dd6e4     LIBCMTD:stdargv.obj
 0003:00022720       ??_C@_0CP@PPLBCJDN@f?3?2dd?2vctools?2crt_bld?2self_x86?2c@ 005dd720     LIBCMTD:a_env.obj
 0003:00022758       ??_C@_1GE@JDDMFOID@?$AAf?$AA?3?$AA?2?$AAd?$AAd?$AA?2?$AAv?$AAc?$AAt?$AAo?$AAo?$AAl?$AAs?$AA?2?$AAc?$AAr?$AAt?$AA_?$AAb?$AAl?$AAd?$AA?2?$AAs?$AAe?$AAl?$AAf?$AA_?$AAx?$AA8?$AA6?$AA?2?$AAc@ 005dd758     LIBCMTD:heapinit.obj
 0003:000227d0       ??_C@_1BC@DENNNKIM@?$AA_?$AAc?$AAr?$AAt?$AAh?$AAe?$AAa?$AAp?$AA?$AA@ 005dd7d0     LIBCMTD:heapinit.obj
 0003:000227e8       ??_C@_0BO@GNIAFIKK@Unknown?5Runtime?5Check?5Error?6?$AN?$AA@ 005dd7e8     LIBCMTD:_error_.obj
 0003:0002280c       ??_C@_0CM@NGINOKPC@Stack?5memory?5around?5_alloca?5was?5@ 005dd80c     LIBCMTD:_error_.obj
 0003:00022840       ??_C@_0DG@HKJMLLLP@A?5local?5variable?5was?5used?5before@ 005dd840     LIBCMTD:_error_.obj
 0003:00022880       ??_C@_0BN@FFOINMNJ@Stack?5memory?5was?5corrupted?6?$AN?$AA@ 005dd880     LIBCMTD:_error_.obj
 0003:000228a8       ??_C@_0BBN@GPMLNJCF@A?5cast?5to?5a?5smaller?5data?5type?5ha@ 005dd8a8     LIBCMTD:_error_.obj
 0003:00022a00       ??_C@_0NN@NGPKDKPD@The?5value?5of?5ESP?5was?5not?5properl@ 005dda00     LIBCMTD:_error_.obj
 0003:00022bc8       ??_C@_0CA@IODNCDPG@Run?9Time?5Check?5Failure?5?$CD?$CFd?5?9?5?$CFs?$AA@ 005ddbc8     LIBCMTD:_error_.obj
 0003:00022bf0       ??_C@_0BE@GNBOBNCK@Unknown?5Module?5Name?$AA@ 005ddbf0     LIBCMTD:_error_.obj
 0003:00022c08       ??_C@_0BB@PFFGGCJP@Unknown?5Filename?$AA@ 005ddc08     LIBCMTD:_error_.obj
 0003:00022c20       ??_C@_1EA@NFKNIFJP@?$AAR?$AAu?$AAn?$AA?9?$AAT?$AAi?$AAm?$AAe?$AA?5?$AAC?$AAh?$AAe?$AAc?$AAk?$AA?5?$AAF?$AAa?$AAi?$AAl?$AAu?$AAr?$AAe?$AA?5?$AA?$CD?$AA?$CF?$AAd?$AA?5?$AA?9?$AA?5?$AA?$CF?$AAs?$AA?$AA@ 005ddc20     LIBCMTD:_error_.obj
 0003:00022c70       ??_C@_1GM@OLMCBDMB@?$AAR?$AAu?$AAn?$AAt?$AAi?$AAm?$AAe?$AA?5?$AAC?$AAh?$AAe?$AAc?$AAk?$AA?5?$AAE?$AAr?$AAr?$AAo?$AAr?$AA?4?$AA?6?$AA?$AN?$AA?5?$AAU?$AAn?$AAa?$AAb?$AAl?$AAe?$AA?5?$AAt?$AAo@ 005ddc70     LIBCMTD:_error_.obj
 0003:00022cf4       ??_C@_0CG@IAFNJNEE@Stack?5corrupted?5near?5unknown?5var@ 005ddcf4     LIBCMTD:_error_.obj
 0003:00022d28       ??_C@_0EJ@LJKNEOLN@Stack?5area?5around?5_alloca?5memory@ 005ddd28     LIBCMTD:_error_.obj
 0003:00022d80       ??_C@_08KJEDNCKC@?$CFs?$CFs?$CFs?$CFs?$AA@ 005ddd80     LIBCMTD:_error_.obj
 0003:00022d8c       ??_C@_02LLMPMKNF@?$DO?5?$AA@ 005ddd8c     LIBCMTD:_error_.obj
 0003:00022d90       ??_C@_0BC@KIBAILCI@?$CFs?$CFs?$CFp?$CFs?$CFld?$CFs?$CFd?$CFs?$AA@ 005ddd90     LIBCMTD:_error_.obj
 0003:00022da8       ??_C@_0EI@CLEPFNGI@Stack?5area?5around?5_alloca?5memory@ 005ddda8     LIBCMTD:_error_.obj
 0003:00022e00       ??_C@_0N@MHFFIMFG@?6Address?3?50x?$AA@ 005dde00     LIBCMTD:_error_.obj
 0003:00022e10       ??_C@_07DFDJCKFN@?6Size?3?5?$AA@ 005dde10     LIBCMTD:_error_.obj
 0003:00022e1c       ??_C@_0CK@DKGBICFE@?6Allocation?5number?5within?5this?5f@ 005dde1c     LIBCMTD:_error_.obj
 0003:00022e50       ??_C@_08OMAHNMHJ@?6Data?3?5?$DM?$AA@ 005dde50     LIBCMTD:_error_.obj
 0003:00022e5c       ??_C@_09FOPFMPEJ@wsprintfA?$AA@ 005dde5c     LIBCMTD:_error_.obj
 0003:00022e68       ??_C@_0L@GMPLCCII@user32?4dll?$AA@ 005dde68     LIBCMTD:_error_.obj
 0003:00022e78       ??_C@_0DE@OHJBPMBP@A?5variable?5is?5being?5used?5without@ 005dde78     LIBCMTD:_error_.obj
 0003:00022eb8       ??_C@_0BP@OGBCLIBO@Stack?5around?5_alloca?5corrupted?$AA@ 005ddeb8     LIBCMTD:_userapi_.obj
 0003:00022ee0       ??_C@_0CK@CNLNOEPB@Local?5variable?5used?5before?5initi@ 005ddee0     LIBCMTD:_userapi_.obj
 0003:00022f14       ??_C@_0BI@CIGMDCBH@Stack?5memory?5corruption?$AA@ 005ddf14     LIBCMTD:_userapi_.obj
 0003:00022f30       ??_C@_0CK@FEGOIOPB@Cast?5to?5smaller?5type?5causing?5los@ 005ddf30     LIBCMTD:_userapi_.obj
 0003:00022f64       ??_C@_0BJ@HEGAHDFO@Stack?5pointer?5corruption?$AA@ 005ddf64     LIBCMTD:_userapi_.obj
 0003:00022f9c       ??_C@_0DP@CBBAPGOP@f?3?2dd?2vctools?2crt_bld?2self_x86?2c@ 005ddf9c     LIBCMTD:chkesp.obj
 0003:00022fe8       ??_C@_0NM@DNEDKLDF@The?5value?5of?5ESP?5was?5not?5properl@ 005ddfe8     LIBCMTD:chkesp.obj
 0003:000230f0       ??_C@_0BG@KLEAJEFJ@Illegal?5byte?5sequence?$AA@ 005de0f0     LIBCMTD:syserr.obj
 0003:0002310c       ??_C@_0BE@ICMCHPHH@Directory?5not?5empty?$AA@ 005de10c     LIBCMTD:syserr.obj
 0003:00023124       ??_C@_0BJ@IHEHINLI@Function?5not?5implemented?$AA@ 005de124     LIBCMTD:syserr.obj
 0003:00023144       ??_C@_0BD@CLHBCGPB@No?5locks?5available?$AA@ 005de144     LIBCMTD:syserr.obj
 0003:0002315c       ??_C@_0BC@BEDIHIDK@Filename?5too?5long?$AA@ 005de15c     LIBCMTD:syserr.obj
 0003:00023174       ??_C@_0BK@JAEBMJJM@Resource?5deadlock?5avoided?$AA@ 005de174     LIBCMTD:syserr.obj
 0003:00023194       ??_C@_0BB@FCBJFCAJ@Result?5too?5large?$AA@ 005de194     LIBCMTD:syserr.obj
 0003:000231a8       ??_C@_0N@MMJPGLJK@Domain?5error?$AA@ 005de1a8     LIBCMTD:syserr.obj
 0003:000231b8       ??_C@_0M@LHEPIIOM@Broken?5pipe?$AA@ 005de1b8     LIBCMTD:syserr.obj
 0003:000231c8       ??_C@_0P@PKCJJLLM@Too?5many?5links?$AA@ 005de1c8     LIBCMTD:syserr.obj
 0003:000231dc       ??_C@_0BG@DDBFNKBH@Read?9only?5file?5system?$AA@ 005de1dc     LIBCMTD:syserr.obj
 0003:000231f8       ??_C@_0N@FEHLOILP@Invalid?5seek?$AA@ 005de1f8     LIBCMTD:syserr.obj
 0003:00023208       ??_C@_0BI@FEALHKLD@No?5space?5left?5on?5device?$AA@ 005de208     LIBCMTD:syserr.obj
 0003:00023224       ??_C@_0P@LFMMIPAE@File?5too?5large?$AA@ 005de224     LIBCMTD:syserr.obj
 0003:00023238       ??_C@_0CE@ONOKNLPF@Inappropriate?5I?1O?5control?5operat@ 005de238     LIBCMTD:syserr.obj
 0003:00023264       ??_C@_0BE@INBJMKGG@Too?5many?5open?5files?$AA@ 005de264     LIBCMTD:syserr.obj
 0003:0002327c       ??_C@_0BO@IIFBODJE@Too?5many?5open?5files?5in?5system?$AA@ 005de27c     LIBCMTD:syserr.obj
 0003:000232a0       ??_C@_0BB@HMGGCEBG@Invalid?5argument?$AA@ 005de2a0     LIBCMTD:syserr.obj
 0003:000232b4       ??_C@_0P@NDHGCGKE@Is?5a?5directory?$AA@ 005de2b4     LIBCMTD:syserr.obj
 0003:000232c8       ??_C@_0BA@CJBACOOL@Not?5a?5directory?$AA@ 005de2c8     LIBCMTD:syserr.obj
 0003:000232dc       ??_C@_0P@NLEIANHE@No?5such?5device?$AA@ 005de2dc     LIBCMTD:syserr.obj
 0003:000232f0       ??_C@_0O@OAMDNOCP@Improper?5link?$AA@ 005de2f0     LIBCMTD:syserr.obj
 0003:00023300       ??_C@_0M@NAAJNNGH@File?5exists?$AA@ 005de300     LIBCMTD:syserr.obj
 0003:00023310       ??_C@_0BA@BIBLIOEK@Resource?5device?$AA@ 005de310     LIBCMTD:syserr.obj
 0003:00023324       ??_C@_0O@NIPGCINC@Unknown?5error?$AA@ 005de324     LIBCMTD:syserr.obj
 0003:00023334       ??_C@_0M@LOEHLCJD@Bad?5address?$AA@ 005de334     LIBCMTD:syserr.obj
 0003:00023344       ??_C@_0BC@HFNFNKAI@Permission?5denied?$AA@ 005de344     LIBCMTD:syserr.obj
 0003:0002335c       ??_C@_0BB@IMDKMPFB@Not?5enough?5space?$AA@ 005de35c     LIBCMTD:syserr.obj
 0003:00023370       ??_C@_0CB@EPFKGNAK@Resource?5temporarily?5unavailable@ 005de370     LIBCMTD:syserr.obj
 0003:00023398       ??_C@_0BD@LOHELEP@No?5child?5processes?$AA@ 005de398     LIBCMTD:syserr.obj
 0003:000233b0       ??_C@_0BE@NFGDDCEF@Bad?5file?5descriptor?$AA@ 005de3b0     LIBCMTD:syserr.obj
 0003:000233c8       ??_C@_0BC@HKPNECK@Exec?5format?5error?$AA@ 005de3c8     LIBCMTD:syserr.obj
 0003:000233e0       ??_C@_0BC@MFFGCDFL@Arg?5list?5too?5long?$AA@ 005de3e0     LIBCMTD:syserr.obj
 0003:000233f8       ??_C@_0BK@DPKMCKJ@No?5such?5device?5or?5address?$AA@ 005de3f8     LIBCMTD:syserr.obj
 0003:00023418       ??_C@_0BD@KKNFOBBD@Input?1output?5error?$AA@ 005de418     LIBCMTD:syserr.obj
 0003:00023430       ??_C@_0BK@FJBOAFDK@Interrupted?5function?5call?$AA@ 005de430     LIBCMTD:syserr.obj
 0003:00023450       ??_C@_0BA@FKIAIBGA@No?5such?5process?$AA@ 005de450     LIBCMTD:syserr.obj
 0003:00023464       ??_C@_0BK@FMDHKPNF@No?5such?5file?5or?5directory?$AA@ 005de464     LIBCMTD:syserr.obj
 0003:00023484       ??_C@_0BI@BJFCGOHL@Operation?5not?5permitted?$AA@ 005de484     LIBCMTD:syserr.obj
 0003:000234a0       ??_C@_08INEPGKHH@No?5error?$AA@ 005de4a0     LIBCMTD:syserr.obj
 0003:000234ac       ??_C@_1BK@JMCGJOCC@?$AA_?$AAe?$AAx?$AAp?$AAa?$AAn?$AAd?$AA_?$AAb?$AAa?$AAs?$AAe?$AA?$AA@ 005de4ac     LIBCMTD:expand.obj
 0003:000234d0       ??_C@_1GA@EBHFLDNH@?$AAf?$AA?3?$AA?2?$AAd?$AAd?$AA?2?$AAv?$AAc?$AAt?$AAo?$AAo?$AAl?$AAs?$AA?2?$AAc?$AAr?$AAt?$AA_?$AAb?$AAl?$AAd?$AA?2?$AAs?$AAe?$AAl?$AAf?$AA_?$AAx?$AA8?$AA6?$AA?2?$AAc@ 005de4d0     LIBCMTD:expand.obj
 0003:00023544       ??_C@_1BO@KFIJIAEA@?$AAp?$AAB?$AAl?$AAo?$AAc?$AAk?$AA?5?$AA?$CB?$AA?$DN?$AA?5?$AAN?$AAU?$AAL?$AAL?$AA?$AA@ 005de544     LIBCMTD:expand.obj
 0003:00023568       ??_C@_0BF@PEEJCKGM@HeapQueryInformation?$AA@ 005de568     LIBCMTD:expand.obj
 0003:00023584       ??_C@_1BK@MGMFAEKH@?$AAk?$AAe?$AAr?$AAn?$AAe?$AAl?$AA3?$AA2?$AA?4?$AAd?$AAl?$AAl?$AA?$AA@ 005de584     LIBCMTD:expand.obj
 0003:000235a8       ??_C@_1GA@CMCJKKIB@?$AAf?$AA?3?$AA?2?$AAd?$AAd?$AA?2?$AAv?$AAc?$AAt?$AAo?$AAo?$AAl?$AAs?$AA?2?$AAc?$AAr?$AAt?$AA_?$AAb?$AAl?$AAd?$AA?2?$AAs?$AAe?$AAl?$AAf?$AA_?$AAx?$AA8?$AA6?$AA?2?$AAc@ 005de5a8     LIBCMTD:sbheap.obj
 0003:00023620       ??_C@_1IC@MOGBEBCE@?$AA?$CI?$AAt?$AAh?$AAr?$AAe?$AAs?$AAh?$AAo?$AAl?$AAd?$AA?5?$AA?$DM?$AA?$DN?$AA?5?$AAM?$AAA?$AAX?$AA_?$AAA?$AAL?$AAL?$AAO?$AAC?$AA_?$AAD?$AAA?$AAT?$AAA?$AA_?$AAS?$AAI?$AAZ@ 005de620     LIBCMTD:sbheap.obj
 0003:000236bc       ??_C@_1CG@BBFCGKBK@?$AA_?$AAs?$AAe?$AAt?$AA_?$AAs?$AAb?$AAh?$AA_?$AAt?$AAh?$AAr?$AAe?$AAs?$AAh?$AAo?$AAl?$AAd?$AA?$AA@ 005de6bc     LIBCMTD:sbheap.obj
 0003:000236f0       ??_C@_1EC@DACAONFE@?$AAt?$AAh?$AAr?$AAe?$AAs?$AAh?$AAo?$AAl?$AAd?$AA?5?$AA?$DM?$AA?$DN?$AA?5?$AAM?$AAA?$AAX?$AA_?$AAA?$AAL?$AAL?$AAO?$AAC?$AA_?$AAD?$AAA?$AAT?$AAA?$AA_?$AAS?$AAI?$AAZ?$AAE@ 005de6f0     LIBCMTD:sbheap.obj
 0003:00023740       ??_C@_1BM@GFNECEDD@?$AA_?$AAs?$AAe?$AAt?$AA_?$AAa?$AAm?$AAb?$AAl?$AAk?$AAs?$AAi?$AAz?$AA?$AA@ 005de740     LIBCMTD:sbheap.obj
 0003:00023764       ??_C@_1DK@BKLENMLC@?$AA0?$AA?5?$AA?$DM?$AA?5?$AAs?$AAi?$AAz?$AAe?$AA?5?$AA?$CG?$AA?$CG?$AA?5?$AAs?$AAi?$AAz?$AAe?$AA?5?$AA?$DM?$AA?$DN?$AA?5?$AAU?$AAI?$AAN?$AAT?$AA_?$AAM?$AAA?$AAX?$AA?$AA@ 005de764     LIBCMTD:sbheap.obj
 0003:000237ac       ??_C@_1BM@OFBCOJJF@?$AA_?$AAg?$AAe?$AAt?$AA_?$AAa?$AAm?$AAb?$AAl?$AAk?$AAs?$AAi?$AAz?$AA?$AA@ 005de7ac     LIBCMTD:sbheap.obj
 0003:000237d0       ??_C@_1BM@IELHFPPM@?$AAp?$AAS?$AAi?$AAz?$AAe?$AA?5?$AA?$CB?$AA?$DN?$AA?5?$AAN?$AAU?$AAL?$AAL?$AA?$AA@ 005de7d0     LIBCMTD:sbheap.obj
 0003:000237f8       ??_C@_1GE@GJCMHHMH@?$AAf?$AA?3?$AA?2?$AAd?$AAd?$AA?2?$AAv?$AAc?$AAt?$AAo?$AAo?$AAl?$AAs?$AA?2?$AAc?$AAr?$AAt?$AA_?$AAb?$AAl?$AAd?$AA?2?$AAs?$AAe?$AAl?$AAf?$AA_?$AAx?$AA8?$AA6?$AA?2?$AAc@ 005de7f8     LIBCMTD:inittime.obj
 0003:00023870       ??_C@_1EE@FDHCFDHN@?$AAp?$AAl?$AAo?$AAc?$AAi?$AA?9?$AA?$DO?$AAl?$AAc?$AA_?$AAt?$AAi?$AAm?$AAe?$AA_?$AAc?$AAu?$AAr?$AAr?$AA?9?$AA?$DO?$AAr?$AAe?$AAf?$AAc?$AAo?$AAu?$AAn?$AAt?$AA?5?$AA?$DO?$AA?5@ 005de870     LIBCMTD:inittime.obj
 0003:000238c4       ??_C@_0DC@KICHHNFK@f?3?2dd?2vctools?2crt_bld?2self_x86?2c@ 005de8c4     LIBCMTD:inittime.obj
 0003:00023900       ??_C@_1GC@EDJOCBCL@?$AAf?$AA?3?$AA?2?$AAd?$AAd?$AA?2?$AAv?$AAc?$AAt?$AAo?$AAo?$AAl?$AAs?$AA?2?$AAc?$AAr?$AAt?$AA_?$AAb?$AAl?$AAd?$AA?2?$AAs?$AAe?$AAl?$AAf?$AA_?$AAx?$AA8?$AA6?$AA?2?$AAc@ 005de900     LIBCMTD:initnum.obj
 0003:00023978       ??_C@_1DM@IFKAINNE@?$AAp?$AAl?$AAo?$AAc?$AAi?$AA?9?$AA?$DO?$AAl?$AAc?$AAo?$AAn?$AAv?$AA_?$AAn?$AAu?$AAm?$AA_?$AAr?$AAe?$AAf?$AAc?$AAo?$AAu?$AAn?$AAt?$AA?5?$AA?$DO?$AA?5?$AA0?$AA?$AA@ 005de978     LIBCMTD:initnum.obj
 0003:000239c0       ??_C@_0DB@KKFMDHFI@f?3?2dd?2vctools?2crt_bld?2self_x86?2c@ 005de9c0     LIBCMTD:initnum.obj
 0003:00023a00       ??_C@_1GC@IKADOFBJ@?$AAf?$AA?3?$AA?2?$AAd?$AAd?$AA?2?$AAv?$AAc?$AAt?$AAo?$AAo?$AAl?$AAs?$AA?2?$AAc?$AAr?$AAt?$AA_?$AAb?$AAl?$AAd?$AA?2?$AAs?$AAe?$AAl?$AAf?$AA_?$AAx?$AA8?$AA6?$AA?2?$AAc@ 005dea00     LIBCMTD:initmon.obj
 0003:00023a78       ??_C@_1DM@GKAPAMDO@?$AAp?$AAl?$AAo?$AAc?$AAi?$AA?9?$AA?$DO?$AAl?$AAc?$AAo?$AAn?$AAv?$AA_?$AAm?$AAo?$AAn?$AA_?$AAr?$AAe?$AAf?$AAc?$AAo?$AAu?$AAn?$AAt?$AA?5?$AA?$DO?$AA?5?$AA0?$AA?$AA@ 005dea78     LIBCMTD:initmon.obj
 0003:00023ac0       ??_C@_0DB@BECNGFDL@f?3?2dd?2vctools?2crt_bld?2self_x86?2c@ 005deac0     LIBCMTD:initmon.obj
 0003:00023afc       ??_C@_08JCCMCCIL@HH?3mm?3ss?$AA@ 005deafc     LIBCMTD:strftime.obj
 0003:00023b08       ??_C@_0BE@CKGJFCPC@dddd?0?5MMMM?5dd?0?5yyyy?$AA@ 005deb08     LIBCMTD:strftime.obj
 0003:00023b20       ??_C@_08BPBNCDIB@MM?1dd?1yy?$AA@ 005deb20     LIBCMTD:strftime.obj
 0003:00023b2c       ??_C@_02CJNFDJBF@PM?$AA@   005deb2c     LIBCMTD:strftime.obj
 0003:00023b30       ??_C@_02DEDBPAFC@AM?$AA@   005deb30     LIBCMTD:strftime.obj
 0003:00023b34       ??_C@_08EDHMEBNP@December?$AA@ 005deb34     LIBCMTD:strftime.obj
 0003:00023b40       ??_C@_08HCHEGEOA@November?$AA@ 005deb40     LIBCMTD:strftime.obj
 0003:00023b4c       ??_C@_07JJNFCEND@October?$AA@ 005deb4c     LIBCMTD:strftime.obj
 0003:00023b58       ??_C@_09BHHEALKD@September?$AA@ 005deb58     LIBCMTD:strftime.obj
 0003:00023b64       ??_C@_06LBBHFDDG@August?$AA@ 005deb64     LIBCMTD:strftime.obj
 0003:00023b6c       ??_C@_04MIEPOIFP@July?$AA@ 005deb6c     LIBCMTD:strftime.obj
 0003:00023b74       ??_C@_04CNLMGBGM@June?$AA@ 005deb74     LIBCMTD:strftime.obj
 0003:00023b7c       ??_C@_05DMJDNLEJ@April?$AA@ 005deb7c     LIBCMTD:strftime.obj
 0003:00023b84       ??_C@_05HPCKOFNC@March?$AA@ 005deb84     LIBCMTD:strftime.obj
 0003:00023b8c       ??_C@_08GNJGEPFN@February?$AA@ 005deb8c     LIBCMTD:strftime.obj
 0003:00023b98       ??_C@_07CGJPFGJA@January?$AA@ 005deb98     LIBCMTD:strftime.obj
 0003:00023ba4       ??_C@_03MKABNOCG@Dec?$AA@  005deba4     LIBCMTD:strftime.obj
 0003:00023ba8       ??_C@_03JPJOFNIA@Nov?$AA@  005deba8     LIBCMTD:strftime.obj
 0003:00023bac       ??_C@_03BMAOKBAD@Oct?$AA@  005debac     LIBCMTD:strftime.obj
 0003:00023bb0       ??_C@_03GGCAPAJC@Sep?$AA@  005debb0     LIBCMTD:strftime.obj
 0003:00023bb4       ??_C@_03IFJFEIGA@Aug?$AA@  005debb4     LIBCMTD:strftime.obj
 0003:00023bb8       ??_C@_03LBGABGKK@Jul?$AA@  005debb8     LIBCMTD:strftime.obj
 0003:00023bbc       ??_C@_03IDFGHECI@Jun?$AA@  005debbc     LIBCMTD:strftime.obj
 0003:00023bc0       ??_C@_03CNMDKL@May?$AA@    005debc0     LIBCMTD:strftime.obj
 0003:00023bc4       ??_C@_03LEOLGMJP@Apr?$AA@  005debc4     LIBCMTD:strftime.obj
 0003:00023bc8       ??_C@_03ODNJBKGA@Mar?$AA@  005debc8     LIBCMTD:strftime.obj
 0003:00023bcc       ??_C@_03HJBDCHOM@Feb?$AA@  005debcc     LIBCMTD:strftime.obj
 0003:00023bd0       ??_C@_03JIHJHPIE@Jan?$AA@  005debd0     LIBCMTD:strftime.obj
 0003:00023bd4       ??_C@_08INBOOONO@Saturday?$AA@ 005debd4     LIBCMTD:strftime.obj
 0003:00023be0       ??_C@_06JECMNKMI@Friday?$AA@ 005debe0     LIBCMTD:strftime.obj
 0003:00023be8       ??_C@_08HACCIKIA@Thursday?$AA@ 005debe8     LIBCMTD:strftime.obj
 0003:00023bf4       ??_C@_09DLIGFAKA@Wednesday?$AA@ 005debf4     LIBCMTD:strftime.obj
 0003:00023c00       ??_C@_07BAAGCFCM@Tuesday?$AA@ 005dec00     LIBCMTD:strftime.obj
 0003:00023c0c       ??_C@_06JLEDEDGH@Monday?$AA@ 005dec0c     LIBCMTD:strftime.obj
 0003:00023c14       ??_C@_06OOPIFAJ@Sunday?$AA@ 005dec14     LIBCMTD:strftime.obj
 0003:00023c1c       ??_C@_03FEFJNEK@Sat?$AA@   005dec1c     LIBCMTD:strftime.obj
 0003:00023c20       ??_C@_03IDIOELNC@Fri?$AA@  005dec20     LIBCMTD:strftime.obj
 0003:00023c24       ??_C@_03IOFIKPDN@Thu?$AA@  005dec24     LIBCMTD:strftime.obj
 0003:00023c28       ??_C@_03MHOMLAJA@Wed?$AA@  005dec28     LIBCMTD:strftime.obj
 0003:00023c2c       ??_C@_03NAGEINEP@Tue?$AA@  005dec2c     LIBCMTD:strftime.obj
 0003:00023c30       ??_C@_03PDAGKDH@Mon?$AA@   005dec30     LIBCMTD:strftime.obj
 0003:00023c34       ??_C@_03KOEHGMDN@Sun?$AA@  005dec34     LIBCMTD:strftime.obj
 0003:00023c38       ??_C@_1FM@LPEPDBJF@?$AAs?$AAt?$AAr?$AAc?$AAp?$AAy?$AA_?$AAs?$AA?$CI?$AAs?$AA?0?$AA?5?$AA?$CI?$AAl?$AAe?$AAn?$AA?5?$AA?$CL?$AA?5?$AA1?$AA?$CJ?$AA?5?$AA?9?$AA?5?$AA?$CI?$AAs?$AA?5?$AA?9?$AA?5?$AAp?$AA?$CJ?$AA?0@ 005dec38     LIBCMTD:strftime.obj
 0003:00023ca8       ??_C@_1GG@NAGHPCAA@?$AAs?$AAt?$AAr?$AAc?$AAp?$AAy?$AA_?$AAs?$AA?$CI?$AAs?$AA?0?$AA?5?$AA?$CI?$AAl?$AAe?$AAn?$AA?5?$AA?$CL?$AA?5?$AA1?$AA?$CJ?$AA?5?$AA?9?$AA?5?$AA?$CI?$AAs?$AA?5?$AA?9?$AA?5?$AAp?$AA?$CJ?$AA?0@ 005deca8     LIBCMTD:strftime.obj
 0003:00023d24       ??_C@_1BG@LGACIFJI@?$AA_?$AAG?$AAe?$AAt?$AAd?$AAa?$AAy?$AAs?$AA_?$AAl?$AA?$AA@ 005ded24     LIBCMTD:strftime.obj
 0003:00023d40       ??_C@_1GE@FCOIONJG@?$AAf?$AA?3?$AA?2?$AAd?$AAd?$AA?2?$AAv?$AAc?$AAt?$AAo?$AAo?$AAl?$AAs?$AA?2?$AAc?$AAr?$AAt?$AA_?$AAb?$AAl?$AAd?$AA?2?$AAs?$AAe?$AAl?$AAf?$AA_?$AAx?$AA8?$AA6?$AA?2?$AAc@ 005ded40     LIBCMTD:strftime.obj
 0003:00023db8       ??_C@_0DC@MEPJBKMO@f?3?2dd?2vctools?2crt_bld?2self_x86?2c@ 005dedb8     LIBCMTD:strftime.obj
 0003:00023df8       ??_C@_1FO@IFFKPIEL@?$AAs?$AAt?$AAr?$AAc?$AAp?$AAy?$AA_?$AAs?$AA?$CI?$AAs?$AA?0?$AA?5?$AA?$CI?$AAl?$AAe?$AAn?$AA?5?$AA?$CL?$AA?5?$AA1?$AA?$CJ?$AA?5?$AA?9?$AA?5?$AA?$CI?$AAs?$AA?5?$AA?9?$AA?5?$AAp?$AA?$CJ?$AA?0@ 005dedf8     LIBCMTD:strftime.obj
 0003:00023e68       ??_C@_1GI@LNJDDNLK@?$AAs?$AAt?$AAr?$AAc?$AAp?$AAy?$AA_?$AAs?$AA?$CI?$AAs?$AA?0?$AA?5?$AA?$CI?$AAl?$AAe?$AAn?$AA?5?$AA?$CL?$AA?5?$AA1?$AA?$CJ?$AA?5?$AA?9?$AA?5?$AA?$CI?$AAs?$AA?5?$AA?9?$AA?5?$AAp?$AA?$CJ?$AA?0@ 005dee68     LIBCMTD:strftime.obj
 0003:00023ee4       ??_C@_1BK@IDMELNCB@?$AA_?$AAG?$AAe?$AAt?$AAm?$AAo?$AAn?$AAt?$AAh?$AAs?$AA_?$AAl?$AA?$AA@ 005deee4     LIBCMTD:strftime.obj
 0003:00023f08       ??_C@_1FG@CJBIADLJ@?$AAs?$AAt?$AAr?$AAc?$AAp?$AAy?$AA_?$AAs?$AA?$CI?$AAs?$AA?0?$AA?5?$AAl?$AAe?$AAn?$AA?5?$AA?9?$AA?5?$AA?$CI?$AAs?$AA?5?$AA?9?$AA?5?$AAp?$AA?$CJ?$AA?0?$AA?5?$AAp?$AAt?$AA?9?$AA?$DO?$AAw@ 005def08     LIBCMTD:strftime.obj
 0003:00023f70       ??_C@_1FI@PPIHCJGH@?$AAs?$AAt?$AAr?$AAc?$AAp?$AAy?$AA_?$AAs?$AA?$CI?$AAs?$AA?0?$AA?5?$AAl?$AAe?$AAn?$AA?5?$AA?9?$AA?5?$AA?$CI?$AAs?$AA?5?$AA?9?$AA?5?$AAp?$AA?$CJ?$AA?0?$AA?5?$AAp?$AAt?$AA?9?$AA?$DO?$AAw@ 005def70     LIBCMTD:strftime.obj
 0003:00023fe0       ??_C@_1FI@GDNOPCGD@?$AAs?$AAt?$AAr?$AAc?$AAp?$AAy?$AA_?$AAs?$AA?$CI?$AAs?$AA?0?$AA?5?$AAl?$AAe?$AAn?$AA?5?$AA?9?$AA?5?$AA?$CI?$AAs?$AA?5?$AA?9?$AA?5?$AAp?$AA?$CJ?$AA?0?$AA?5?$AAp?$AAt?$AA?9?$AA?$DO?$AAw@ 005defe0     LIBCMTD:strftime.obj
 0003:00024050       ??_C@_1FA@MEHIJEIL@?$AAs?$AAt?$AAr?$AAc?$AAp?$AAy?$AA_?$AAs?$AA?$CI?$AAs?$AA?0?$AA?5?$AAl?$AAe?$AAn?$AA?5?$AA?9?$AA?5?$AA?$CI?$AAs?$AA?5?$AA?9?$AA?5?$AAp?$AA?$CJ?$AA?0?$AA?5?$AAp?$AAt?$AA?9?$AA?$DO?$AAa@ 005df050     LIBCMTD:strftime.obj
 0003:000240b0       ??_C@_1FA@INCJEBF@?$AAs?$AAt?$AAr?$AAc?$AAp?$AAy?$AA_?$AAs?$AA?$CI?$AAs?$AA?0?$AA?5?$AAl?$AAe?$AAn?$AA?5?$AA?9?$AA?5?$AA?$CI?$AAs?$AA?5?$AA?9?$AA?5?$AAp?$AA?$CJ?$AA?0?$AA?5?$AAp?$AAt?$AA?9?$AA?$DO?$AAa@ 005df0b0     LIBCMTD:strftime.obj
 0003:00024110       ??_C@_1FC@BEAPAEGE@?$AAs?$AAt?$AAr?$AAc?$AAp?$AAy?$AA_?$AAs?$AA?$CI?$AAs?$AA?0?$AA?5?$AAl?$AAe?$AAn?$AA?5?$AA?9?$AA?5?$AA?$CI?$AAs?$AA?5?$AA?9?$AA?5?$AAp?$AA?$CJ?$AA?0?$AA?5?$AAp?$AAt?$AA?9?$AA?$DO?$AAm@ 005df110     LIBCMTD:strftime.obj
 0003:00024178       ??_C@_1FM@CHHONFED@?$AAs?$AAt?$AAr?$AAc?$AAp?$AAy?$AA_?$AAs?$AA?$CI?$AAs?$AA?0?$AA?5?$AAl?$AAe?$AAn?$AA?5?$AA?9?$AA?5?$AA?$CI?$AAs?$AA?5?$AA?9?$AA?5?$AAp?$AA?$CJ?$AA?0?$AA?5?$AAp?$AAt?$AA?9?$AA?$DO?$AAm@ 005df178     LIBCMTD:strftime.obj
 0003:000241e8       ??_C@_1FA@EBHJJADL@?$AAs?$AAt?$AAr?$AAc?$AAp?$AAy?$AA_?$AAs?$AA?$CI?$AAs?$AA?0?$AA?5?$AAl?$AAe?$AAn?$AA?5?$AA?9?$AA?5?$AA?$CI?$AAs?$AA?5?$AA?9?$AA?5?$AAp?$AA?$CJ?$AA?0?$AA?5?$AAp?$AAt?$AA?9?$AA?$DO?$AAw@ 005df1e8     LIBCMTD:strftime.obj
 0003:00024248       ??_C@_1FK@ODMKEFLD@?$AAs?$AAt?$AAr?$AAc?$AAp?$AAy?$AA_?$AAs?$AA?$CI?$AAs?$AA?0?$AA?5?$AAl?$AAe?$AAn?$AA?5?$AA?9?$AA?5?$AA?$CI?$AAs?$AA?5?$AA?9?$AA?5?$AAp?$AA?$CJ?$AA?0?$AA?5?$AAp?$AAt?$AA?9?$AA?$DO?$AAw@ 005df248     LIBCMTD:strftime.obj
 0003:000242b4       ??_C@_1BK@MJNHIAGO@?$AA_?$AAG?$AAe?$AAt?$AAt?$AAn?$AAa?$AAm?$AAe?$AAs?$AA_?$AAl?$AA?$AA@ 005df2b4     LIBCMTD:strftime.obj
 0003:000242d4       ??_C@_1M@HCOOECOK@?$AAF?$AAA?$AAL?$AAS?$AAE?$AA?$AA@ 005df2d4     LIBCMTD:strftime.obj
 0003:000242e8       ??_C@_1HC@JGDOBCNK@?$AA?$CI?$AA?$CC?$AAI?$AAn?$AAv?$AAa?$AAl?$AAi?$AAd?$AA?5?$AAM?$AAB?$AAC?$AAS?$AA?5?$AAc?$AAh?$AAa?$AAr?$AAa?$AAc?$AAt?$AAe?$AAr?$AA?5?$AAs?$AAe?$AAq?$AAu?$AAe?$AAn?$AAc@ 005df2e8     LIBCMTD:strftime.obj
 0003:00024370       ??_C@_1CA@COHOENPC@?$AAt?$AAi?$AAm?$AAe?$AAp?$AAt?$AAr?$AA?5?$AA?$CB?$AA?$DN?$AA?5?$AAN?$AAU?$AAL?$AAL?$AA?$AA@ 005df370     LIBCMTD:strftime.obj
 0003:00024398       ??_C@_1CG@MHIOFJLE@?$AA?$CI?$AA?5?$AAf?$AAo?$AAr?$AAm?$AAa?$AAt?$AA?5?$AA?$CB?$AA?$DN?$AA?5?$AAN?$AAU?$AAL?$AAL?$AA?5?$AA?$CJ?$AA?$AA@ 005df398     LIBCMTD:strftime.obj
 0003:000243c8       ??_C@_1CC@IHEJKGMG@?$AA?$CI?$AA?5?$AAm?$AAa?$AAx?$AAs?$AAi?$AAz?$AAe?$AA?5?$AA?$CB?$AA?$DN?$AA?5?$AA0?$AA?5?$AA?$CJ?$AA?$AA@ 005df3c8     LIBCMTD:strftime.obj
 0003:000243f0       ??_C@_1BI@ONBMGNNA@?$AA_?$AAS?$AAt?$AAr?$AAf?$AAt?$AAi?$AAm?$AAe?$AA_?$AAl?$AA?$AA@ 005df3f0     LIBCMTD:strftime.obj
 0003:0002440c       ??_C@_1CG@MPKJHDAA@?$AA?$CI?$AA?5?$AAs?$AAt?$AAr?$AAi?$AAn?$AAg?$AA?5?$AA?$CB?$AA?$DN?$AA?5?$AAN?$AAU?$AAL?$AAL?$AA?5?$AA?$CJ?$AA?$AA@ 005df40c     LIBCMTD:strftime.obj
 0003:00024440       ??_C@_1EG@JNJKHKFI@?$AA?$CI?$AA?5?$AA?$CC?$AAI?$AAn?$AAv?$AAa?$AAl?$AAi?$AAd?$AA?5?$AAf?$AAo?$AAr?$AAm?$AAa?$AAt?$AA?5?$AAd?$AAi?$AAr?$AAe?$AAc?$AAt?$AAi?$AAv?$AAe?$AA?$CC?$AA?5?$AA?0?$AA?5?$AA0@ 005df440     LIBCMTD:strftime.obj
 0003:00024498       ??_C@_1HM@LBNGKIAD@?$AA?$CI?$AA?5?$AAt?$AAi?$AAm?$AAe?$AAp?$AAt?$AAr?$AA?9?$AA?$DO?$AAt?$AAm?$AA_?$AAy?$AAe?$AAa?$AAr?$AA?5?$AA?$DO?$AA?$DN?$AA?5?$AA?9?$AA1?$AA9?$AA0?$AA0?$AA?5?$AA?$CJ?$AA?5?$AA?$CG?$AA?$CG@ 005df498     LIBCMTD:strftime.obj
 0003:0002452c       ??_C@_1DC@NMCFBMJP@?$AA?$CI?$AA?5?$AAt?$AAi?$AAm?$AAe?$AAp?$AAt?$AAr?$AA?9?$AA?$DO?$AAt?$AAm?$AA_?$AAy?$AAe?$AAa?$AAr?$AA?5?$AA?$DO?$AA?$DN?$AA0?$AA?5?$AA?$CJ?$AA?$AA@ 005df52c     LIBCMTD:strftime.obj
 0003:00024568       ??_C@_1HC@HLKHIKOB@?$AA?$CI?$AA?5?$AA?$CI?$AA?5?$AAt?$AAi?$AAm?$AAe?$AAp?$AAt?$AAr?$AA?9?$AA?$DO?$AAt?$AAm?$AA_?$AAs?$AAe?$AAc?$AA?5?$AA?$DO?$AA?$DN?$AA0?$AA?5?$AA?$CJ?$AA?5?$AA?$CG?$AA?$CG?$AA?5?$AA?$CI?$AA?5?$AAt@ 005df568     LIBCMTD:strftime.obj
 0003:000245f0       ??_C@_1HC@IGKDPPHL@?$AA?$CI?$AA?5?$AA?$CI?$AA?5?$AAt?$AAi?$AAm?$AAe?$AAp?$AAt?$AAr?$AA?9?$AA?$DO?$AAt?$AAm?$AA_?$AAm?$AAi?$AAn?$AA?5?$AA?$DO?$AA?$DN?$AA0?$AA?5?$AA?$CJ?$AA?5?$AA?$CG?$AA?$CG?$AA?5?$AA?$CI?$AA?5?$AAt@ 005df5f0     LIBCMTD:strftime.obj
 0003:00024678       ??_C@_1HI@HHCJCPE@?$AA?$CI?$AA?5?$AA?$CI?$AA?5?$AAt?$AAi?$AAm?$AAe?$AAp?$AAt?$AAr?$AA?9?$AA?$DO?$AAt?$AAm?$AA_?$AAy?$AAd?$AAa?$AAy?$AA?5?$AA?$DO?$AA?$DN?$AA0?$AA?5?$AA?$CJ?$AA?5?$AA?$CG?$AA?$CG?$AA?5?$AA?$CI?$AA?5@ 005df678     LIBCMTD:strftime.obj
 0003:00024708       ??_C@_1HG@KCGGFLNI@?$AA?$CI?$AA?5?$AA?$CI?$AA?5?$AAt?$AAi?$AAm?$AAe?$AAp?$AAt?$AAr?$AA?9?$AA?$DO?$AAt?$AAm?$AA_?$AAh?$AAo?$AAu?$AAr?$AA?5?$AA?$DO?$AA?$DN?$AA0?$AA?5?$AA?$CJ?$AA?5?$AA?$CG?$AA?$CG?$AA?5?$AA?$CI?$AA?5@ 005df708     LIBCMTD:strftime.obj
 0003:00024798       ??_C@_1HG@NFHHOAD@?$AA?$CI?$AA?5?$AA?$CI?$AA?5?$AAt?$AAi?$AAm?$AAe?$AAp?$AAt?$AAr?$AA?9?$AA?$DO?$AAt?$AAm?$AA_?$AAm?$AAd?$AAa?$AAy?$AA?5?$AA?$DO?$AA?$DN?$AA1?$AA?5?$AA?$CJ?$AA?5?$AA?$CG?$AA?$CG?$AA?5?$AA?$CI?$AA?5@ 005df798     LIBCMTD:strftime.obj
 0003:00024828       ??_C@_1HC@OOAMILFB@?$AA?$CI?$AA?5?$AA?$CI?$AA?5?$AAt?$AAi?$AAm?$AAe?$AAp?$AAt?$AAr?$AA?9?$AA?$DO?$AAt?$AAm?$AA_?$AAm?$AAo?$AAn?$AA?5?$AA?$DO?$AA?$DN?$AA0?$AA?5?$AA?$CJ?$AA?5?$AA?$CG?$AA?$CG?$AA?5?$AA?$CI?$AA?5?$AAt@ 005df828     LIBCMTD:strftime.obj
 0003:000248b0       ??_C@_1BI@HBKPAJH@?$AA_?$AAe?$AAx?$AAp?$AAa?$AAn?$AAd?$AAt?$AAi?$AAm?$AAe?$AA?$AA@ 005df8b0     LIBCMTD:strftime.obj
 0003:000248d0       ??_C@_1HE@BFLEOKFO@?$AA?$CI?$AA?5?$AA?$CI?$AA?5?$AAt?$AAi?$AAm?$AAe?$AAp?$AAt?$AAr?$AA?9?$AA?$DO?$AAt?$AAm?$AA_?$AAw?$AAd?$AAa?$AAy?$AA?5?$AA?$DO?$AA?$DN?$AA0?$AA?5?$AA?$CJ?$AA?5?$AA?$CG?$AA?$CG?$AA?5?$AA?$CI?$AA?5@ 005df8d0     LIBCMTD:strftime.obj
 0003:00024960       ??_C@_1HG@PAEENAPO@?$AA?$CI?$AA?$CC?$AAI?$AAn?$AAv?$AAa?$AAl?$AAi?$AAd?$AA?5?$AAM?$AAB?$AAC?$AAS?$AA?5?$AAc?$AAh?$AAa?$AAr?$AAa?$AAc?$AAt?$AAe?$AAr?$AA?5?$AAs?$AAe?$AAq?$AAu?$AAe?$AAn?$AAc@ 005df960     LIBCMTD:strftime.obj
 0003:000249f0       ??_C@_1IE@EIDABBDG@?$AA?$CI?$AA?$CC?$AAI?$AAn?$AAv?$AAa?$AAl?$AAi?$AAd?$AA?5?$AAM?$AAB?$AAC?$AAS?$AA?5?$AAc?$AAh?$AAa?$AAr?$AAa?$AAc?$AAt?$AAe?$AAr?$AA?5?$AAs?$AAe?$AAq?$AAu?$AAe?$AAn?$AAc@ 005df9f0     LIBCMTD:strftime.obj
 0003:00024a90       ??_C@_03EBAPMIKO@a?1p?$AA@ 005dfa90     LIBCMTD:strftime.obj
 0003:00024a94       ??_C@_05JAMEPDIN@am?1pm?$AA@ 005dfa94     LIBCMTD:strftime.obj
 0003:00024a9c       ??_C@_1BC@HGPNAKGC@?$AAs?$AAt?$AAr?$AAc?$AAa?$AAt?$AA_?$AAs?$AA?$AA@ 005dfa9c     LIBCMTD:strcat_s.obj
 0003:00024ab4       ??_C@_0O@FMJNFNKE@united?9states?$AA@ 005dfab4     LIBCMTD:getqloc.obj
 0003:00024ac4       ??_C@_0P@NDHFFKCA@united?9kingdom?$AA@ 005dfac4     LIBCMTD:getqloc.obj
 0003:00024ad8       ??_C@_0BC@HHDADLGF@trinidad?5?$CG?5tobago?$AA@ 005dfad8     LIBCMTD:getqloc.obj
 0003:00024af0       ??_C@_0M@IOAEBDAC@south?9korea?$AA@ 005dfaf0     LIBCMTD:getqloc.obj
 0003:00024b00       ??_C@_0N@FIELFKIJ@south?9africa?$AA@ 005dfb00     LIBCMTD:getqloc.obj
 0003:00024b10       ??_C@_0M@OPNDHCMC@south?5korea?$AA@ 005dfb10     LIBCMTD:getqloc.obj
 0003:00024b20       ??_C@_0N@MDEOEPFI@south?5africa?$AA@ 005dfb20     LIBCMTD:getqloc.obj
 0003:00024b30       ??_C@_06FKAPCJLB@slovak?$AA@ 005dfb30     LIBCMTD:getqloc.obj
 0003:00024b38       ??_C@_0M@EFJANOAL@puerto?9rico?$AA@ 005dfb38     LIBCMTD:getqloc.obj
 0003:00024b48       ??_C@_08PGOJKDAI@pr?9china?$AA@ 005dfb48     LIBCMTD:getqloc.obj
 0003:00024b54       ??_C@_08JHDOMCMI@pr?5china?$AA@ 005dfb54     LIBCMTD:getqloc.obj
 0003:00024b60       ??_C@_02JHCHFBLL@nz?$AA@   005dfb60     LIBCMTD:getqloc.obj
 0003:00024b64       ??_C@_0M@LINHDHKP@new?9zealand?$AA@ 005dfb64     LIBCMTD:getqloc.obj
 0003:00024b74       ??_C@_09IIIPPBDB@hong?9kong?$AA@ 005dfb74     LIBCMTD:getqloc.obj
 0003:00024b80       ??_C@_07HJLCKBG@holland?$AA@ 005dfb80     LIBCMTD:getqloc.obj
 0003:00024b8c       ??_C@_0O@LEHGMHAG@great?5britain?$AA@ 005dfb8c     LIBCMTD:getqloc.obj
 0003:00024b9c       ??_C@_07FACOMELA@england?$AA@ 005dfb9c     LIBCMTD:getqloc.obj
 0003:00024ba8       ??_C@_05JIHCEICB@czech?$AA@ 005dfba8     LIBCMTD:getqloc.obj
 0003:00024bb0       ??_C@_05BBJOBLGB@china?$AA@ 005dfbb0     LIBCMTD:getqloc.obj
 0003:00024bb8       ??_C@_07GPKPHICP@britain?$AA@ 005dfbb8     LIBCMTD:getqloc.obj
 0003:00024bc4       ??_C@_07MHIPBHMG@america?$AA@ 005dfbc4     LIBCMTD:getqloc.obj
 0003:00024bd0       ??_C@_03KIALPMKC@usa?$AA@  005dfbd0     LIBCMTD:getqloc.obj
 0003:00024bd4       ??_C@_02FGJGKGGD@us?$AA@   005dfbd4     LIBCMTD:getqloc.obj
 0003:00024bd8       ??_C@_02NEINDODK@uk?$AA@   005dfbd8     LIBCMTD:getqloc.obj
 0003:00024bdc       ??_C@_05JMPCFJFJ@swiss?$AA@ 005dfbdc     LIBCMTD:getqloc.obj
 0003:00024be4       ??_C@_0BA@HLOCPIOD@swedish?9finland?$AA@ 005dfbe4     LIBCMTD:getqloc.obj
 0003:00024bf8       ??_C@_0BC@PKCNIABK@spanish?9venezuela?$AA@ 005dfbf8     LIBCMTD:getqloc.obj
 0003:00024c10       ??_C@_0BA@GBHHMIJI@spanish?9uruguay?$AA@ 005dfc10     LIBCMTD:getqloc.obj
 0003:00024c24       ??_C@_0BE@BHDOHPMC@spanish?9puerto?5rico?$AA@ 005dfc24     LIBCMTD:getqloc.obj
 0003:00024c3c       ??_C@_0N@KMOIDGGN@spanish?9peru?$AA@ 005dfc3c     LIBCMTD:getqloc.obj
 0003:00024c4c       ??_C@_0BB@HMHLPGPH@spanish?9paraguay?$AA@ 005dfc4c     LIBCMTD:getqloc.obj
 0003:00024c60       ??_C@_0P@MCPKNGFD@spanish?9panama?$AA@ 005dfc60     LIBCMTD:getqloc.obj
 0003:00024c74       ??_C@_0BC@IHOHGAIL@spanish?9nicaragua?$AA@ 005dfc74     LIBCMTD:getqloc.obj
 0003:00024c8c       ??_C@_0P@KLMJDNFJ@spanish?9modern?$AA@ 005dfc8c     LIBCMTD:getqloc.obj
 0003:00024ca0       ??_C@_0BA@BPAPGBCM@spanish?9mexican?$AA@ 005dfca0     LIBCMTD:getqloc.obj
 0003:00024cb4       ??_C@_0BB@PDECHHHE@spanish?9honduras?$AA@ 005dfcb4     LIBCMTD:getqloc.obj
 0003:00024cc8       ??_C@_0BC@KLHKFGDB@spanish?9guatemala?$AA@ 005dfcc8     LIBCMTD:getqloc.obj
 0003:00024ce0       ??_C@_0BE@MFOOKJAI@spanish?9el?5salvador?$AA@ 005dfce0     LIBCMTD:getqloc.obj
 0003:00024cf8       ??_C@_0BA@FCOKFPFC@spanish?9ecuador?$AA@ 005dfcf8     LIBCMTD:getqloc.obj
 0003:00024d0c       ??_C@_0BL@PLMGIMOO@spanish?9dominican?5republic?$AA@ 005dfd0c     LIBCMTD:getqloc.obj
 0003:00024d2c       ??_C@_0BD@HLGDNMHB@spanish?9costa?5rica?$AA@ 005dfd2c     LIBCMTD:getqloc.obj
 0003:00024d44       ??_C@_0BB@PKCBKCPE@spanish?9colombia?$AA@ 005dfd44     LIBCMTD:getqloc.obj
 0003:00024d58       ??_C@_0O@MCBIJGNE@spanish?9chile?$AA@ 005dfd58     LIBCMTD:getqloc.obj
 0003:00024d68       ??_C@_0BA@BEFEIGJJ@spanish?9bolivia?$AA@ 005dfd68     LIBCMTD:getqloc.obj
 0003:00024d7c       ??_C@_0BC@EMECMPD@spanish?9argentina?$AA@ 005dfd7c     LIBCMTD:getqloc.obj
 0003:00024d94       ??_C@_0BF@EALFLENP@portuguese?9brazilian?$AA@ 005dfd94     LIBCMTD:getqloc.obj
 0003:00024db0       ??_C@_0BC@HBLEBLNN@norwegian?9nynorsk?$AA@ 005dfdb0     LIBCMTD:getqloc.obj
 0003:00024dc8       ??_C@_0BB@HMACDDCK@norwegian?9bokmal?$AA@ 005dfdc8     LIBCMTD:getqloc.obj
 0003:00024ddc       ??_C@_09BAFFPPHE@norwegian?$AA@ 005dfddc     LIBCMTD:getqloc.obj
 0003:00024de8       ??_C@_0O@EAJFJDFG@italian?9swiss?$AA@ 005dfde8     LIBCMTD:getqloc.obj
 0003:00024df8       ??_C@_0O@CNOMPGD@irish?9english?$AA@ 005dfdf8     LIBCMTD:getqloc.obj
 0003:00024e08       ??_C@_0N@EDHBGCKG@german?9swiss?$AA@ 005dfe08     LIBCMTD:getqloc.obj
 0003:00024e18       ??_C@_0BC@JACMHNBP@german?9luxembourg?$AA@ 005dfe18     LIBCMTD:getqloc.obj
 0003:00024e30       ??_C@_0BE@HBGMGFEG@german?9lichtenstein?$AA@ 005dfe30     LIBCMTD:getqloc.obj
 0003:00024e48       ??_C@_0BA@HKKBIBKL@german?9austrian?$AA@ 005dfe48     LIBCMTD:getqloc.obj
 0003:00024e5c       ??_C@_0N@GCAEPEBK@french?9swiss?$AA@ 005dfe5c     LIBCMTD:getqloc.obj
 0003:00024e6c       ??_C@_0BC@DJFJJCK@french?9luxembourg?$AA@ 005dfe6c     LIBCMTD:getqloc.obj
 0003:00024e84       ??_C@_0BA@NNCEDFIC@french?9canadian?$AA@ 005dfe84     LIBCMTD:getqloc.obj
 0003:00024e98       ??_C@_0P@CMPOCLM@french?9belgian?$AA@ 005dfe98     LIBCMTD:getqloc.obj
 0003:00024eac       ??_C@_0M@GHHDJOK@english?9usa?$AA@ 005dfeac     LIBCMTD:getqloc.obj
 0003:00024ebc       ??_C@_0L@PLDJKEIL@english?9us?$AA@ 005dfebc     LIBCMTD:getqloc.obj
 0003:00024ecc       ??_C@_0L@HJCCDMNC@english?9uk?$AA@ 005dfecc     LIBCMTD:getqloc.obj
 0003:00024edc       ??_C@_0BK@CKLIAGJB@english?9trinidad?5y?5tobago?$AA@ 005dfedc     LIBCMTD:getqloc.obj
 0003:00024efc       ??_C@_0BF@JMJMGNNF@english?9south?5africa?$AA@ 005dfefc     LIBCMTD:getqloc.obj
 0003:00024f18       ??_C@_0L@DKIIFDFD@english?9nz?$AA@ 005dff18     LIBCMTD:getqloc.obj
 0003:00024f28       ??_C@_0BA@ONHGJCLH@english?9jamaica?$AA@ 005dff28     LIBCMTD:getqloc.obj
 0003:00024f3c       ??_C@_0M@HJBGHOPO@english?9ire?$AA@ 005dff3c     LIBCMTD:getqloc.obj
 0003:00024f4c       ??_C@_0BC@LFEKMIFB@english?9caribbean?$AA@ 005dff4c     LIBCMTD:getqloc.obj
 0003:00024f64       ??_C@_0M@OLDPFKHI@english?9can?$AA@ 005dff64     LIBCMTD:getqloc.obj
 0003:00024f74       ??_C@_0P@OMDEHBMP@english?9belize?$AA@ 005dff74     LIBCMTD:getqloc.obj
 0003:00024f88       ??_C@_0M@KFHFPFED@english?9aus?$AA@ 005dff88     LIBCMTD:getqloc.obj
 0003:00024f98       ??_C@_0BB@MNMBKDFE@english?9american?$AA@ 005dff98     LIBCMTD:getqloc.obj
 0003:00024fac       ??_C@_0O@KIDLNNBA@dutch?9belgian?$AA@ 005dffac     LIBCMTD:getqloc.obj
 0003:00024fbc       ??_C@_0BE@JBKABBMH@chinese?9traditional?$AA@ 005dffbc     LIBCMTD:getqloc.obj
 0003:00024fd4       ??_C@_0BC@MJJMPKCG@chinese?9singapore?$AA@ 005dffd4     LIBCMTD:getqloc.obj
 0003:00024fec       ??_C@_0BD@FDKADDCP@chinese?9simplified?$AA@ 005dffec     LIBCMTD:getqloc.obj
 0003:00025004       ??_C@_0BB@DBEFDDME@chinese?9hongkong?$AA@ 005e0004     LIBCMTD:getqloc.obj
 0003:00025018       ??_C@_07DHNMFMCI@chinese?$AA@ 005e0018     LIBCMTD:getqloc.obj
 0003:00025024       ??_C@_03FNDDCHI@chi?$AA@   005e0024     LIBCMTD:getqloc.obj
 0003:00025028       ??_C@_03BMMIADDJ@chh?$AA@  005e0028     LIBCMTD:getqloc.obj
 0003:0002502c       ??_C@_08OAIPJDGI@canadian?$AA@ 005e002c     LIBCMTD:getqloc.obj
 0003:00025038       ??_C@_07HBPMNPNJ@belgian?$AA@ 005e0038     LIBCMTD:getqloc.obj
 0003:00025044       ??_C@_0L@OEKOPBEL@australian?$AA@ 005e0044     LIBCMTD:getqloc.obj
 0003:00025054       ??_C@_0BB@MEIMBEDG@american?9english?$AA@ 005e0054     LIBCMTD:getqloc.obj
 0003:00025068       ??_C@_0BB@DFMDPDGB@american?5english?$AA@ 005e0068     LIBCMTD:getqloc.obj
 0003:0002507c       ??_C@_08IJLOKOLL@american?$AA@ 005e007c     LIBCMTD:getqloc.obj
 0003:00025088       ___rg_language             005e0088     LIBCMTD:getqloc.obj
 0003:000252f8       ___rg_country              005e02f8     LIBCMTD:getqloc.obj
 0003:000253d4       ___rglangidNotDefault      005e03d4     LIBCMTD:getqloc.obj
 0003:000253ec       ??_C@_0BC@NFIEMBLL@Norwegian?9Nynorsk?$AA@ 005e03ec     LIBCMTD:getqloc.obj
 0003:00025408       ??_C@_1OM@OECHDGCF@?$AAs?$AAt?$AAr?$AAc?$AAp?$AAy?$AA_?$AAs?$AA?$CI?$AAl?$AAp?$AAO?$AAu?$AAt?$AAS?$AAt?$AAr?$AA?9?$AA?$DO?$AAs?$AAz?$AAL?$AAa?$AAn?$AAg?$AAu?$AAa?$AAg?$AAe?$AA?0?$AA?5?$AA?$CI@ 005e0408     LIBCMTD:getqloc.obj
 0003:00025524       ??_C@_1CO@NJACLALJ@?$AA_?$AA_?$AAg?$AAe?$AAt?$AA_?$AAq?$AAu?$AAa?$AAl?$AAi?$AAf?$AAi?$AAe?$AAd?$AA_?$AAl?$AAo?$AAc?$AAa?$AAl?$AAe?$AA?$AA@ 005e0524     LIBCMTD:getqloc.obj
 0003:00025560       ??_C@_1GC@FECJGAE@?$AAf?$AA?3?$AA?2?$AAd?$AAd?$AA?2?$AAv?$AAc?$AAt?$AAo?$AAo?$AAl?$AAs?$AA?2?$AAc?$AAr?$AAt?$AA_?$AAb?$AAl?$AAd?$AA?2?$AAs?$AAe?$AAl?$AAf?$AA_?$AAx?$AA8?$AA6?$AA?2?$AAc@ 005e0560     LIBCMTD:getqloc.obj
 0003:000255d8       ??_C@_03NFKLAGEF@OCP?$AA@  005e05d8     LIBCMTD:getqloc.obj
 0003:000255dc       ??_C@_01GBGANLPD@0?$AA@    005e05dc     LIBCMTD:getqloc.obj
 0003:000255e0       ??_C@_03DFHEHBHG@ACP?$AA@  005e05e0     LIBCMTD:getqloc.obj
 0003:000255e4       ??_C@_1O@KLNKIMAP@?$AAf?$AAw?$AAr?$AAi?$AAt?$AAe?$AA?$AA@ 005e05e4     LIBCMTD:fwrite.obj
 0003:000255f8       ??_C@_1GA@DOFNKKGD@?$AAf?$AA?3?$AA?2?$AAd?$AAd?$AA?2?$AAv?$AAc?$AAt?$AAo?$AAo?$AAl?$AAs?$AA?2?$AAc?$AAr?$AAt?$AA_?$AAb?$AAl?$AAd?$AA?2?$AAs?$AAe?$AAl?$AAf?$AA_?$AAx?$AA8?$AA6?$AA?2?$AAc@ 005e05f8     LIBCMTD:fwrite.obj
 0003:00025670       ??_C@_1LG@DCNDJCHK@?$AA?$CI?$AA?$CC?$AAI?$AAn?$AAc?$AAo?$AAn?$AAs?$AAi?$AAs?$AAt?$AAe?$AAn?$AAt?$AA?5?$AAS?$AAt?$AAr?$AAe?$AAa?$AAm?$AA?5?$AAC?$AAo?$AAu?$AAn?$AAt?$AA?4?$AA?5?$AAF?$AAl?$AAu@ 005e0670     LIBCMTD:fwrite.obj
 0003:0002574c       ??_C@_1DC@FHEPNAPF@?$AAn?$AAu?$AAm?$AA?5?$AA?$DM?$AA?$DN?$AA?5?$AA?$CI?$AAS?$AAI?$AAZ?$AAE?$AA_?$AAM?$AAA?$AAX?$AA?5?$AA?1?$AA?5?$AAs?$AAi?$AAz?$AAe?$AA?$CJ?$AA?$AA@ 005e074c     LIBCMTD:fwrite.obj
 0003:00025788       ??_C@_1CC@CGFEEBMC@?$AA?$CI?$AAb?$AAu?$AAf?$AAf?$AAe?$AAr?$AA?5?$AA?$CB?$AA?$DN?$AA?5?$AAN?$AAU?$AAL?$AAL?$AA?$CJ?$AA?$AA@ 005e0788     LIBCMTD:fwrite.obj
 0003:000257b0       ??_C@_1BO@JGPKCBCE@?$AA_?$AAf?$AAw?$AAr?$AAi?$AAt?$AAe?$AA_?$AAn?$AAo?$AAl?$AAo?$AAc?$AAk?$AA?$AA@ 005e07b0     LIBCMTD:fwrite.obj
 0003:000257d4       ??_C@_0DC@IHGBBJOH@f?3?2dd?2vctools?2crt_bld?2self_x86?2c@ 005e07d4     LIBCMTD:convrtcp.obj
 0003:00025810       ??_C@_0BK@CFCOFLF@?5Complete?5Object?5Locator?8?$AA@ 005e0810     LIBCMTD:undname.obj
 0003:00025830       ??_C@_0BN@MECKDCOJ@?5Class?5Hierarchy?5Descriptor?8?$AA@ 005e0830     LIBCMTD:undname.obj
 0003:00025854       ??_C@_0BD@LGICGFMM@?5Base?5Class?5Array?8?$AA@ 005e0854     LIBCMTD:undname.obj
 0003:0002586c       ??_C@_0BM@LDKODKLH@?5Base?5Class?5Descriptor?5at?5?$CI?$AA@ 005e086c     LIBCMTD:undname.obj
 0003:00025890       ??_C@_0BC@DAFEJGAK@?5Type?5Descriptor?8?$AA@ 005e0890     LIBCMTD:undname.obj
 0003:000258a8       ??_C@_0BM@PMGGMLDN@?$GAlocal?5static?5thread?5guard?8?$AA@ 005e08a8     LIBCMTD:undname.obj
 0003:000258cc       ??_C@_0CL@FGIJHLCE@?$GAmanaged?5vector?5copy?5constructor@ 005e08cc     LIBCMTD:undname.obj
 0003:00025900       ??_C@_0CJ@GJELGAMM@?$GAvector?5vbase?5copy?5constructor?5i@ 005e0900     LIBCMTD:undname.obj
 0003:00025934       ??_C@_0CD@CGAJBKEJ@?$GAvector?5copy?5constructor?5iterato@ 005e0934     LIBCMTD:undname.obj
 0003:00025960       ??_C@_0CB@PDBIFEP@?$GAdynamic?5atexit?5destructor?5for?5?8@ 005e0960     LIBCMTD:undname.obj
 0003:00025988       ??_C@_0BL@CLIPGLGB@?$GAdynamic?5initializer?5for?5?8?$AA@ 005e0988     LIBCMTD:undname.obj
 0003:000259a8       ??_C@_0CM@FCBBDIGB@?$GAeh?5vector?5vbase?5copy?5constructo@ 005e09a8     LIBCMTD:undname.obj
 0003:000259dc       ??_C@_0CG@HLDDJMAG@?$GAeh?5vector?5copy?5constructor?5iter@ 005e09dc     LIBCMTD:undname.obj
 0003:00025a0c       ??_C@_0CF@IMGKMJNO@?$GAmanaged?5vector?5destructor?5itera@ 005e0a0c     LIBCMTD:undname.obj
 0003:00025a38       ??_C@_0CG@CFDHKGGD@?$GAmanaged?5vector?5constructor?5iter@ 005e0a38     LIBCMTD:undname.obj
 0003:00025a68       ??_C@_0BN@CKNJLHMB@?$GAplacement?5delete?$FL?$FN?5closure?8?$AA@ 005e0a68     LIBCMTD:undname.obj
 0003:00025a8c       ??_C@_0BL@CNOONJFP@?$GAplacement?5delete?5closure?8?$AA@ 005e0a8c     LIBCMTD:undname.obj
 0003:00025aac       ??_C@_0P@HJKNJFNN@?$GAomni?5callsig?8?$AA@ 005e0aac     LIBCMTD:undname.obj
 0003:00025ac0       ??_C@_09LBNFPBCA@?5delete?$FL?$FN?$AA@ 005e0ac0     LIBCMTD:undname.obj
 0003:00025acc       ??_C@_06FHBGPFGH@?5new?$FL?$FN?$AA@ 005e0acc     LIBCMTD:undname.obj
 0003:00025ad4       ??_C@_0CE@IIHCMGGL@?$GAlocal?5vftable?5constructor?5closu@ 005e0ad4     LIBCMTD:undname.obj
 0003:00025b00       ??_C@_0BA@KKLDJDLB@?$GAlocal?5vftable?8?$AA@ 005e0b00     LIBCMTD:undname.obj
 0003:00025b14       ??_C@_05KHLCHHI@?$GARTTI?$AA@ 005e0b14     LIBCMTD:undname.obj
 0003:00025b1c       ??_C@_03KLGMFNMG@?$GAEH?$AA@ 005e0b1c     LIBCMTD:undname.obj
 0003:00025b20       ??_C@_0BA@KBCDOMBN@?$GAudt?5returning?8?$AA@ 005e0b20     LIBCMTD:undname.obj
 0003:00025b34       ??_C@_0BL@LLKPOHJI@?$GAcopy?5constructor?5closure?8?$AA@ 005e0b34     LIBCMTD:undname.obj
 0003:00025b54       ??_C@_0CH@OOJPLCPH@?$GAeh?5vector?5vbase?5constructor?5ite@ 005e0b54     LIBCMTD:undname.obj
 0003:00025b84       ??_C@_0CA@GCEOPDGL@?$GAeh?5vector?5destructor?5iterator?8?$AA@ 005e0b84     LIBCMTD:undname.obj
 0003:00025bac       ??_C@_0CB@JONCMFFK@?$GAeh?5vector?5constructor?5iterator?8@ 005e0bac     LIBCMTD:undname.obj
 0003:00025bd4       ??_C@_0BL@NILFHHPC@?$GAvirtual?5displacement?5map?8?$AA@ 005e0bd4     LIBCMTD:undname.obj
 0003:00025bf4       ??_C@_0CE@IKBNEHA@?$GAvector?5vbase?5constructor?5iterat@ 005e0bf4     LIBCMTD:undname.obj
 0003:00025c20       ??_C@_0BN@LFPFMEDL@?$GAvector?5destructor?5iterator?8?$AA@ 005e0c20     LIBCMTD:undname.obj
 0003:00025c44       ??_C@_0BO@PFGOCPJJ@?$GAvector?5constructor?5iterator?8?$AA@ 005e0c44     LIBCMTD:undname.obj
 0003:00025c68       ??_C@_0BN@IMDCHIKM@?$GAscalar?5deleting?5destructor?8?$AA@ 005e0c68     LIBCMTD:undname.obj
 0003:00025c8c       ??_C@_0BO@OBMKPJIG@?$GAdefault?5constructor?5closure?8?$AA@ 005e0c8c     LIBCMTD:undname.obj
 0003:00025cb0       ??_C@_0BN@DEGPLNFK@?$GAvector?5deleting?5destructor?8?$AA@ 005e0cb0     LIBCMTD:undname.obj
 0003:00025cd4       ??_C@_0BD@JDLKDPAB@?$GAvbase?5destructor?8?$AA@ 005e0cd4     LIBCMTD:undname.obj
 0003:00025cec       ??_C@_08OBABFOLI@?$GAstring?8?$AA@ 005e0cec     LIBCMTD:undname.obj
 0003:00025cf8       ??_C@_0BF@KDPPACIK@?$GAlocal?5static?5guard?8?$AA@ 005e0cf8     LIBCMTD:undname.obj
 0003:00025d14       ??_C@_08LLFFHHDJ@?$GAtypeof?8?$AA@ 005e0d14     LIBCMTD:undname.obj
 0003:00025d20       ??_C@_07FEEIOKP@?$GAvcall?8?$AA@ 005e0d20     LIBCMTD:undname.obj
 0003:00025d2c       ??_C@_09BLBHBJP@?$GAvbtable?8?$AA@ 005e0d2c     LIBCMTD:undname.obj
 0003:00025d38       ??_C@_09IFPLHPGF@?$GAvftable?8?$AA@ 005e0d38     LIBCMTD:undname.obj
 0003:00025d44       ??_C@_02MHEGNOJ@?$FO?$DN?$AA@ 005e0d44     LIBCMTD:undname.obj
 0003:00025d48       ??_C@_02DHLNPPGH@?$HM?$DN?$AA@ 005e0d48     LIBCMTD:undname.obj
 0003:00025d4c       ??_C@_02FGJGFEAB@?$CG?$DN?$AA@ 005e0d4c     LIBCMTD:undname.obj
 0003:00025d50       ??_C@_03CDNPDDLA@?$DM?$DM?$DN?$AA@ 005e0d50     LIBCMTD:undname.obj
 0003:00025d54       ??_C@_03IKFCCPFF@?$DO?$DO?$DN?$AA@ 005e0d54     LIBCMTD:undname.obj
 0003:00025d58       ??_C@_02FENAOKFI@?$CF?$DN?$AA@ 005e0d58     LIBCMTD:undname.obj
 0003:00025d5c       ??_C@_02FJEHGPIO@?1?$DN?$AA@ 005e0d5c     LIBCMTD:undname.obj
 0003:00025d60       ??_C@_02FKMDLLOA@?9?$DN?$AA@ 005e0d60     LIBCMTD:undname.obj
 0003:00025d64       ??_C@_02FOEOMHFC@?$CL?$DN?$AA@ 005e0d64     LIBCMTD:undname.obj
 0003:00025d68       ??_C@_02FPIMKNGF@?$CK?$DN?$AA@ 005e0d68     LIBCMTD:undname.obj
 0003:00025d6c       ??_C@_02NONPIBCD@?$HM?$HM?$AA@ 005e0d6c     LIBCMTD:undname.obj
 0003:00025d70       ??_C@_02PPKAJPJL@?$CG?$CG?$AA@ 005e0d70     LIBCMTD:undname.obj
 0003:00025d74       ??_C@_01DNKMNLPK@?$HM?$AA@ 005e0d74     LIBCMTD:undname.obj
 0003:00025d78       ??_C@_01JKBOJNNK@?$FO?$AA@ 005e0d78     LIBCMTD:undname.obj
 0003:00025d7c       ??_C@_01PJKLJHI@?$HO?$AA@  005e0d7c     LIBCMTD:undname.obj
 0003:00025d80       ??_C@_02HCKGKOFO@?$CI?$CJ?$AA@ 005e0d80     LIBCMTD:undname.obj
 0003:00025d84       ??_C@_01IHBHIGKO@?0?$AA@   005e0d84     LIBCMTD:undname.obj
 0003:00025d88       ??_C@_02EEKDKGMJ@?$DO?$DN?$AA@ 005e0d88     LIBCMTD:undname.obj
 0003:00025d8c       ??_C@_01PPODPGHN@?$DO?$AA@ 005e0d8c     LIBCMTD:undname.obj
 0003:00025d90       ??_C@_02EHCHHCKH@?$DM?$DN?$AA@ 005e0d90     LIBCMTD:undname.obj
 0003:00025d94       ??_C@_01MNNFJEPP@?$DM?$AA@ 005e0d94     LIBCMTD:undname.obj
 0003:00025d98       ??_C@_01FGNFDNOH@?$CF?$AA@ 005e0d98     LIBCMTD:undname.obj
 0003:00025d9c       ??_C@_01KMDKNFGN@?1?$AA@   005e0d9c     LIBCMTD:undname.obj
 0003:00025da0       ??_C@_03MNHNFDLC@?9?$DO?$CK?$AA@ 005e0da0     LIBCMTD:undname.obj
 0003:00025da4       ??_C@_01HNPIGOCE@?$CG?$AA@ 005e0da4     LIBCMTD:undname.obj
 0003:00025da8       ??_C@_01MIFGBAGJ@?$CL?$AA@ 005e0da8     LIBCMTD:undname.obj
 0003:00025dac       ??_C@_01JOAMLHOP@?9?$AA@   005e0dac     LIBCMTD:undname.obj
 0003:00025db0       ??_C@_02BAABKJLB@?9?9?$AA@ 005e0db0     LIBCMTD:undname.obj
 0003:00025db4       ??_C@_02ECNGHCIF@?$CL?$CL?$AA@ 005e0db4     LIBCMTD:undname.obj
 0003:00025db8       ??_C@_02HBOOOICD@?9?$DO?$AA@ 005e0db8     LIBCMTD:undname.obj
 0003:00025dbc       ??_C@_08LHJFAFGD@operator?$AA@ 005e0dbc     LIBCMTD:undname.obj
 0003:00025dc8       ??_C@_02GPECMEKF@?$FL?$FN?$AA@ 005e0dc8     LIBCMTD:undname.obj
 0003:00025dcc       ??_C@_02FDNJECIE@?$CB?$DN?$AA@ 005e0dcc     LIBCMTD:undname.obj
 0003:00025dd0       ??_C@_02EGOFBIJA@?$DN?$DN?$AA@ 005e0dd0     LIBCMTD:undname.obj
 0003:00025dd4       ??_C@_01DCLJPIOD@?$CB?$AA@ 005e0dd4     LIBCMTD:undname.obj
 0003:00025dd8       ??_C@_02FODMEDOG@?$DM?$DM?$AA@ 005e0dd8     LIBCMTD:undname.obj
 0003:00025ddc       ??_C@_02GPIOPFAK@?$DO?$DO?$AA@ 005e0ddc     LIBCMTD:undname.obj
 0003:00025de0       ??_C@_07FPCDHGMM@?5delete?$AA@ 005e0de0     LIBCMTD:undname.obj
 0003:00025dec       ??_C@_04NIHEBCM@?5new?$AA@ 005e0dec     LIBCMTD:undname.obj
 0003:00025df4       ??_C@_0M@GFIIJFMG@__unaligned?$AA@ 005e0df4     LIBCMTD:undname.obj
 0003:00025e04       ??_C@_0L@PILCLIHE@__restrict?$AA@ 005e0e04     LIBCMTD:undname.obj
 0003:00025e14       ??_C@_07JOMMBBKO@__ptr64?$AA@ 005e0e14     LIBCMTD:undname.obj
 0003:00025e20       ??_C@_09HIJEGCPM@__clrcall?$AA@ 005e0e20     LIBCMTD:undname.obj
 0003:00025e2c       ??_C@_0L@JMKHOMEK@__fastcall?$AA@ 005e0e2c     LIBCMTD:undname.obj
 0003:00025e3c       ??_C@_0L@NPHFGOKO@__thiscall?$AA@ 005e0e3c     LIBCMTD:undname.obj
 0003:00025e4c       ??_C@_09IFJBGAPI@__stdcall?$AA@ 005e0e4c     LIBCMTD:undname.obj
 0003:00025e58       ??_C@_08GHMPAG@__pascal?$AA@ 005e0e58     LIBCMTD:undname.obj
 0003:00025e64       ??_C@_07KOLFKCDI@__cdecl?$AA@ 005e0e64     LIBCMTD:undname.obj
 0003:00025e70       ??_C@_08EHJDFFNH@__based?$CI?$AA@ 005e0e70     LIBCMTD:undname.obj
 0003:0002604c       ??_C@_04HEJADOOB@CV?3?5?$AA@ 005e104c     LIBCMTD:undname.obj
 0003:00026054       ??_C@_02MOLJINC@?3?3?$AA@  005e1054     LIBCMTD:undname.obj
 0003:00026058       ??_C@_01GEODFPGF@?8?$AA@   005e1058     LIBCMTD:undname.obj
 0003:0002605c       ??_C@_01NLNLIGKH@?$GA?$AA@ 005e105c     LIBCMTD:undname.obj
 0003:00026060       ??_C@_0O@KHGCOMHP@generic?9type?9?$AA@ 005e1060     LIBCMTD:undname.obj
 0003:00026070       ??_C@_0BE@JAEOCHPE@template?9parameter?9?$AA@ 005e1070     LIBCMTD:undname.obj
 0003:00026088       ??_C@_02OHHJMEON@?8?8?$AA@ 005e1088     LIBCMTD:undname.obj
 0003:0002608c       ??_C@_0BG@JNJLAMPM@?$GAanonymous?5namespace?8?$AA@ 005e108c     LIBCMTD:undname.obj
 0003:000260a8       ??_C@_0BN@IBLMMFAP@?$GAnon?9type?9template?9parameter?$AA@ 005e10a8     LIBCMTD:undname.obj
 0003:000260cc       ??_C@_0BE@EODMJLIF@?$GAtemplate?9parameter?$AA@ 005e10cc     LIBCMTD:undname.obj
 0003:000260e4       ??_C@_04GKJNKENE@void?$AA@ 005e10e4     LIBCMTD:undname.obj
 0003:000260ec       ??_C@_04HIBGFPH@NULL?$AA@  005e10ec     LIBCMTD:undname.obj
 0003:000260f4       ??_C@_0M@DHNBOJMP@extern?5?$CCC?$CC?5?$AA@ 005e10f4     LIBCMTD:undname.obj
 0003:00026104       ??_C@_08KJLFOPNE@?$FLthunk?$FN?3?$AA@ 005e1104     LIBCMTD:undname.obj
 0003:00026110       ??_C@_08GPDDCMKI@public?3?5?$AA@ 005e1110     LIBCMTD:undname.obj
 0003:0002611c       ??_C@_0M@GAIFPFIP@protected?3?5?$AA@ 005e111c     LIBCMTD:undname.obj
 0003:0002612c       ??_C@_09LAPHOOG@private?3?5?$AA@ 005e112c     LIBCMTD:undname.obj
 0003:00026138       ??_C@_08NIEOINHE@virtual?5?$AA@ 005e1138     LIBCMTD:undname.obj
 0003:00026144       ??_C@_07PGOEDBHP@static?5?$AA@ 005e1144     LIBCMTD:undname.obj
 0003:00026150       ??_C@_0DA@HGFJFBBE@?$GAtemplate?5static?5data?5member?5des@ 005e1150     LIBCMTD:undname.obj
 0003:0002618c       ??_C@_0DB@ILEFOCIJ@?$GAtemplate?5static?5data?5member?5con@ 005e118c     LIBCMTD:undname.obj
 0003:000261c8       ??_C@_0CB@KJDOOODE@?$GAlocal?5static?5destructor?5helper?8@ 005e11c8     LIBCMTD:undname.obj
 0003:000261f0       ??_C@_0L@HNGCOGAE@?$GAadjustor?$HL?$AA@ 005e11f0     LIBCMTD:undname.obj
 0003:00026200       ??_C@_0L@GHPFDFH@?$GAvtordisp?$HL?$AA@ 005e1200     LIBCMTD:undname.obj
 0003:00026210       ??_C@_0N@CBHHHENL@?$GAvtordispex?$HL?$AA@ 005e1210     LIBCMTD:undname.obj
 0003:00026220       ??_C@_01CLKCMJKC@?5?$AA@   005e1220     LIBCMTD:undname.obj
 0003:00026224       ??_C@_02IGFCGPIL@?$HN?8?$AA@ 005e1224     LIBCMTD:undname.obj
 0003:00026228       ??_C@_03OPGICMGF@?$HN?8?5?$AA@ 005e1228     LIBCMTD:undname.obj
 0003:0002622c       ??_C@_02KCKGHPCA@?$CJ?5?$AA@ 005e122c     LIBCMTD:undname.obj
 0003:00026230       ??_C@_05BEFAKPML@void?5?$AA@ 005e1230     LIBCMTD:undname.obj
 0003:00026238       ??_C@_08PABEKFH@volatile?$AA@ 005e1238     LIBCMTD:undname.obj
 0003:00026244       ??_C@_0M@ELJOJFFH@?0?$DMellipsis?$DO?$AA@ 005e1244     LIBCMTD:undname.obj
 0003:00026254       ??_C@_04EENFHACM@?0?4?4?4?$AA@ 005e1254     LIBCMTD:undname.obj
 0003:0002625c       ??_C@_0L@EGPHHEKN@?$DMellipsis?$DO?$AA@ 005e125c     LIBCMTD:undname.obj
 0003:0002626c       ??_C@_07HDJPLPEK@?5throw?$CI?$AA@ 005e126c     LIBCMTD:undname.obj
 0003:00026278       ??_C@_09EFNPDFFP@?5volatile?$AA@ 005e1278     LIBCMTD:undname.obj
 0003:00026284       ??_C@_05BNCCCJPP@const?$AA@ 005e1284     LIBCMTD:undname.obj
 0003:0002628c       ??_C@_07EDHNAJHC@signed?5?$AA@ 005e128c     LIBCMTD:undname.obj
 0003:00026298       ??_C@_09EBBEKKIH@unsigned?5?$AA@ 005e1298     LIBCMTD:undname.obj
 0003:000262a4       ??_C@_07NFANNNEC@UNKNOWN?$AA@ 005e12a4     LIBCMTD:undname.obj
 0003:000262b0       ??_C@_06GCICPBLB@__w64?5?$AA@ 005e12b0     LIBCMTD:undname.obj
 0003:000262b8       ??_C@_07CLGGIAMF@wchar_t?$AA@ 005e12b8     LIBCMTD:undname.obj
 0003:000262c4       ??_C@_08GAHOLHEO@__int128?$AA@ 005e12c4     LIBCMTD:undname.obj
 0003:000262d0       ??_C@_07LFCOJCAC@__int64?$AA@ 005e12d0     LIBCMTD:undname.obj
 0003:000262dc       ??_C@_07OFLPPHGP@__int32?$AA@ 005e12dc     LIBCMTD:undname.obj
 0003:000262e8       ??_C@_07ICFHOGAF@__int16?$AA@ 005e12e8     LIBCMTD:undname.obj
 0003:000262f4       ??_C@_06EBGKOKIG@__int8?$AA@ 005e12f4     LIBCMTD:undname.obj
 0003:000262fc       ??_C@_04DDKJGDCM@bool?$AA@ 005e12fc     LIBCMTD:undname.obj
 0003:00026304       ??_C@_06BNJCAIGJ@double?$AA@ 005e1304     LIBCMTD:undname.obj
 0003:0002630c       ??_C@_05CJIMAING@long?5?$AA@ 005e130c     LIBCMTD:undname.obj
 0003:00026314       ??_C@_05KNFBNCOH@float?$AA@ 005e1314     LIBCMTD:undname.obj
 0003:0002631c       ??_C@_04GOKPGOLB@long?$AA@ 005e131c     LIBCMTD:undname.obj
 0003:00026324       ??_C@_03JBIPMCLC@int?$AA@  005e1324     LIBCMTD:undname.obj
 0003:00026328       ??_C@_05BFKKPKCG@short?$AA@ 005e1328     LIBCMTD:undname.obj
 0003:00026330       ??_C@_04ENMBGAPA@char?$AA@ 005e1330     LIBCMTD:undname.obj
 0003:00026338       ??_C@_05LJGMCFOG@enum?5?$AA@ 005e1338     LIBCMTD:undname.obj
 0003:00026340       ??_C@_0N@DLIEFKNA@cointerface?5?$AA@ 005e1340     LIBCMTD:undname.obj
 0003:00026350       ??_C@_08KOFANOFK@coclass?5?$AA@ 005e1350     LIBCMTD:undname.obj
 0003:0002635c       ??_C@_06LJBABKPM@class?5?$AA@ 005e135c     LIBCMTD:undname.obj
 0003:00026364       ??_C@_07DIBCDNGL@struct?5?$AA@ 005e1364     LIBCMTD:undname.obj
 0003:00026370       ??_C@_06MOJHIBMG@union?5?$AA@ 005e1370     LIBCMTD:undname.obj
 0003:00026378       ??_C@_0P@GCIFDJCJ@?$GAunknown?5ecsu?8?$AA@ 005e1378     LIBCMTD:undname.obj
 0003:0002638c       ??_C@_04LAHKHJMA@int?5?$AA@ 005e138c     LIBCMTD:undname.obj
 0003:00026394       ??_C@_06EHJMALKF@short?5?$AA@ 005e1394     LIBCMTD:undname.obj
 0003:0002639c       ??_C@_05CIHEBHNO@char?5?$AA@ 005e139c     LIBCMTD:undname.obj
 0003:000263a4       ??_C@_06LIJLOJAG@const?5?$AA@ 005e13a4     LIBCMTD:undname.obj
 0003:000263ac       ??_C@_09GAIEOBLP@volatile?5?$AA@ 005e13ac     LIBCMTD:undname.obj
 0003:000263b8       ??_C@_0O@GKABPPIF@cli?3?3pin_ptr?$DM?$AA@ 005e13b8     LIBCMTD:undname.obj
 0003:000263c8       ??_C@_0M@EALIELKG@cli?3?3array?$DM?$AA@ 005e13c8     LIBCMTD:undname.obj
 0003:000263d8       ??_C@_02GOGNNPBN@?$CJ?$FL?$AA@ 005e13d8     LIBCMTD:undname.obj
 0003:000263dc       ??_C@_06EEGAIFAK@?$HLflat?$HN?$AA@ 005e13dc     LIBCMTD:undname.obj
 0003:000263e4       ??_C@_02MDINNEEG@s?5?$AA@  005e13e4     LIBCMTD:undname.obj
 0003:000263e8       ??_C@_05JIBOFOHK@?$HLfor?5?$AA@ 005e13e8     LIBCMTD:undname.obj
 0003:000263f0       ??_7DNameNode@@6B@         005e13f0     LIBCMTD:undname.obj
 0003:00026400       ??_7charNode@@6B@          005e1400     LIBCMTD:undname.obj
 0003:00026410       ??_7pcharNode@@6B@         005e1410     LIBCMTD:undname.obj
 0003:00026420       ??_7pDNameNode@@6B@        005e1420     LIBCMTD:undname.obj
 0003:00026430       ??_7DNameStatusNode@@6B@   005e1430     LIBCMTD:undname.obj
 0003:00026440       ??_C@_04OKOHEJBO@?5?$DP?$DP?5?$AA@ 005e1440     LIBCMTD:undname.obj
 0003:00026448       ??_7pairNode@@6B@          005e1448     LIBCMTD:undname.obj
 0003:00026458       ??_C@_1CG@JEHFHLNG@?$AA_?$AAm?$AAb?$AAs?$AAt?$AAo?$AAw?$AAc?$AAs?$AA_?$AAl?$AA_?$AAh?$AAe?$AAl?$AAp?$AAe?$AAr?$AA?$AA@ 005e1458     LIBCMTD:mbstowcs.obj
 0003:00026488       ??_C@_1GE@LCCDHBMH@?$AAf?$AA?3?$AA?2?$AAd?$AAd?$AA?2?$AAv?$AAc?$AAt?$AAo?$AAo?$AAl?$AAs?$AA?2?$AAc?$AAr?$AAt?$AA_?$AAb?$AAl?$AAd?$AA?2?$AAs?$AAe?$AAl?$AAf?$AA_?$AAx?$AA8?$AA6?$AA?2?$AAc@ 005e1488     LIBCMTD:mbstowcs.obj
 0003:00026500       ??_C@_1BE@EEKACIGI@?$AAs?$AA?5?$AA?$CB?$AA?$DN?$AA?5?$AAN?$AAU?$AAL?$AAL?$AA?$AA@ 005e1500     LIBCMTD:mbstowcs.obj
 0003:00026518       ??_C@_1CO@JNPEPJAL@?$AAr?$AAe?$AAt?$AAs?$AAi?$AAz?$AAe?$AA?5?$AA?$DM?$AA?$DN?$AA?5?$AAs?$AAi?$AAz?$AAe?$AAI?$AAn?$AAW?$AAo?$AAr?$AAd?$AAs?$AA?$AA@ 005e1518     LIBCMTD:mbstowcs.obj
 0003:00026550       ??_C@_1CM@LLECFMFH@?$AAb?$AAu?$AAf?$AAf?$AAe?$AAr?$AAS?$AAi?$AAz?$AAe?$AA?5?$AA?$DM?$AA?$DN?$AA?5?$AAI?$AAN?$AAT?$AA_?$AAM?$AAA?$AAX?$AA?$AA@ 005e1550     LIBCMTD:mbstowcs.obj
 0003:00026584       ??_C@_1BM@PHENIGHD@?$AA_?$AAm?$AAb?$AAs?$AAt?$AAo?$AAw?$AAc?$AAs?$AA_?$AAs?$AA_?$AAl?$AA?$AA@ 005e1584     LIBCMTD:mbstowcs.obj
 0003:000265a8       ??_C@_1JA@JKDFMOPO@?$AA?$CI?$AAp?$AAw?$AAc?$AAs?$AA?5?$AA?$DN?$AA?$DN?$AA?5?$AAN?$AAU?$AAL?$AAL?$AA?5?$AA?$CG?$AA?$CG?$AA?5?$AAs?$AAi?$AAz?$AAe?$AAI?$AAn?$AAW?$AAo?$AAr?$AAd?$AAs?$AA?5?$AA?$DN?$AA?$DN?$AA?5@ 005e15a8     LIBCMTD:mbstowcs.obj
 0003:00026654       ??_C@_1CG@LLJCAOHF@?$AA_?$AAw?$AAc?$AAs?$AAt?$AAo?$AAm?$AAb?$AAs?$AA_?$AAl?$AA_?$AAh?$AAe?$AAl?$AAp?$AAe?$AAr?$AA?$AA@ 005e1654     LIBCMTD:wcstombs.obj
 0003:00026688       ??_C@_1GE@OAENIBOD@?$AAf?$AA?3?$AA?2?$AAd?$AAd?$AA?2?$AAv?$AAc?$AAt?$AAo?$AAo?$AAl?$AAs?$AA?2?$AAc?$AAr?$AAt?$AA_?$AAb?$AAl?$AAd?$AA?2?$AAs?$AAe?$AAl?$AAf?$AA_?$AAx?$AA8?$AA6?$AA?2?$AAc@ 005e1688     LIBCMTD:wcstombs.obj
 0003:00026700       ??_C@_1BK@OIBENBPM@?$AAp?$AAw?$AAc?$AAs?$AA?5?$AA?$CB?$AA?$DN?$AA?5?$AAN?$AAU?$AAL?$AAL?$AA?$AA@ 005e1700     LIBCMTD:wcstombs.obj
 0003:00026720       ??_C@_1CM@KEOGBFLI@?$AAs?$AAi?$AAz?$AAe?$AAI?$AAn?$AAB?$AAy?$AAt?$AAe?$AAs?$AA?5?$AA?$DO?$AA?5?$AAr?$AAe?$AAt?$AAs?$AAi?$AAz?$AAe?$AA?$AA@ 005e1720     LIBCMTD:wcstombs.obj
 0003:00026754       ??_C@_1BM@BDMCLLDL@?$AA_?$AAw?$AAc?$AAs?$AAt?$AAo?$AAm?$AAb?$AAs?$AA_?$AAs?$AA_?$AAl?$AA?$AA@ 005e1754     LIBCMTD:wcstombs.obj
 0003:00026778       ??_C@_1IM@MFGKHGBP@?$AA?$CI?$AAd?$AAs?$AAt?$AA?5?$AA?$CB?$AA?$DN?$AA?5?$AAN?$AAU?$AAL?$AAL?$AA?5?$AA?$CG?$AA?$CG?$AA?5?$AAs?$AAi?$AAz?$AAe?$AAI?$AAn?$AAB?$AAy?$AAt?$AAe?$AAs?$AA?5?$AA?$DO?$AA?5?$AA0?$AA?$CJ@ 005e1778     LIBCMTD:wcstombs.obj
 0003:00026820       ??_C@_1BG@BBCDFOMA@?$AA_?$AAw?$AAo?$AAu?$AAt?$AAp?$AAu?$AAt?$AA_?$AAl?$AA?$AA@ 005e1820     LIBCMTD:woutput.obj
 0003:0002683c       ??_C@_1BK@EPLNBKAK@?$AA_?$AAv?$AAs?$AAw?$AAp?$AAr?$AAi?$AAn?$AAt?$AAf?$AA_?$AAl?$AA?$AA@ 005e183c     LIBCMTD:vswprint.obj
 0003:0002685c       ??_C@_1CG@IMMIEPNA@?$AA_?$AAv?$AAs?$AAc?$AAw?$AAp?$AAr?$AAi?$AAn?$AAt?$AAf?$AA_?$AAh?$AAe?$AAl?$AAp?$AAe?$AAr?$AA?$AA@ 005e185c     LIBCMTD:vswprint.obj
 0003:0002688c       ??_C@_1BE@KHFBJMNM@?$AA_?$AAl?$AAs?$AAe?$AAe?$AAk?$AAi?$AA6?$AA4?$AA?$AA@ 005e188c     LIBCMTD:lseeki64.obj
 0003:000268a8       ??_C@_1GE@MINKPNPH@?$AAf?$AA?3?$AA?2?$AAd?$AAd?$AA?2?$AAv?$AAc?$AAt?$AAo?$AAo?$AAl?$AAs?$AA?2?$AAc?$AAr?$AAt?$AA_?$AAb?$AAl?$AAd?$AA?2?$AAs?$AAe?$AAl?$AAf?$AA_?$AAx?$AA8?$AA6?$AA?2?$AAc@ 005e18a8     LIBCMTD:lseeki64.obj
 0003:00026920       ??_C@_0DB@JEHOCBEJ@f?3?2dd?2vctools?2crt_bld?2self_x86?2c@ 005e1920     LIBCMTD:_getbuf.obj
 0003:00026960       ??_C@_1GC@DKMGNNCC@?$AAf?$AA?3?$AA?2?$AAd?$AAd?$AA?2?$AAv?$AAc?$AAt?$AAo?$AAo?$AAl?$AAs?$AA?2?$AAc?$AAr?$AAt?$AA_?$AAb?$AAl?$AAd?$AA?2?$AAs?$AAe?$AAl?$AAf?$AA_?$AAx?$AA8?$AA6?$AA?2?$AAc@ 005e1960     LIBCMTD:_getbuf.obj
 0003:000269d8       ??_C@_1BA@LEBDGIHM@?$AA_?$AAi?$AAs?$AAa?$AAt?$AAt?$AAy?$AA?$AA@ 005e19d8     LIBCMTD:isatty.obj
 0003:000269f0       ??_C@_1GA@LPGDJDEN@?$AAf?$AA?3?$AA?2?$AAd?$AAd?$AA?2?$AAv?$AAc?$AAt?$AAo?$AAo?$AAl?$AAs?$AA?2?$AAc?$AAr?$AAt?$AA_?$AAb?$AAl?$AAd?$AA?2?$AAs?$AAe?$AAl?$AAf?$AA_?$AAx?$AA8?$AA6?$AA?2?$AAc@ 005e19f0     LIBCMTD:isatty.obj
 0003:00026a64       ??_C@_1BI@IEADNOHF@?$AA_?$AAw?$AAc?$AAt?$AAo?$AAm?$AAb?$AA_?$AAs?$AA_?$AAl?$AA?$AA@ 005e1a64     LIBCMTD:wctomb.obj
 0003:00026a80       ??_C@_1GA@LDLHPOO@?$AAf?$AA?3?$AA?2?$AAd?$AAd?$AA?2?$AAv?$AAc?$AAt?$AAo?$AAo?$AAl?$AAs?$AA?2?$AAc?$AAr?$AAt?$AA_?$AAb?$AAl?$AAd?$AA?2?$AAs?$AAe?$AAl?$AAf?$AA_?$AAx?$AA8?$AA6?$AA?2?$AAc@ 005e1a80     LIBCMTD:wctomb.obj
 0003:00026af4       ??_C@_1CO@HFMIILNF@?$AAs?$AAi?$AAz?$AAe?$AAI?$AAn?$AAB?$AAy?$AAt?$AAe?$AAs?$AA?5?$AA?$DM?$AA?$DN?$AA?5?$AAI?$AAN?$AAT?$AA_?$AAM?$AAA?$AAX?$AA?$AA@ 005e1af4     LIBCMTD:wctomb.obj
 0003:00026b2c       ??_C@_1BK@CDOALEA@?$AA_?$AAc?$AAo?$AAn?$AAt?$AAr?$AAo?$AAl?$AAf?$AAp?$AA_?$AAs?$AA?$AA@ 005e1b2c     LIBCMTD:_contrlfp_.obj
 0003:00026b50       ??_C@_1HI@JIOCECAH@?$AAf?$AA?3?$AA?2?$AAd?$AAd?$AA?2?$AAv?$AAc?$AAt?$AAo?$AAo?$AAl?$AAs?$AA?2?$AAc?$AAr?$AAt?$AA_?$AAb?$AAl?$AAd?$AA?2?$AAs?$AAe?$AAl?$AAf?$AA_?$AAx?$AA8?$AA6?$AA?2?$AAc@ 005e1b50     LIBCMTD:_contrlfp_.obj
 0003:00026be0       ??_C@_1DG@JNDMIEJL@?$AA?$CI?$AA?$CC?$AAI?$AAn?$AAv?$AAa?$AAl?$AAi?$AAd?$AA?5?$AAi?$AAn?$AAp?$AAu?$AAt?$AA?5?$AAv?$AAa?$AAl?$AAu?$AAe?$AA?$CC?$AA?0?$AA?5?$AA0?$AA?$CJ?$AA?$AA@ 005e1be0     LIBCMTD:_contrlfp_.obj
 0003:00026c20       ??_C@_1BK@CLIEHFDF@?$AAp?$AAf?$AAl?$AAt?$AA?5?$AA?$CB?$AA?$DN?$AA?5?$AAN?$AAU?$AAL?$AAL?$AA?$AA@ 005e1c20     LIBCMTD:_fptostr.obj
 0003:00026c40       ??_C@_1GM@CEDLGDDI@?$AAs?$AAi?$AAz?$AAe?$AAI?$AAn?$AAB?$AAy?$AAt?$AAe?$AAs?$AA?5?$AA?$DO?$AA?5?$AA?$CI?$AAs?$AAi?$AAz?$AAe?$AA_?$AAt?$AA?$CJ?$AA?$CI?$AA?$CI?$AAd?$AAi?$AAg?$AAi?$AAt?$AAs?$AA?5?$AA?$DO@ 005e1c40     LIBCMTD:_fptostr.obj
 0003:00026cc4       ??_C@_1BC@OPALLEB@?$AA_?$AAf?$AAp?$AAt?$AAo?$AAs?$AAt?$AAr?$AA?$AA@ 005e1cc4     LIBCMTD:_fptostr.obj
 0003:00026ce0       ??_C@_1GE@BDKOPHIO@?$AAf?$AA?3?$AA?2?$AAd?$AAd?$AA?2?$AAv?$AAc?$AAt?$AAo?$AAo?$AAl?$AAs?$AA?2?$AAc?$AAr?$AAt?$AA_?$AAb?$AAl?$AAd?$AA?2?$AAs?$AAe?$AAl?$AAf?$AA_?$AAx?$AA8?$AA6?$AA?2?$AAc@ 005e1ce0     LIBCMTD:_fptostr.obj
 0003:00026d58       ??_C@_1FK@KODCOBKF@?$AAs?$AAt?$AAr?$AAc?$AAp?$AAy?$AA_?$AAs?$AA?$CI?$AAr?$AAe?$AAs?$AAu?$AAl?$AAt?$AAs?$AAt?$AAr?$AA?0?$AA?5?$AAr?$AAe?$AAs?$AAu?$AAl?$AAt?$AAs?$AAi?$AAz?$AAe?$AA?0?$AA?5@ 005e1d58     LIBCMTD:_cfout_.obj
 0003:00026dc4       ??_C@_1BC@BPMMEHLK@?$AA_?$AAf?$AAl?$AAt?$AAo?$AAu?$AAt?$AA2?$AA?$AA@ 005e1dc4     LIBCMTD:_cfout_.obj
 0003:00026de0       ??_C@_1HC@PKFDNKN@?$AAf?$AA?3?$AA?2?$AAd?$AAd?$AA?2?$AAv?$AAc?$AAt?$AAo?$AAo?$AAl?$AAs?$AA?2?$AAc?$AAr?$AAt?$AA_?$AAb?$AAl?$AAd?$AA?2?$AAs?$AAe?$AAl?$AAf?$AA_?$AAx?$AA8?$AA6?$AA?2?$AAc@ 005e1de0     LIBCMTD:_cfout_.obj
 0003:00026e68       ??_C@_1CG@EBJECAJM@?$AA_?$AAs?$AAe?$AAt?$AA_?$AAo?$AAu?$AAt?$AAp?$AAu?$AAt?$AA_?$AAf?$AAo?$AAr?$AAm?$AAa?$AAt?$AA?$AA@ 005e1e68     LIBCMTD:outputformat.obj
 0003:00026e98       ??_C@_1GM@NFGGJJCM@?$AAf?$AA?3?$AA?2?$AAd?$AAd?$AA?2?$AAv?$AAc?$AAt?$AAo?$AAo?$AAl?$AAs?$AA?2?$AAc?$AAr?$AAt?$AA_?$AAb?$AAl?$AAd?$AA?2?$AAs?$AAe?$AAl?$AAf?$AA_?$AAx?$AA8?$AA6?$AA?2?$AAc@ 005e1e98     LIBCMTD:outputformat.obj
 0003:00026f20       ??_C@_1EM@EGEEBJLG@?$AA?$CI?$AAo?$AAp?$AAt?$AAi?$AAo?$AAn?$AAs?$AA?5?$AA?$CG?$AA?5?$AA?$HO?$AA_?$AAT?$AAW?$AAO?$AA_?$AAD?$AAI?$AAG?$AAI?$AAT?$AA_?$AAE?$AAX?$AAP?$AAO?$AAN?$AAE?$AAN?$AAT?$AA?$CJ@ 005e1f20     LIBCMTD:outputformat.obj
 0003:00026f7c       ??_C@_0L@KDOEJCKC@_nextafter?$AA@ 005e1f7c     LIBCMTD:_fpexcept_.obj
 0003:00026f8c       ??_C@_05JGDBENOH@_logb?$AA@ 005e1f8c     LIBCMTD:_fpexcept_.obj
 0003:00026f94       ??_C@_03ONILCKOB@_yn?$AA@  005e1f94     LIBCMTD:_fpexcept_.obj
 0003:00026f98       ??_C@_03NAKIGLHK@_y1?$AA@  005e1f98     LIBCMTD:_fpexcept_.obj
 0003:00026f9c       ??_C@_03MJLDFKDL@_y0?$AA@  005e1f9c     LIBCMTD:_fpexcept_.obj
 0003:00026fa0       ??_C@_05GKKHEGJL@frexp?$AA@ 005e1fa0     LIBCMTD:_fpexcept_.obj
 0003:00026fa8       ??_C@_04KEPJIHGP@fmod?$AA@ 005e1fa8     LIBCMTD:_fpexcept_.obj
 0003:00026fb0       ??_C@_06MEIMCGCF@_hypot?$AA@ 005e1fb0     LIBCMTD:_fpexcept_.obj
 0003:00026fb8       ??_C@_05KBKMEMPO@_cabs?$AA@ 005e1fb8     LIBCMTD:_fpexcept_.obj
 0003:00026fc0       ??_C@_05CEJMAHNP@ldexp?$AA@ 005e1fc0     LIBCMTD:_fpexcept_.obj
 0003:00026fc8       ??_C@_04ODHECPBC@fabs?$AA@ 005e1fc8     LIBCMTD:_fpexcept_.obj
 0003:00026fd0       ??_C@_04EIAKFFMI@sqrt?$AA@ 005e1fd0     LIBCMTD:_fpexcept_.obj
 0003:00026fd8       ??_C@_05KNGEOGJB@atan2?$AA@ 005e1fd8     LIBCMTD:_fpexcept_.obj
 0003:00026fe0       ??_C@_04FJHINJAO@tanh?$AA@ 005e1fe0     LIBCMTD:_fpexcept_.obj
 0003:00026fe8       ??_C@_04HPJJNFIM@cosh?$AA@ 005e1fe8     LIBCMTD:_fpexcept_.obj
 0003:00026ff0       ??_C@_04COOMCNPB@sinh?$AA@ 005e1ff0     LIBCMTD:_fpexcept_.obj
 0003:00026ff8       ??_C@_1FO@IFEMNBMO@?$AAf?$AA?3?$AA?2?$AAd?$AAd?$AA?2?$AAv?$AAc?$AAt?$AAo?$AAo?$AAl?$AAs?$AA?2?$AAc?$AAr?$AAt?$AA_?$AAb?$AAl?$AAd?$AA?2?$AAs?$AAe?$AAl?$AAf?$AA_?$AAx?$AA8?$AA6?$AA?2?$AAc@ 005e1ff8     LIBCMTD:a_cmp.obj
 0003:00027068       ??_C@_1HK@ELDMAMK@?$AAc?$AAc?$AAh?$AAC?$AAo?$AAu?$AAn?$AAt?$AA1?$AA?$DN?$AA?$DN?$AA0?$AA?5?$AA?$CG?$AA?$CG?$AA?5?$AAc?$AAc?$AAh?$AAC?$AAo?$AAu?$AAn?$AAt?$AA2?$AA?$DN?$AA?$DN?$AA1?$AA?5?$AA?$HM?$AA?$HM?$AA?5@ 005e2068     LIBCMTD:a_cmp.obj
 0003:000270fc       ??_C@_1CC@CNADELFK@?$AA_?$AAs?$AAt?$AAr?$AAi?$AAn?$AAg?$AA2?$AA?5?$AA?$CB?$AA?$DN?$AA?5?$AAN?$AAU?$AAL?$AAL?$AA?$AA@ 005e20fc     LIBCMTD:strnicol.obj
 0003:00027124       ??_C@_1BK@IOJEBPLP@?$AA_?$AAs?$AAt?$AAr?$AAn?$AAi?$AAc?$AAo?$AAl?$AAl?$AA_?$AAl?$AA?$AA@ 005e2124     LIBCMTD:strnicol.obj
 0003:00027148       ??_C@_1GE@BDOBNJJ@?$AAf?$AA?3?$AA?2?$AAd?$AAd?$AA?2?$AAv?$AAc?$AAt?$AAo?$AAo?$AAl?$AAs?$AA?2?$AAc?$AAr?$AAt?$AA_?$AAb?$AAl?$AAd?$AA?2?$AAs?$AAe?$AAl?$AAf?$AA_?$AAx?$AA8?$AA6?$AA?2?$AAc@ 005e2148     LIBCMTD:strnicol.obj
 0003:000271c0       ??_C@_1CC@ICKKAGJA@?$AA_?$AAs?$AAt?$AAr?$AAi?$AAn?$AAg?$AA1?$AA?5?$AA?$CB?$AA?$DN?$AA?5?$AAN?$AAU?$AAL?$AAL?$AA?$AA@ 005e21c0     LIBCMTD:strnicol.obj
 0003:000271e8       ??_C@_1FG@OKIAKKPK@?$AAs?$AAt?$AAr?$AAc?$AAp?$AAy?$AA_?$AAs?$AA?$CI?$AAn?$AAa?$AAm?$AAe?$AA?0?$AA?5?$AAs?$AAt?$AAr?$AAl?$AAe?$AAn?$AA?$CI?$AAo?$AAp?$AAt?$AAi?$AAo?$AAn?$AA?$CJ?$AA?5?$AA?$CL?$AA?5@ 005e21e8     LIBCMTD:setenv.obj
 0003:00027250       ??_C@_1EI@GHDNAPMG@?$AA?$CI?$AA?$CC?$AAC?$AAR?$AAT?$AA?5?$AAL?$AAo?$AAg?$AAi?$AAc?$AA?5?$AAe?$AAr?$AAr?$AAo?$AAr?$AA?5?$AAd?$AAu?$AAr?$AAi?$AAn?$AAg?$AA?5?$AAs?$AAe?$AAt?$AAe?$AAn?$AAv?$AA?$CC@ 005e2250     LIBCMTD:setenv.obj
 0003:000272a8       ??_C@_0DA@NHJGCDK@f?3?2dd?2vctools?2crt_bld?2self_x86?2c@ 005e22a8     LIBCMTD:setenv.obj
 0003:000272e8       ??_C@_1FC@EEJIEIDF@?$AA_?$AAt?$AAc?$AAs?$AAn?$AAl?$AAe?$AAn?$AA?$CI?$AAe?$AAq?$AAu?$AAa?$AAl?$AA?5?$AA?$CL?$AA?5?$AA1?$AA?0?$AA?5?$AA_?$AAM?$AAA?$AAX?$AA_?$AAE?$AAN?$AAV?$AA?$CJ?$AA?5?$AA?$DM?$AA?5@ 005e22e8     LIBCMTD:setenv.obj
 0003:0002734c       ??_C@_1DE@EEHFNNGH@?$AAe?$AAq?$AAu?$AAa?$AAl?$AA?5?$AA?9?$AA?5?$AAo?$AAp?$AAt?$AAi?$AAo?$AAn?$AA?5?$AA?$DM?$AA?5?$AA_?$AAM?$AAA?$AAX?$AA_?$AAE?$AAN?$AAV?$AA?$AA@ 005e234c     LIBCMTD:setenv.obj
 0003:0002738c       ??_C@_1BI@CDAFOAAL@?$AA_?$AA_?$AAc?$AAr?$AAt?$AAs?$AAe?$AAt?$AAe?$AAn?$AAv?$AA?$AA@ 005e238c     LIBCMTD:setenv.obj
 0003:000273a8       ??_C@_1GA@KKPDKNLP@?$AAf?$AA?3?$AA?2?$AAd?$AAd?$AA?2?$AAv?$AAc?$AAt?$AAo?$AAo?$AAl?$AAs?$AA?2?$AAc?$AAr?$AAt?$AA_?$AAb?$AAl?$AAd?$AA?2?$AAs?$AAe?$AAl?$AAf?$AA_?$AAx?$AA8?$AA6?$AA?2?$AAc@ 005e23a8     LIBCMTD:setenv.obj
 0003:0002741c       ??_C@_1CA@LMBEKBDN@?$AAp?$AAo?$AAp?$AAt?$AAi?$AAo?$AAn?$AA?5?$AA?$CB?$AA?$DN?$AA?5?$AAN?$AAU?$AAL?$AAL?$AA?$AA@ 005e241c     LIBCMTD:setenv.obj
 0003:00027448       ??_C@_1FK@DNFLNPD@?$AAs?$AAt?$AAr?$AAc?$AAp?$AAy?$AA_?$AAs?$AA?$CI?$AA?$CK?$AAn?$AAe?$AAw?$AAe?$AAn?$AAv?$AAp?$AAt?$AAr?$AA?0?$AA?5?$AAe?$AAn?$AAv?$AAp?$AAt?$AAr?$AAS?$AAi?$AAz?$AAe?$AA?0@ 005e2448     LIBCMTD:setenv.obj
 0003:000274b4       ??_C@_1BK@ECKIJLPM@?$AAc?$AAo?$AAp?$AAy?$AA_?$AAe?$AAn?$AAv?$AAi?$AAr?$AAo?$AAn?$AA?$AA@ 005e24b4     LIBCMTD:setenv.obj
 0003:000274d8       ??_C@_1GA@GFFDGGFH@?$AAf?$AA?3?$AA?2?$AAd?$AAd?$AA?2?$AAv?$AAc?$AAt?$AAo?$AAo?$AAl?$AAs?$AA?2?$AAc?$AAr?$AAt?$AA_?$AAb?$AAl?$AAd?$AA?2?$AAs?$AAe?$AAl?$AAf?$AA_?$AAx?$AA8?$AA6?$AA?2?$AAc@ 005e24d8     LIBCMTD:mbtowc.obj
 0003:00027550       ??_C@_1NC@EINCOKCO@?$AA_?$AAl?$AAo?$AAc?$AA_?$AAu?$AAp?$AAd?$AAa?$AAt?$AAe?$AA?4?$AAG?$AAe?$AAt?$AAL?$AAo?$AAc?$AAa?$AAl?$AAe?$AAT?$AA?$CI?$AA?$CJ?$AA?9?$AA?$DO?$AAl?$AAo?$AAc?$AAi?$AAn?$AAf@ 005e2550     LIBCMTD:mbtowc.obj
 0003:0002764c       ??_C@_1BA@IIKEPOGH@?$AA_?$AAf?$AAi?$AAl?$AAb?$AAu?$AAf?$AA?$AA@ 005e264c     LIBCMTD:_filbuf.obj
 0003:00027660       ??_C@_1GC@CHFNJKFB@?$AAf?$AA?3?$AA?2?$AAd?$AAd?$AA?2?$AAv?$AAc?$AAt?$AAo?$AAo?$AAl?$AAs?$AA?2?$AAc?$AAr?$AAt?$AA_?$AAb?$AAl?$AAd?$AA?2?$AAs?$AAe?$AAl?$AAf?$AA_?$AAx?$AA8?$AA6?$AA?2?$AAc@ 005e2660     LIBCMTD:_filbuf.obj
 0003:000276d8       ??_C@_1O@JDPLECOK@?$AAu?$AAn?$AAg?$AAe?$AAt?$AAc?$AA?$AA@ 005e26d8     LIBCMTD:ungetc.obj
 0003:000276e8       ??_C@_1GA@OAFAANFO@?$AAf?$AA?3?$AA?2?$AAd?$AAd?$AA?2?$AAv?$AAc?$AAt?$AAo?$AAo?$AAl?$AAs?$AA?2?$AAc?$AAr?$AAt?$AA_?$AAb?$AAl?$AAd?$AA?2?$AAs?$AAe?$AAl?$AAf?$AA_?$AAx?$AA8?$AA6?$AA?2?$AAc@ 005e26e8     LIBCMTD:ungetc.obj
 0003:0002775c       ??_C@_1BO@OLMLKKEA@?$AA_?$AAu?$AAn?$AAg?$AAe?$AAt?$AAc?$AA_?$AAn?$AAo?$AAl?$AAo?$AAc?$AAk?$AA?$AA@ 005e275c     LIBCMTD:ungetc.obj
 0003:00027780       ??_C@_1HC@OEJDDIIH@?$AAf?$AA?3?$AA?2?$AAd?$AAd?$AA?2?$AAv?$AAc?$AAt?$AAo?$AAo?$AAl?$AAs?$AA?2?$AAc?$AAr?$AAt?$AA_?$AAb?$AAl?$AAd?$AA?2?$AAs?$AAe?$AAl?$AAf?$AA_?$AAx?$AA8?$AA6?$AA?2?$AAc@ 005e2780     LIBCMTD:ungetc.obj
 0003:00027808       ??_C@_1M@MFLJCMFJ@?$AA_?$AAo?$AAp?$AAe?$AAn?$AA?$AA@ 005e2808     LIBCMTD:open.obj
 0003:00027818       ??_C@_1FM@LFKHNNH@?$AAf?$AA?3?$AA?2?$AAd?$AAd?$AA?2?$AAv?$AAc?$AAt?$AAo?$AAo?$AAl?$AAs?$AA?2?$AAc?$AAr?$AAt?$AA_?$AAb?$AAl?$AAd?$AA?2?$AAs?$AAe?$AAl?$AAf?$AA_?$AAx?$AA8?$AA6?$AA?2?$AAc@ 005e2818     LIBCMTD:open.obj
 0003:00027888       ??_C@_1FG@NFINBJCM@?$AA?$CI?$AA?$CI?$AAp?$AAm?$AAo?$AAd?$AAe?$AA?5?$AA?$CG?$AA?5?$AA?$CI?$AA?$HO?$AA?$CI?$AA_?$AAS?$AA_?$AAI?$AAR?$AAE?$AAA?$AAD?$AA?5?$AA?$HM?$AA?5?$AA_?$AAS?$AA_?$AAI?$AAW?$AAR?$AAI?$AAT@ 005e2888     LIBCMTD:open.obj
 0003:000278f0       ??_C@_1BM@IOBAMMHO@?$AA_?$AAs?$AAo?$AAp?$AAe?$AAn?$AA_?$AAh?$AAe?$AAl?$AAp?$AAe?$AAr?$AA?$AA@ 005e28f0     LIBCMTD:open.obj
 0003:00027914       ??_C@_1BM@PGEEHLHE@?$AA?$CI?$AAp?$AAf?$AAh?$AA?5?$AA?$CB?$AA?$DN?$AA?5?$AAN?$AAU?$AAL?$AAL?$AA?$CJ?$AA?$AA@ 005e2914     LIBCMTD:open.obj
 0003:00027938       ??_C@_1IA@IENOJNJF@?$AA0?$AA?5?$AA?$CG?$AA?$CG?$AA?5?$AA?$CC?$AAO?$AAn?$AAl?$AAy?$AA?5?$AAU?$AAT?$AAF?$AA?9?$AA1?$AA6?$AA?5?$AAl?$AAi?$AAt?$AAt?$AAl?$AAe?$AA?5?$AAe?$AAn?$AAd?$AAi?$AAa?$AAn?$AA?5@ 005e2938     LIBCMTD:open.obj
 0003:000279d4       ??_C@_1CM@IDLMKMPG@?$AA0?$AA?5?$AA?$CG?$AA?$CG?$AA?5?$AA?$CC?$AAI?$AAn?$AAt?$AAe?$AAr?$AAn?$AAa?$AAl?$AA?5?$AAE?$AAr?$AAr?$AAo?$AAr?$AA?$CC?$AA?$AA@ 005e29d4     LIBCMTD:open.obj
 0003:00027a08       ??_C@_1HM@GJANBLHJ@?$AA?$CI?$AAo?$AAf?$AAl?$AAa?$AAg?$AA?5?$AA?$CG?$AA?5?$AA?$CI?$AA_?$AAO?$AA_?$AAT?$AAE?$AAX?$AAT?$AA?5?$AA?$HM?$AA?5?$AA_?$AAO?$AA_?$AAW?$AAT?$AAE?$AAX?$AAT?$AA?5?$AA?$HM?$AA?5?$AA_@ 005e2a08     LIBCMTD:open.obj
 0003:00027a9c       ??_C@_1DO@PJLMOANO@?$AA?$CI?$AA?5?$AA?$CC?$AAI?$AAn?$AAv?$AAa?$AAl?$AAi?$AAd?$AA?5?$AAs?$AAh?$AAa?$AAr?$AAi?$AAn?$AAg?$AA?5?$AAf?$AAl?$AAa?$AAg?$AA?$CC?$AA?5?$AA?0?$AA?5?$AA0?$AA?5?$AA?$CJ?$AA?$AA@ 005e2a9c     LIBCMTD:open.obj
 0003:00027ae8       ??_C@_1DI@DGKIFCCE@?$AA?$CI?$AA?5?$AA?$CC?$AAI?$AAn?$AAv?$AAa?$AAl?$AAi?$AAd?$AA?5?$AAo?$AAp?$AAe?$AAn?$AA?5?$AAf?$AAl?$AAa?$AAg?$AA?$CC?$AA?5?$AA?0?$AA?5?$AA0?$AA?5?$AA?$CJ?$AA?$AA@ 005e2ae8     LIBCMTD:open.obj
 0003:00027b2c       ??_C@_1CG@ICBEBDJJ@?$AA_?$AAg?$AAe?$AAt?$AA_?$AAf?$AAm?$AAo?$AAd?$AAe?$AA?$CI?$AA?$CG?$AAf?$AAm?$AAo?$AAd?$AAe?$AA?$CJ?$AA?$AA@ 005e2b2c     LIBCMTD:open.obj
 0003:00027b5c       ??_C@_1BO@JOPFMPGH@?$AA_?$AAt?$AAs?$AAo?$AAp?$AAe?$AAn?$AA_?$AAn?$AAo?$AAl?$AAo?$AAc?$AAk?$AA?$AA@ 005e2b5c     LIBCMTD:open.obj
 0003:00027b80       ??_C@_1BK@GEJONGBG@?$AA_?$AAm?$AAb?$AAs?$AAn?$AAb?$AAi?$AAc?$AAm?$AAp?$AA_?$AAl?$AA?$AA@ 005e2b80     LIBCMTD:mbsnbicm.obj
 0003:00027ba0       ??_C@_1GE@JLFFJINF@?$AAf?$AA?3?$AA?2?$AAd?$AAd?$AA?2?$AAv?$AAc?$AAt?$AAo?$AAo?$AAl?$AAs?$AA?2?$AAc?$AAr?$AAt?$AA_?$AAb?$AAl?$AAd?$AA?2?$AAs?$AAe?$AAl?$AAf?$AA_?$AAx?$AA8?$AA6?$AA?2?$AAc@ 005e2ba0     LIBCMTD:mbsnbicm.obj
 0003:00027c18       ??_C@_1BI@LPHOHGHI@?$AA_?$AAm?$AAb?$AAs?$AAn?$AAb?$AAc?$AAm?$AAp?$AA_?$AAl?$AA?$AA@ 005e2c18     LIBCMTD:mbsnbcmp.obj
 0003:00027c38       ??_C@_1GE@IIBFGEPN@?$AAf?$AA?3?$AA?2?$AAd?$AAd?$AA?2?$AAv?$AAc?$AAt?$AAo?$AAo?$AAl?$AAs?$AA?2?$AAc?$AAr?$AAt?$AA_?$AAb?$AAl?$AAd?$AA?2?$AAs?$AAe?$AAl?$AAf?$AA_?$AAx?$AA8?$AA6?$AA?2?$AAc@ 005e2c38     LIBCMTD:mbsnbcmp.obj
 0003:00027cb0       ??_C@_1CC@MONNFDCM@?$AAv?$AAf?$AAw?$AAp?$AAr?$AAi?$AAn?$AAt?$AAf?$AA_?$AAh?$AAe?$AAl?$AAp?$AAe?$AAr?$AA?$AA@ 005e2cb0     LIBCMTD:vfwprint.obj
 0003:00027cd8       ??_C@_1GE@MBMBDAGC@?$AAf?$AA?3?$AA?2?$AAd?$AAd?$AA?2?$AAv?$AAc?$AAt?$AAo?$AAo?$AAl?$AAs?$AA?2?$AAc?$AAr?$AAt?$AA_?$AAb?$AAl?$AAd?$AA?2?$AAs?$AAe?$AAl?$AAf?$AA_?$AAx?$AA8?$AA6?$AA?2?$AAc@ 005e2cd8     LIBCMTD:vfwprint.obj
 0003:00027d50       ??_C@_1BK@ONMFGLDB@?$AA_?$AAw?$AAo?$AAu?$AAt?$AAp?$AAu?$AAt?$AA_?$AAs?$AA_?$AAl?$AA?$AA@ 005e2d50     LIBCMTD:woutputs.obj
 0003:00027d70       ??_C@_1BK@GDEKGMNC@?$AA_?$AAw?$AAo?$AAu?$AAt?$AAp?$AAu?$AAt?$AA_?$AAp?$AA_?$AAl?$AA?$AA@ 005e2d70     LIBCMTD:woutputp.obj
 0003:00027d90       ??_C@_1BA@NGNGNDEP@?$AA_?$AAc?$AAp?$AAu?$AAt?$AAw?$AAs?$AA?$AA@ 005e2d90     LIBCMTD:putwch.obj
 0003:00027da8       ??_C@_1GA@NKLOJFIJ@?$AAf?$AA?3?$AA?2?$AAd?$AAd?$AA?2?$AAv?$AAc?$AAt?$AAo?$AAo?$AAl?$AAs?$AA?2?$AAc?$AAr?$AAt?$AA_?$AAb?$AAl?$AAd?$AA?2?$AAs?$AAe?$AAl?$AAf?$AA_?$AAx?$AA8?$AA6?$AA?2?$AAc@ 005e2da8     LIBCMTD:putwch.obj
 0003:00027e1c       ??_C@_0CP@HMMFJLEM@f?3?2dd?2vctools?2crt_bld?2self_x86?2c@ 005e2e1c     LIBCMTD:drive.obj
 0003:00027e54       ??_C@_1BC@JCHHEAGH@?$AA_?$AAc?$AAh?$AAd?$AAr?$AAi?$AAv?$AAe?$AA?$AA@ 005e2e54     LIBCMTD:drive.obj
 0003:00027e70       ??_C@_1FO@IEKJKJGK@?$AAf?$AA?3?$AA?2?$AAd?$AAd?$AA?2?$AAv?$AAc?$AAt?$AAo?$AAo?$AAl?$AAs?$AA?2?$AAc?$AAr?$AAt?$AA_?$AAb?$AAl?$AAd?$AA?2?$AAs?$AAe?$AAl?$AAf?$AA_?$AAx?$AA8?$AA6?$AA?2?$AAc@ 005e2e70     LIBCMTD:drive.obj
 0003:00027ee0       ??_C@_1DE@JLKLCHND@?$AA?$CI?$AA?$CC?$AAI?$AAn?$AAv?$AAa?$AAl?$AAi?$AAd?$AA?5?$AAD?$AAr?$AAi?$AAv?$AAe?$AA?5?$AAI?$AAn?$AAd?$AAe?$AAx?$AA?$CC?$AA?0?$AA0?$AA?$CJ?$AA?$AA@ 005e2ee0     LIBCMTD:drive.obj
 0003:00027f20       ??_C@_0M@EKFFODEC@MSPDB80?4DLL?$AA@ 005e2f20     LIBCMTD:_pdblkup_.obj
 0003:00027f30       ??_C@_01KDCPPGHE@r?$AA@    005e2f30     LIBCMTD:_pdblkup_.obj
 0003:00027f34       ??_C@_0BB@KCIACLNC@PDBOpenValidate5?$AA@ 005e2f34     LIBCMTD:_pdblkup_.obj
 0003:00027f48       ??_C@_0BF@BMIHBHCA@EnvironmentDirectory?$AA@ 005e2f48     LIBCMTD:_pdblkup_.obj
 0003:00027f64       ??_C@_0CN@JNNIHDGH@SOFTWARE?2Microsoft?2VisualStudio?2@ 005e2f64     LIBCMTD:_pdblkup_.obj
 0003:00027f9c       ??_C@_0M@HLOHPNFA@RegCloseKey?$AA@ 005e2f9c     LIBCMTD:_pdblkup_.obj
 0003:00027fac       ??_C@_0BB@HHEIPGME@RegQueryValueExA?$AA@ 005e2fac     LIBCMTD:_pdblkup_.obj
 0003:00027fc0       ??_C@_0O@DCOGKJGG@RegOpenKeyExA?$AA@ 005e2fc0     LIBCMTD:_pdblkup_.obj
 0003:00027fd0       ??_C@_1BO@IHLJHOPI@?$AA_?$AA_?$AAs?$AAt?$AAr?$AAg?$AAt?$AAo?$AAl?$AAd?$AA1?$AA2?$AA_?$AAl?$AA?$AA@ 005e2fd0     LIBCMTD:_strgtold_.obj
 0003:00027ff8       ??_C@_1IG@IGKPPFIM@?$AAf?$AA?3?$AA?2?$AAd?$AAd?$AA?2?$AAv?$AAc?$AAt?$AAo?$AAo?$AAl?$AAs?$AA?2?$AAc?$AAr?$AAt?$AA_?$AAb?$AAl?$AAd?$AA?2?$AAs?$AAe?$AAl?$AAf?$AA_?$AAx?$AA8?$AA6?$AA?2?$AAc@ 005e2ff8     LIBCMTD:_strgtold_.obj
 0003:00028098       ??_C@_1CA@MBDBOHIB@?$AA_?$AAL?$AAo?$AAc?$AAa?$AAl?$AAe?$AA?5?$AA?$CB?$AA?$DN?$AA?5?$AAN?$AAU?$AAL?$AAL?$AA?$AA@ 005e3098     LIBCMTD:_strgtold_.obj
 0003:000280c0       ??_C@_1O@HJNPHHHB@?$AAf?$AAp?$AAu?$AAt?$AAw?$AAc?$AA?$AA@ 005e30c0     LIBCMTD:fputwc.obj
 0003:000280d0       ??_C@_1GA@BJIGKGEA@?$AAf?$AA?3?$AA?2?$AAd?$AAd?$AA?2?$AAv?$AAc?$AAt?$AAo?$AAo?$AAl?$AAs?$AA?2?$AAc?$AAr?$AAt?$AA_?$AAb?$AAl?$AAd?$AA?2?$AAs?$AAe?$AAl?$AAf?$AA_?$AAx?$AA8?$AA6?$AA?2?$AAc@ 005e30d0     LIBCMTD:fputwc.obj
 0003:00028144       ?commonFlags@?1??_control87@@9@9 005e3144     LIBCMTD:_ieee87_.obj
 0003:00028148       ??_C@_1GO@OKJGOMCB@?$AA_?$AAc?$AAo?$AAn?$AAt?$AAr?$AAo?$AAl?$AAf?$AAp?$AA_?$AAs?$AA?$CI?$AA?$CI?$AA?$CI?$AAv?$AAo?$AAi?$AAd?$AA?5?$AA?$CK?$AA?$CJ?$AA0?$AA?$CJ?$AA?0?$AA?5?$AAn?$AAe?$AAw?$AAc?$AAt?$AAr@ 005e3148     LIBCMTD:_ieee87_.obj
 0003:000281cc       ??_C@_1BO@OFDNCLL@?$AA_?$AAs?$AAe?$AAt?$AA_?$AAc?$AAo?$AAn?$AAt?$AAr?$AAo?$AAl?$AAf?$AAp?$AA?$AA@ 005e31cc     LIBCMTD:_ieee87_.obj
 0003:000281f0       ??_C@_1HO@BFDKGHOI@?$AAf?$AA?3?$AA?2?$AAd?$AAd?$AA?2?$AAv?$AAc?$AAt?$AAo?$AAo?$AAl?$AAs?$AA?2?$AAc?$AAr?$AAt?$AA_?$AAb?$AAl?$AAd?$AA?2?$AAs?$AAe?$AAl?$AAf?$AA_?$AAx?$AA8?$AA6?$AA?2?$AAc@ 005e31f0     LIBCMTD:_ieee87_.obj
 0003:00028288       ??_C@_06IMKFLFPG@1?$CDQNAN?$AA@ 005e3288     LIBCMTD:_x10fout_.obj
 0003:00028290       ??_C@_1EG@MCFPJJEM@?$AAs?$AAt?$AAr?$AAc?$AAp?$AAy?$AA_?$AAs?$AA?$CI?$AAf?$AAo?$AAs?$AA?9?$AA?$DO?$AAm?$AAa?$AAn?$AA?0?$AA?5?$AA2?$AA1?$AA?$CL?$AA1?$AA?0?$AA?5?$AA?$CC?$AA1?$AA?$CD?$AAQ?$AAN?$AAA?$AAN@ 005e3290     LIBCMTD:_x10fout_.obj
 0003:000282e4       ??_C@_05DNEBIAHO@1?$CDINF?$AA@ 005e32e4     LIBCMTD:_x10fout_.obj
 0003:000282f0       ??_C@_1EE@ICBBBPAI@?$AAs?$AAt?$AAr?$AAc?$AAp?$AAy?$AA_?$AAs?$AA?$CI?$AAf?$AAo?$AAs?$AA?9?$AA?$DO?$AAm?$AAa?$AAn?$AA?0?$AA?5?$AA2?$AA1?$AA?$CL?$AA1?$AA?0?$AA?5?$AA?$CC?$AA1?$AA?$CD?$AAI?$AAN?$AAF?$AA?$CC@ 005e32f0     LIBCMTD:_x10fout_.obj
 0003:00028344       ??_C@_05PHHOCPM@1?$CDIND?$AA@ 005e3344     LIBCMTD:_x10fout_.obj
 0003:00028350       ??_C@_1EE@MADEBIHF@?$AAs?$AAt?$AAr?$AAc?$AAp?$AAy?$AA_?$AAs?$AA?$CI?$AAf?$AAo?$AAs?$AA?9?$AA?$DO?$AAm?$AAa?$AAn?$AA?0?$AA?5?$AA2?$AA1?$AA?$CL?$AA1?$AA?0?$AA?5?$AA?$CC?$AA1?$AA?$CD?$AAI?$AAN?$AAD?$AA?$CC@ 005e3350     LIBCMTD:_x10fout_.obj
 0003:000283a4       ??_C@_06PGGFOGJG@1?$CDSNAN?$AA@ 005e33a4     LIBCMTD:_x10fout_.obj
 0003:000283b0       ??_C@_1EG@CDDBFNOB@?$AAs?$AAt?$AAr?$AAc?$AAp?$AAy?$AA_?$AAs?$AA?$CI?$AAf?$AAo?$AAs?$AA?9?$AA?$DO?$AAm?$AAa?$AAn?$AA?0?$AA?5?$AA2?$AA1?$AA?$CL?$AA1?$AA?0?$AA?5?$AA?$CC?$AA1?$AA?$CD?$AAS?$AAN?$AAA?$AAN@ 005e33b0     LIBCMTD:_x10fout_.obj
 0003:00028404       ??_C@_1BI@ELMAAFLN@?$AA$?$AAI?$AA1?$AA0?$AA_?$AAO?$AAU?$AAT?$AAP?$AAU?$AAT?$AA?$AA@ 005e3404     LIBCMTD:_x10fout_.obj
 0003:00028420       ??_C@_1HG@HFJMHCFK@?$AAf?$AA?3?$AA?2?$AAd?$AAd?$AA?2?$AAv?$AAc?$AAt?$AAo?$AAo?$AAl?$AAs?$AA?2?$AAc?$AAr?$AAt?$AA_?$AAb?$AAl?$AAd?$AA?2?$AAs?$AAe?$AAl?$AAf?$AA_?$AAx?$AA8?$AA6?$AA?2?$AAc@ 005e3420     LIBCMTD:_x10fout_.obj
 0003:000284b0       ??_C@_1CC@HBLPFNKH@?$AA?$CI?$AAc?$AAn?$AAt?$AA?5?$AA?$DM?$AA?$DN?$AA?5?$AAI?$AAN?$AAT?$AA_?$AAM?$AAA?$AAX?$AA?$CJ?$AA?$AA@ 005e34b0     LIBCMTD:read.obj
 0003:000284d8       ??_C@_1M@NHJOLLDM@?$AA_?$AAr?$AAe?$AAa?$AAd?$AA?$AA@ 005e34d8     LIBCMTD:read.obj
 0003:000284e8       ??_C@_1FM@NGICBHLO@?$AAf?$AA?3?$AA?2?$AAd?$AAd?$AA?2?$AAv?$AAc?$AAt?$AAo?$AAo?$AAl?$AAs?$AA?2?$AAc?$AAr?$AAt?$AA_?$AAb?$AAl?$AAd?$AA?2?$AAs?$AAe?$AAl?$AAf?$AA_?$AAx?$AA8?$AA6?$AA?2?$AAc@ 005e34e8     LIBCMTD:read.obj
 0003:00028558       ??_C@_0CO@CEGKNHEH@f?3?2dd?2vctools?2crt_bld?2self_x86?2c@ 005e3558     LIBCMTD:read.obj
 0003:00028590       ??_C@_1CG@OHLJHGGK@?$AA?$CI?$AAi?$AAn?$AAp?$AAu?$AAt?$AAb?$AAu?$AAf?$AA?5?$AA?$CB?$AA?$DN?$AA?5?$AAN?$AAU?$AAL?$AAL?$AA?$CJ?$AA?$AA@ 005e3590     LIBCMTD:read.obj
 0003:000285c0       ??_C@_1BK@JJBHNDKJ@?$AA_?$AAr?$AAe?$AAa?$AAd?$AA_?$AAn?$AAo?$AAl?$AAo?$AAc?$AAk?$AA?$AA@ 005e35c0     LIBCMTD:read.obj
 0003:000285e0       ??_C@_1BI@GALBKMKE@?$AA?$CI?$AAs?$AAi?$AAz?$AAe?$AA?5?$AA?$DO?$AA?$DN?$AA?5?$AA0?$AA?$CJ?$AA?$AA@ 005e35e0     LIBCMTD:chsize.obj
 0003:000285fc       ??_C@_1BE@MAFDNGED@?$AA_?$AAc?$AAh?$AAs?$AAi?$AAz?$AAe?$AA_?$AAs?$AA?$AA@ 005e35fc     LIBCMTD:chsize.obj
 0003:00028618       ??_C@_1GA@DBKMEDOF@?$AAf?$AA?3?$AA?2?$AAd?$AAd?$AA?2?$AAv?$AAc?$AAt?$AAo?$AAo?$AAl?$AAs?$AA?2?$AAc?$AAr?$AAt?$AA_?$AAb?$AAl?$AAd?$AA?2?$AAs?$AAe?$AAl?$AAf?$AA_?$AAx?$AA8?$AA6?$AA?2?$AAc@ 005e3618     LIBCMTD:chsize.obj
 0003:0002868c       ??_C@_1O@EDOIKGHF@?$AA_?$AAl?$AAs?$AAe?$AAe?$AAk?$AA?$AA@ 005e368c     LIBCMTD:lseek.obj
 0003:000286a0       ??_C@_1FO@LGKMLCAL@?$AAf?$AA?3?$AA?2?$AAd?$AAd?$AA?2?$AAv?$AAc?$AAt?$AAo?$AAo?$AAl?$AAs?$AA?2?$AAc?$AAr?$AAt?$AA_?$AAb?$AAl?$AAd?$AA?2?$AAs?$AAe?$AAl?$AAf?$AA_?$AAx?$AA8?$AA6?$AA?2?$AAc@ 005e36a0     LIBCMTD:lseek.obj
 0003:00028710       ??_C@_1DM@LMLOLGJ@?$AA?$CI?$AA?$CC?$AAI?$AAn?$AAv?$AAa?$AAl?$AAi?$AAd?$AA?5?$AAf?$AAi?$AAl?$AAe?$AA?5?$AAd?$AAe?$AAs?$AAc?$AAr?$AAi?$AAp?$AAt?$AAo?$AAr?$AA?$CC?$AA?0?$AA0?$AA?$CJ?$AA?$AA@ 005e3710     LIBCMTD:lseek.obj
 0003:00028758       ??_C@_1BC@JBGGJDCM@?$AA_?$AAs?$AAe?$AAt?$AAm?$AAo?$AAd?$AAe?$AA?$AA@ 005e3758     LIBCMTD:setmode.obj
 0003:00028770       ??_C@_1GC@KODPFLLJ@?$AAf?$AA?3?$AA?2?$AAd?$AAd?$AA?2?$AAv?$AAc?$AAt?$AAo?$AAo?$AAl?$AAs?$AA?2?$AAc?$AAr?$AAt?$AA_?$AAb?$AAl?$AAd?$AA?2?$AAs?$AAe?$AAl?$AAf?$AA_?$AAx?$AA8?$AA6?$AA?2?$AAc@ 005e3770     LIBCMTD:setmode.obj
 0003:000287e8       ??_C@_1OA@HGPJIFPM@?$AA?$CI?$AA?$CI?$AAm?$AAo?$AAd?$AAe?$AA?5?$AA?$DN?$AA?$DN?$AA?5?$AA_?$AAO?$AA_?$AAT?$AAE?$AAX?$AAT?$AA?$CJ?$AA?5?$AA?$HM?$AA?$HM?$AA?5?$AA?$CI?$AAm?$AAo?$AAd?$AAe?$AA?5?$AA?$DN?$AA?$DN?$AA?5?$AA_@ 005e37e8     LIBCMTD:setmode.obj
 0003:000288f4       ??_C@_1BG@IEEHLOCL@?$AA_?$AAs?$AAe?$AAt?$AA_?$AAf?$AAm?$AAo?$AAd?$AAe?$AA?$AA@ 005e38f4     LIBCMTD:setmode.obj
 0003:00028910       ??_C@_1IC@NDCJMLB@?$AA?$CI?$AA?$CI?$AAm?$AAo?$AAd?$AAe?$AA?5?$AA?$DN?$AA?$DN?$AA?5?$AA_?$AAO?$AA_?$AAT?$AAE?$AAX?$AAT?$AA?$CJ?$AA?5?$AA?$HM?$AA?$HM?$AA?5?$AA?$CI?$AAm?$AAo?$AAd?$AAe?$AA?5?$AA?$DN?$AA?$DN?$AA?5?$AA_@ 005e3910     LIBCMTD:setmode.obj
 0003:000289ac       ??_C@_1BG@CKGMPOFH@?$AA_?$AAg?$AAe?$AAt?$AA_?$AAf?$AAm?$AAo?$AAd?$AAe?$AA?$AA@ 005e39ac     LIBCMTD:setmode.obj
 0003:000289c8       ??_C@_1CA@GPIGPPFN@?$AA?$CI?$AAp?$AAM?$AAo?$AAd?$AAe?$AA?5?$AA?$CB?$AA?$DN?$AA?5?$AAN?$AAU?$AAL?$AAL?$AA?$CJ?$AA?$AA@ 005e39c8     LIBCMTD:setmode.obj
 0003:000289f0       ??_C@_1BA@PCFLFGNC@?$AAw?$AAc?$AAs?$AAt?$AAo?$AAx?$AAl?$AA?$AA@ 005e39f0     LIBCMTD:wcstol.obj
 0003:00028a08       ??_C@_1GA@CADFOND@?$AAf?$AA?3?$AA?2?$AAd?$AAd?$AA?2?$AAv?$AAc?$AAt?$AAo?$AAo?$AAl?$AAs?$AA?2?$AAc?$AAr?$AAt?$AA_?$AAb?$AAl?$AAd?$AA?2?$AAs?$AAe?$AAl?$AAf?$AA_?$AAx?$AA8?$AA6?$AA?2?$AAc@ 005e3a08     LIBCMTD:wcstol.obj
 0003:00028a7c       ??_C@_06GDENEHCP@CONIN$?$AA@ 005e3a7c     LIBCMTD:initcon.obj
 0003:00028a84       ??_C@_07GPDNMNG@CONOUT$?$AA@ 005e3a84     LIBCMTD:initcon.obj
 0003:00029234       ??_R4AccelKeys@@6B@        005e4234     AccelKeys.obj
 0003:0002924c       ??_R3AccelKeys@@8          005e424c     AccelKeys.obj
 0003:00029260       ??_R2AccelKeys@@8          005e4260     AccelKeys.obj
 0003:00029268       ??_R1A@?0A@EA@AccelKeys@@8 005e4268     AccelKeys.obj
 0003:0002928c       ??_R4AuthDialog@@6B@       005e428c     AuthDialog.obj
 0003:000292a4       ??_R3AuthDialog@@8         005e42a4     AuthDialog.obj
 0003:000292b8       ??_R2AuthDialog@@8         005e42b8     AuthDialog.obj
 0003:000292c0       ??_R1A@?0A@EA@AuthDialog@@8 005e42c0     AuthDialog.obj
 0003:000292e4       ??_R4bad_alloc@std@@6B@    005e42e4     AuthDialog.obj
 0003:000292fc       ??_R3bad_alloc@std@@8      005e42fc     AuthDialog.obj
 0003:00029310       ??_R2bad_alloc@std@@8      005e4310     AuthDialog.obj
 0003:0002931c       ??_R1A@?0A@EA@bad_alloc@std@@8 005e431c     AuthDialog.obj
 0003:00029340       ??_R1A@?0A@EA@exception@std@@8 005e4340     AuthDialog.obj
 0003:00029364       ??_R3exception@std@@8      005e4364     AuthDialog.obj
 0003:00029378       ??_R2exception@std@@8      005e4378     AuthDialog.obj
 0003:00029380       ??_R4?$basic_ios@DU?$char_traits@D@std@@@std@@6B@ 005e4380     AuthDialog.obj
 0003:00029398       ??_R3?$basic_ios@DU?$char_traits@D@std@@@std@@8 005e4398     AuthDialog.obj
 0003:000293ac       ??_R2?$basic_ios@DU?$char_traits@D@std@@@std@@8 005e43ac     AuthDialog.obj
 0003:000293bc       ??_R1A@?0A@EA@?$basic_ios@DU?$char_traits@D@std@@@std@@8 005e43bc     AuthDialog.obj
 0003:000293e0       ??_R1A@?0A@EA@ios_base@std@@8 005e43e0     AuthDialog.obj
 0003:00029404       ??_R3ios_base@std@@8       005e4404     AuthDialog.obj
 0003:00029418       ??_R2ios_base@std@@8       005e4418     AuthDialog.obj
 0003:00029424       ??_R13?0A@EA@?$_Iosb@H@std@@8 005e4424     AuthDialog.obj
 0003:00029448       ??_R3?$_Iosb@H@std@@8      005e4448     AuthDialog.obj
 0003:0002945c       ??_R2?$_Iosb@H@std@@8      005e445c     AuthDialog.obj
 0003:00029464       ??_R1A@?0A@EA@?$_Iosb@H@std@@8 005e4464     AuthDialog.obj
 0003:00029488       ??_R4ios_base@std@@6B@     005e4488     AuthDialog.obj
 0003:000294a0       ??_R4?$basic_stringstream@DU?$char_traits@D@std@@V?$allocator@D@2@@std@@6B@ 005e44a0     AuthDialog.obj
 0003:000294b8       ??_R3?$basic_stringstream@DU?$char_traits@D@std@@V?$allocator@D@2@@std@@8 005e44b8     AuthDialog.obj
 0003:000294cc       ??_R2?$basic_stringstream@DU?$char_traits@D@std@@V?$allocator@D@2@@std@@8 005e44cc     AuthDialog.obj
 0003:00029500       ??_R1A@?0A@EA@?$basic_stringstream@DU?$char_traits@D@std@@V?$allocator@D@2@@std@@8 005e4500     AuthDialog.obj
 0003:00029524       ??_R1A@?0A@EA@?$basic_iostream@DU?$char_traits@D@std@@@std@@8 005e4524     AuthDialog.obj
 0003:00029548       ??_R3?$basic_iostream@DU?$char_traits@D@std@@@std@@8 005e4548     AuthDialog.obj
 0003:0002955c       ??_R2?$basic_iostream@DU?$char_traits@D@std@@@std@@8 005e455c     AuthDialog.obj
 0003:00029588       ??_R1A@?0A@EA@?$basic_istream@DU?$char_traits@D@std@@@std@@8 005e4588     AuthDialog.obj
 0003:000295ac       ??_R3?$basic_istream@DU?$char_traits@D@std@@@std@@8 005e45ac     AuthDialog.obj
 0003:000295c0       ??_R2?$basic_istream@DU?$char_traits@D@std@@@std@@8 005e45c0     AuthDialog.obj
 0003:000295d4       ??_R1A@A@3FA@?$basic_ios@DU?$char_traits@D@std@@@std@@8 005e45d4     AuthDialog.obj
 0003:000295f8       ??_R1A@A@3EA@ios_base@std@@8 005e45f8     AuthDialog.obj
 0003:0002961c       ??_R13A@3EA@?$_Iosb@H@std@@8 005e461c     AuthDialog.obj
 0003:00029640       ??_R17?0A@EA@?$basic_ostream@DU?$char_traits@D@std@@@std@@8 005e4640     AuthDialog.obj
 0003:00029664       ??_R3?$basic_ostream@DU?$char_traits@D@std@@@std@@8 005e4664     AuthDialog.obj
 0003:00029678       ??_R2?$basic_ostream@DU?$char_traits@D@std@@@std@@8 005e4678     AuthDialog.obj
 0003:0002968c       ??_R1A@?0A@EA@?$basic_ostream@DU?$char_traits@D@std@@@std@@8 005e468c     AuthDialog.obj
 0003:000296b0       ??_R4?$basic_iostream@DU?$char_traits@D@std@@@std@@6B@ 005e46b0     AuthDialog.obj
 0003:000296c8       ??_R4?$basic_ostream@DU?$char_traits@D@std@@@std@@6B@ 005e46c8     AuthDialog.obj
 0003:000296e0       ??_R4?$basic_istream@DU?$char_traits@D@std@@@std@@6B@ 005e46e0     AuthDialog.obj
 0003:000296f8       ??_R4?$basic_stringbuf@DU?$char_traits@D@std@@V?$allocator@D@2@@std@@6B@ 005e46f8     AuthDialog.obj
 0003:00029710       ??_R3?$basic_stringbuf@DU?$char_traits@D@std@@V?$allocator@D@2@@std@@8 005e4710     AuthDialog.obj
 0003:00029724       ??_R2?$basic_stringbuf@DU?$char_traits@D@std@@V?$allocator@D@2@@std@@8 005e4724     AuthDialog.obj
 0003:00029730       ??_R1A@?0A@EA@?$basic_stringbuf@DU?$char_traits@D@std@@V?$allocator@D@2@@std@@8 005e4730     AuthDialog.obj
 0003:00029754       ??_R1A@?0A@EA@?$basic_streambuf@DU?$char_traits@D@std@@@std@@8 005e4754     AuthDialog.obj
 0003:00029778       ??_R3?$basic_streambuf@DU?$char_traits@D@std@@@std@@8 005e4778     AuthDialog.obj
 0003:0002978c       ??_R2?$basic_streambuf@DU?$char_traits@D@std@@@std@@8 005e478c     AuthDialog.obj
 0003:00029794       ??_R4?$basic_streambuf@DU?$char_traits@D@std@@@std@@6B@ 005e4794     AuthDialog.obj
 0003:000297ac       ??_R4runtime_error@std@@6B@ 005e47ac     AuthDialog.obj
 0003:000297c4       ??_R3runtime_error@std@@8  005e47c4     AuthDialog.obj
 0003:000297d8       ??_R2runtime_error@std@@8  005e47d8     AuthDialog.obj
 0003:000297e4       ??_R1A@?0A@EA@runtime_error@std@@8 005e47e4     AuthDialog.obj
 0003:00029808       ??_R4failure@ios_base@std@@6B@ 005e4808     AuthDialog.obj
 0003:00029820       ??_R3failure@ios_base@std@@8 005e4820     AuthDialog.obj
 0003:00029834       ??_R2failure@ios_base@std@@8 005e4834     AuthDialog.obj
 0003:00029844       ??_R1A@?0A@EA@failure@ios_base@std@@8 005e4844     AuthDialog.obj
 0003:00029868       ??_R4?$ctype@D@std@@6B@    005e4868     AuthDialog.obj
 0003:00029880       ??_R3?$ctype@D@std@@8      005e4880     AuthDialog.obj
 0003:00029894       ??_R2?$ctype@D@std@@8      005e4894     AuthDialog.obj
 0003:000298a4       ??_R1A@?0A@EA@?$ctype@D@std@@8 005e48a4     AuthDialog.obj
 0003:000298c8       ??_R1A@?0A@EA@ctype_base@std@@8 005e48c8     AuthDialog.obj
 0003:000298ec       ??_R3ctype_base@std@@8     005e48ec     AuthDialog.obj
 0003:00029900       ??_R2ctype_base@std@@8     005e4900     AuthDialog.obj
 0003:0002990c       ??_R1A@?0A@EA@facet@locale@std@@8 005e490c     AuthDialog.obj
 0003:00029930       ??_R3facet@locale@std@@8   005e4930     AuthDialog.obj
 0003:00029944       ??_R2facet@locale@std@@8   005e4944     AuthDialog.obj
 0003:0002994c       ??_R4ctype_base@std@@6B@   005e494c     AuthDialog.obj
 0003:00029964       ??_R4facet@locale@std@@6B@ 005e4964     AuthDialog.obj
 0003:0002997c       ??_R4?$num_put@DV?$ostreambuf_iterator@DU?$char_traits@D@std@@@std@@@std@@6B@ 005e497c     AuthDialog.obj
 0003:00029994       ??_R3?$num_put@DV?$ostreambuf_iterator@DU?$char_traits@D@std@@@std@@@std@@8 005e4994     AuthDialog.obj
 0003:000299a8       ??_R2?$num_put@DV?$ostreambuf_iterator@DU?$char_traits@D@std@@@std@@@std@@8 005e49a8     AuthDialog.obj
 0003:000299b4       ??_R1A@?0A@EA@?$num_put@DV?$ostreambuf_iterator@DU?$char_traits@D@std@@@std@@@std@@8 005e49b4     AuthDialog.obj
 0003:000299d8       ??_R4?$numpunct@D@std@@6B@ 005e49d8     AuthDialog.obj
 0003:000299f0       ??_R3?$numpunct@D@std@@8   005e49f0     AuthDialog.obj
 0003:00029a04       ??_R2?$numpunct@D@std@@8   005e4a04     AuthDialog.obj
 0003:00029a10       ??_R1A@?0A@EA@?$numpunct@D@std@@8 005e4a10     AuthDialog.obj
 0003:00029a34       ??_R4?$num_get@DV?$istreambuf_iterator@DU?$char_traits@D@std@@@std@@@std@@6B@ 005e4a34     CACIC_Utils.obj
 0003:00029a4c       ??_R3?$num_get@DV?$istreambuf_iterator@DU?$char_traits@D@std@@@std@@@std@@8 005e4a4c     CACIC_Utils.obj
 0003:00029a60       ??_R2?$num_get@DV?$istreambuf_iterator@DU?$char_traits@D@std@@@std@@@std@@8 005e4a60     CACIC_Utils.obj
 0003:00029a6c       ??_R1A@?0A@EA@?$num_get@DV?$istreambuf_iterator@DU?$char_traits@D@std@@@std@@@std@@8 005e4a6c     CACIC_Utils.obj
 0003:00029a90       ??_R4ClientConnection@@6B@ 005e4a90     ClientConnection.obj
 0003:00029aa8       ??_R3ClientConnection@@8   005e4aa8     ClientConnection.obj
 0003:00029abc       ??_R2ClientConnection@@8   005e4abc     ClientConnection.obj
 0003:00029ac8       ??_R1A@?0A@EA@ClientConnection@@8 005e4ac8     ClientConnection.obj
 0003:00029aec       ??_R1A@?0A@EA@omni_thread@@8 005e4aec     ClientConnection.obj
 0003:00029b10       ??_R3omni_thread@@8        005e4b10     ClientConnection.obj
 0003:00029b24       ??_R2omni_thread@@8        005e4b24     ClientConnection.obj
 0003:00029b2c       ??_R4WarningException@@6B@ 005e4b2c     ClientConnection.obj
 0003:00029b44       ??_R3WarningException@@8   005e4b44     ClientConnection.obj
 0003:00029b58       ??_R2WarningException@@8   005e4b58     ClientConnection.obj
 0003:00029b64       ??_R1A@?0A@EA@WarningException@@8 005e4b64     ClientConnection.obj
 0003:00029b88       ??_R1A@?0A@EA@Exception@@8 005e4b88     ClientConnection.obj
 0003:00029bac       ??_R3Exception@@8          005e4bac     ClientConnection.obj
 0003:00029bc0       ??_R2Exception@@8          005e4bc0     ClientConnection.obj
 0003:00029bc8       ??_R4Exception@@6B@        005e4bc8     ClientConnection.obj
 0003:00029be0       ??_R4QuietException@@6B@   005e4be0     ClientConnection.obj
 0003:00029bf8       ??_R3QuietException@@8     005e4bf8     ClientConnection.obj
 0003:00029c0c       ??_R2QuietException@@8     005e4c0c     ClientConnection.obj
 0003:00029c18       ??_R1A@?0A@EA@QuietException@@8 005e4c18     ClientConnection.obj
 0003:00029c3c       ??_R4ErrorException@@6B@   005e4c3c     ClientConnection.obj
 0003:00029c54       ??_R3ErrorException@@8     005e4c54     ClientConnection.obj
 0003:00029c68       ??_R2ErrorException@@8     005e4c68     ClientConnection.obj
 0003:00029c74       ??_R1A@?0A@EA@ErrorException@@8 005e4c74     ClientConnection.obj
 0003:00029c98       ??_R4Daemon@@6B@           005e4c98     Daemon.obj
 0003:00029cb0       ??_R3Daemon@@8             005e4cb0     Daemon.obj
 0003:00029cc4       ??_R2Daemon@@8             005e4cc4     Daemon.obj
 0003:00029ccc       ??_R1A@?0A@EA@Daemon@@8    005e4ccc     Daemon.obj
 0003:00029cf0       ??_R4Except@@6B@           005e4cf0     dh.obj
 0003:00029d08       ??_R3Except@@8             005e4d08     dh.obj
 0003:00029d1c       ??_R2Except@@8             005e4d1c     dh.obj
 0003:00029d24       ??_R1A@?0A@EA@Except@@8    005e4d24     dh.obj
 0003:00029d48       ??_R4CDSMPlugin@@6B@       005e4d48     DSMPlugin.obj
 0003:00029d60       ??_R3CDSMPlugin@@8         005e4d60     DSMPlugin.obj
 0003:00029d74       ??_R2CDSMPlugin@@8         005e4d74     DSMPlugin.obj
 0003:00029d7c       ??_R1A@?0A@EA@CDSMPlugin@@8 005e4d7c     DSMPlugin.obj
 0003:00029da0       ??_R4FileTransfer@@6B@     005e4da0     FileTransfer.obj
 0003:00029db8       ??_R3FileTransfer@@8       005e4db8     FileTransfer.obj
 0003:00029dcc       ??_R2FileTransfer@@8       005e4dcc     FileTransfer.obj
 0003:00029dd4       ??_R1A@?0A@EA@FileTransfer@@8 005e4dd4     FileTransfer.obj
 0003:00029df8       ??_R4length_error@std@@6B@ 005e4df8     FileTransfer.obj
 0003:00029e10       ??_R3length_error@std@@8   005e4e10     FileTransfer.obj
 0003:00029e24       ??_R2length_error@std@@8   005e4e24     FileTransfer.obj
 0003:00029e34       ??_R1A@?0A@EA@length_error@std@@8 005e4e34     FileTransfer.obj
 0003:00029e58       ??_R1A@?0A@EA@logic_error@std@@8 005e4e58     FileTransfer.obj
 0003:00029e7c       ??_R3logic_error@std@@8    005e4e7c     FileTransfer.obj
 0003:00029e90       ??_R2logic_error@std@@8    005e4e90     FileTransfer.obj
 0003:00029e9c       ??_R4logic_error@std@@6B@  005e4e9c     FileTransfer.obj
 0003:00029eb4       ??_R4Flasher@@6B@          005e4eb4     Flasher.obj
 0003:00029ecc       ??_R3Flasher@@8            005e4ecc     Flasher.obj
 0003:00029ee0       ??_R2Flasher@@8            005e4ee0     Flasher.obj
 0003:00029ee8       ??_R1A@?0A@EA@Flasher@@8   005e4ee8     Flasher.obj
 0003:00029f0c       ??_R4CTitleBar@@6B@        005e4f0c     FullScreenTitleBar.obj
 0003:00029f24       ??_R3CTitleBar@@8          005e4f24     FullScreenTitleBar.obj
 0003:00029f38       ??_R2CTitleBar@@8          005e4f38     FullScreenTitleBar.obj
 0003:00029f40       ??_R1A@?0A@EA@CTitleBar@@8 005e4f40     FullScreenTitleBar.obj
 0003:00029f64       ??_R4Log@@6B@              005e4f64     Log.obj
 0003:00029f7c       ??_R3Log@@8                005e4f7c     Log.obj
 0003:00029f90       ??_R2Log@@8                005e4f90     Log.obj
 0003:00029f98       ??_R1A@?0A@EA@Log@@8       005e4f98     Log.obj
 0003:00029fbc       ??_R4MRU@@6B@              005e4fbc     MRU.obj
 0003:00029fd4       ??_R3MRU@@8                005e4fd4     MRU.obj
 0003:00029fe8       ??_R2MRU@@8                005e4fe8     MRU.obj
 0003:00029ff0       ??_R1A@?0A@EA@MRU@@8       005e4ff0     MRU.obj
 0003:0002a014       ??_R4CRijndael@@6B@        005e5014     Rijndael.obj
 0003:0002a02c       ??_R3CRijndael@@8          005e502c     Rijndael.obj
 0003:0002a040       ??_R2CRijndael@@8          005e5040     Rijndael.obj
 0003:0002a048       ??_R1A@?0A@EA@CRijndael@@8 005e5048     Rijndael.obj
 0003:0002a06c       ??_R4SessionDialog@@6B@    005e506c     SessionDialog.obj
 0003:0002a084       ??_R3SessionDialog@@8      005e5084     SessionDialog.obj
 0003:0002a098       ??_R2SessionDialog@@8      005e5098     SessionDialog.obj
 0003:0002a0a0       ??_R1A@?0A@EA@SessionDialog@@8 005e50a0     SessionDialog.obj
 0003:0002a0c4       ??_R4TextChat@@6B@         005e50c4     TextChat.obj
 0003:0002a0dc       ??_R3TextChat@@8           005e50dc     TextChat.obj
 0003:0002a0f0       ??_R2TextChat@@8           005e50f0     TextChat.obj
 0003:0002a0f8       ??_R1A@?0A@EA@TextChat@@8  005e50f8     TextChat.obj
 0003:0002a11c       ??_R4VNCOptions@@6B@       005e511c     VNCOptions.obj
 0003:0002a134       ??_R3VNCOptions@@8         005e5134     VNCOptions.obj
 0003:0002a148       ??_R2VNCOptions@@8         005e5148     VNCOptions.obj
 0003:0002a150       ??_R1A@?0A@EA@VNCOptions@@8 005e5150     VNCOptions.obj
 0003:0002a174       ??_R4VNCviewerApp@@6B@     005e5174     VNCviewerApp.obj
 0003:0002a18c       ??_R3VNCviewerApp@@8       005e518c     VNCviewerApp.obj
 0003:0002a1a0       ??_R2VNCviewerApp@@8       005e51a0     VNCviewerApp.obj
 0003:0002a1a8       ??_R1A@?0A@EA@VNCviewerApp@@8 005e51a8     VNCviewerApp.obj
 0003:0002a1cc       ??_R4VNCviewerApp32@@6B@   005e51cc     VNCviewerApp32.obj
 0003:0002a1e4       ??_R3VNCviewerApp32@@8     005e51e4     VNCviewerApp32.obj
 0003:0002a1f8       ??_R2VNCviewerApp32@@8     005e51f8     VNCviewerApp32.obj
 0003:0002a204       ??_R1A@?0A@EA@VNCviewerApp32@@8 005e5204     VNCviewerApp32.obj
 0003:0002a228       ??_R4CZipUnZip32@@6B@      005e5228     ZipUnzip32.obj
 0003:0002a240       ??_R3CZipUnZip32@@8        005e5240     ZipUnzip32.obj
 0003:0002a254       ??_R2CZipUnZip32@@8        005e5254     ZipUnzip32.obj
 0003:0002a25c       ??_R1A@?0A@EA@CZipUnZip32@@8 005e525c     ZipUnzip32.obj
 0003:0002a280       ??_R4_internal_omni_thread_dummy@@6B@ 005e5280     omnithread:nt.obj
 0003:0002a294       ??_R3_internal_omni_thread_dummy@@8 005e5294     omnithread:nt.obj
 0003:0002a2a4       ??_R2_internal_omni_thread_dummy@@8 005e52a4     omnithread:nt.obj
 0003:0002a2b0       ??_R1A@?0A@EA@_internal_omni_thread_dummy@@8 005e52b0     omnithread:nt.obj
 0003:0002a2cc       ??_R4omni_thread@@6B@      005e52cc     omnithread:nt.obj
 0003:0002a2e0       ??_R4ZlibInStream@rdr@@6B@ 005e52e0     rdr:ZlibInStream.obj
 0003:0002a2f8       ??_R3ZlibInStream@rdr@@8   005e52f8     rdr:ZlibInStream.obj
 0003:0002a30c       ??_R2ZlibInStream@rdr@@8   005e530c     rdr:ZlibInStream.obj
 0003:0002a318       ??_R1A@?0A@EA@ZlibInStream@rdr@@8 005e5318     rdr:ZlibInStream.obj
 0003:0002a33c       ??_R1A@?0A@EA@InStream@rdr@@8 005e533c     rdr:ZlibInStream.obj
 0003:0002a360       ??_R3InStream@rdr@@8       005e5360     rdr:ZlibInStream.obj
 0003:0002a374       ??_R2InStream@rdr@@8       005e5374     rdr:ZlibInStream.obj
 0003:0002a37c       ??_R4InStream@rdr@@6B@     005e537c     rdr:ZlibInStream.obj
 0003:0002a394       ??_R4Exception@rdr@@6B@    005e5394     rdr:ZlibInStream.obj
 0003:0002a3ac       ??_R3Exception@rdr@@8      005e53ac     rdr:ZlibInStream.obj
 0003:0002a3c0       ??_R2Exception@rdr@@8      005e53c0     rdr:ZlibInStream.obj
 0003:0002a3c8       ??_R1A@?0A@EA@Exception@rdr@@8 005e53c8     rdr:ZlibInStream.obj
 0003:0002a3ec       ??_R4FdInStream@rdr@@6B@   005e53ec     rdr:FdInStream.obj
 0003:0002a404       ??_R3FdInStream@rdr@@8     005e5404     rdr:FdInStream.obj
 0003:0002a418       ??_R2FdInStream@rdr@@8     005e5418     rdr:FdInStream.obj
 0003:0002a424       ??_R1A@?0A@EA@FdInStream@rdr@@8 005e5424     rdr:FdInStream.obj
 0003:0002a448       ??_R4SystemException@rdr@@6B@ 005e5448     rdr:FdInStream.obj
 0003:0002a460       ??_R3SystemException@rdr@@8 005e5460     rdr:FdInStream.obj
 0003:0002a474       ??_R2SystemException@rdr@@8 005e5474     rdr:FdInStream.obj
 0003:0002a480       ??_R1A@?0A@EA@SystemException@rdr@@8 005e5480     rdr:FdInStream.obj
 0003:0002a4a4       ??_R4TimedOut@rdr@@6B@     005e54a4     rdr:FdInStream.obj
 0003:0002a4bc       ??_R3TimedOut@rdr@@8       005e54bc     rdr:FdInStream.obj
 0003:0002a4d0       ??_R2TimedOut@rdr@@8       005e54d0     rdr:FdInStream.obj
 0003:0002a4dc       ??_R1A@?0A@EA@TimedOut@rdr@@8 005e54dc     rdr:FdInStream.obj
 0003:0002a500       ??_R4EndOfStream@rdr@@6B@  005e5500     rdr:FdInStream.obj
 0003:0002a518       ??_R3EndOfStream@rdr@@8    005e5518     rdr:FdInStream.obj
 0003:0002a52c       ??_R2EndOfStream@rdr@@8    005e552c     rdr:FdInStream.obj
 0003:0002a538       ??_R1A@?0A@EA@EndOfStream@rdr@@8 005e5538     rdr:FdInStream.obj
 0003:0002a55c       ??_R4out_of_range@std@@6B@ 005e555c     libcpmtd:string.obj
 0003:0002a574       ??_R3out_of_range@std@@8   005e5574     libcpmtd:string.obj
 0003:0002a588       ??_R2out_of_range@std@@8   005e5588     libcpmtd:string.obj
 0003:0002a598       ??_R1A@?0A@EA@out_of_range@std@@8 005e5598     libcpmtd:string.obj
 0003:0002a5bc       ??_R4invalid_argument@std@@6B@ 005e55bc     libcpmtd:string.obj
 0003:0002a5d4       ??_R3invalid_argument@std@@8 005e55d4     libcpmtd:string.obj
 0003:0002a5e8       ??_R2invalid_argument@std@@8 005e55e8     libcpmtd:string.obj
 0003:0002a5f8       ??_R1A@?0A@EA@invalid_argument@std@@8 005e55f8     libcpmtd:string.obj
 0003:0002a61c       ??_R4_Locimp@locale@std@@6B@ 005e561c     libcpmtd:locale0.obj
 0003:0002a634       ??_R3_Locimp@locale@std@@8 005e5634     libcpmtd:locale0.obj
 0003:0002a648       ??_R2_Locimp@locale@std@@8 005e5648     libcpmtd:locale0.obj
 0003:0002a654       ??_R1A@?0A@EA@_Locimp@locale@std@@8 005e5654     libcpmtd:locale0.obj
 0003:0002a678       ??_R4type_info@@6B@        005e5678     LIBCMTD:typinfo.obj
 0003:0002a690       ??_R3type_info@@8          005e5690     LIBCMTD:typinfo.obj
 0003:0002a6a4       ??_R2type_info@@8          005e56a4     LIBCMTD:typinfo.obj
 0003:0002a6ac       ??_R1A@?0A@EA@type_info@@8 005e56ac     LIBCMTD:typinfo.obj
 0003:0002a6d0       ??_R4exception@std@@6B@    005e56d0     LIBCMTD:stdexcpt.obj
 0003:0002a6e8       ??_R4bad_cast@std@@6B@     005e56e8     LIBCMTD:stdexcpt.obj
 0003:0002a700       ??_R3bad_cast@std@@8       005e5700     LIBCMTD:stdexcpt.obj
 0003:0002a714       ??_R2bad_cast@std@@8       005e5714     LIBCMTD:stdexcpt.obj
 0003:0002a720       ??_R1A@?0A@EA@bad_cast@std@@8 005e5720     LIBCMTD:stdexcpt.obj
 0003:0002a744       ??_R4bad_typeid@std@@6B@   005e5744     LIBCMTD:stdexcpt.obj
 0003:0002a75c       ??_R3bad_typeid@std@@8     005e575c     LIBCMTD:stdexcpt.obj
 0003:0002a770       ??_R2bad_typeid@std@@8     005e5770     LIBCMTD:stdexcpt.obj
 0003:0002a77c       ??_R1A@?0A@EA@bad_typeid@std@@8 005e577c     LIBCMTD:stdexcpt.obj
 0003:0002a7a0       ??_R4__non_rtti_object@std@@6B@ 005e57a0     LIBCMTD:stdexcpt.obj
 0003:0002a7b8       ??_R3__non_rtti_object@std@@8 005e57b8     LIBCMTD:stdexcpt.obj
 0003:0002a7cc       ??_R2__non_rtti_object@std@@8 005e57cc     LIBCMTD:stdexcpt.obj
 0003:0002a7dc       ??_R1A@?0A@EA@__non_rtti_object@std@@8 005e57dc     LIBCMTD:stdexcpt.obj
 0003:0002a800       ??_R4bad_exception@std@@6B@ 005e5800     LIBCMTD:frame.obj
 0003:0002a818       ??_R3bad_exception@std@@8  005e5818     LIBCMTD:frame.obj
 0003:0002a82c       ??_R2bad_exception@std@@8  005e582c     LIBCMTD:frame.obj
 0003:0002a838       ??_R1A@?0A@EA@bad_exception@std@@8 005e5838     LIBCMTD:frame.obj
 0003:0002aa00       ___rtc_iaa                 005e5a00     LIBCMTD:_initsect_.obj
 0003:0002acb8       ___rtc_izz                 005e5cb8     LIBCMTD:_initsect_.obj
 0003:0002adbc       ___rtc_taa                 005e5dbc     LIBCMTD:_initsect_.obj
 0003:0002b074       ___rtc_tzz                 005e6074     LIBCMTD:_initsect_.obj
 0003:0002b1e4       __TI2?AVbad_alloc@std@@    005e61e4     AuthDialog.obj
 0003:0002b1f8       __CTA2?AVbad_alloc@std@@   005e61f8     AuthDialog.obj
 0003:0002b208       __CT??_R0?AVbad_alloc@std@@@8??0bad_alloc@std@@QAE@ABV01@@Z12 005e6208     AuthDialog.obj
 0003:0002b228       __CT??_R0?AVexception@std@@@8??0exception@std@@QAE@ABV01@@Z12 005e6228     AuthDialog.obj
 0003:0002b3b8       __TI3?AVfailure@ios_base@std@@ 005e63b8     AuthDialog.obj
 0003:0002b410       __CTA3?AVfailure@ios_base@std@@ 005e6410     AuthDialog.obj
 0003:0002b424       __CT??_R0?AVfailure@ios_base@std@@@8??0failure@ios_base@std@@QAE@ABV012@@Z44 005e6424     AuthDialog.obj
 0003:0002b444       __CT??_R0?AVruntime_error@std@@@8??0runtime_error@std@@QAE@ABV01@@Z44 005e6444     AuthDialog.obj
 0003:0002b858       __TI2?AVbad_cast@std@@     005e6858     AuthDialog.obj
 0003:0002b89c       __CTA2?AVbad_cast@std@@    005e689c     AuthDialog.obj
 0003:0002b8ac       __CT??_R0?AVbad_cast@std@@@8??0bad_cast@std@@QAE@ABV01@@Z12 005e68ac     AuthDialog.obj
 0003:0002be3c       __TI1?AVSRCException@@     005e6e3c     CACIC_Utils.obj
 0003:0002c158       __CTA1?AVSRCException@@    005e7158     CACIC_Utils.obj
 0003:0002c160       __CT??_R0?AVSRCException@@@8??0SRCException@@QAE@ABV0@@Z32 005e7160     CACIC_Utils.obj
 0003:0002d4a0       __TI2?AVWarningException@@ 005e84a0     ClientConnection.obj
 0003:0002d4b4       __CTA2?AVWarningException@@ 005e84b4     ClientConnection.obj
 0003:0002d4c4       __CT??_R0?AVWarningException@@@8??0WarningException@@QAE@ABV0@@Z16 005e84c4     ClientConnection.obj
 0003:0002d4e4       __CT??_R0?AVException@@@8??0Exception@@QAE@ABV0@@Z12 005e84e4     ClientConnection.obj
 0003:0002d504       __TI2?AVQuietException@@   005e8504     ClientConnection.obj
 0003:0002d518       __CTA2?AVQuietException@@  005e8518     ClientConnection.obj
 0003:0002d528       __CT??_R0?AVQuietException@@@8??0QuietException@@QAE@ABV0@@Z12 005e8528     ClientConnection.obj
 0003:0002d548       __TI2?AVErrorException@@   005e8548     ClientConnection.obj
 0003:0002d55c       __CTA2?AVErrorException@@  005e855c     ClientConnection.obj
 0003:0002d56c       __CT??_R0?AVErrorException@@@8??0ErrorException@@QAE@ABV0@@Z12 005e856c     ClientConnection.obj
 0003:0002e524       __TI1?AVExcept@@           005e9524     dh.obj
 0003:0002e538       __CTA1?AVExcept@@          005e9538     dh.obj
 0003:0002e540       __CT??_R0?AVExcept@@@8??0Except@@QAE@ABV0@@Z8 005e9540     dh.obj
 0003:0002e908       __TI3?AVlength_error@std@@ 005e9908     FileTransfer.obj
 0003:0002e94c       __CTA3?AVlength_error@std@@ 005e994c     FileTransfer.obj
 0003:0002e960       __CT??_R0?AVlength_error@std@@@8??0length_error@std@@QAE@ABV01@@Z44 005e9960     FileTransfer.obj
 0003:0002e980       __CT??_R0?AVlogic_error@std@@@8??0logic_error@std@@QAE@ABV01@@Z44 005e9980     FileTransfer.obj
 0003:0002f3a8       __TI1?AVexception@std@@    005ea3a8     Rijndael.obj
 0003:0002f3bc       __CTA1?AVexception@std@@   005ea3bc     Rijndael.obj
 0003:0002f7a8       __TI1?AVomni_thread_fatal@@ 005ea7a8     omnithread:nt.obj
 0003:0002f9a4       __CTA1?AVomni_thread_fatal@@ 005ea9a4     omnithread:nt.obj
 0003:0002f9ac       __CT??_R0?AVomni_thread_fatal@@@84 005ea9ac     omnithread:nt.obj
 0003:0002f9fc       __TI1?AVomni_thread_invalid@@ 005ea9fc     omnithread:nt.obj
 0003:0002fa0c       __CTA1?AVomni_thread_invalid@@ 005eaa0c     omnithread:nt.obj
 0003:0002fa14       __CT??_R0?AVomni_thread_invalid@@@81 005eaa14     omnithread:nt.obj
 0003:0002fa30       __TI1?AUException@rdr@@    005eaa30     rdr:ZlibInStream.obj
 0003:0002fa74       __CTA1?AUException@rdr@@   005eaa74     rdr:ZlibInStream.obj
 0003:0002fa7c       __CT??_R0?AUException@rdr@@@8??0Exception@rdr@@QAE@ABU01@@Z260 005eaa7c     rdr:ZlibInStream.obj
 0003:0002fb5c       __TI2?AUEndOfStream@rdr@@  005eab5c     rdr:FdInStream.obj
 0003:0002fb70       __TI2?AUTimedOut@rdr@@     005eab70     rdr:FdInStream.obj
 0003:0002fb84       __TI2?AUSystemException@rdr@@ 005eab84     rdr:FdInStream.obj
 0003:0002fb98       __CTA2?AUSystemException@rdr@@ 005eab98     rdr:FdInStream.obj
 0003:0002fba8       __CT??_R0?AUSystemException@rdr@@@8??0SystemException@rdr@@QAE@ABU01@@Z264 005eaba8     rdr:FdInStream.obj
 0003:0002fbc8       __CTA2?AUTimedOut@rdr@@    005eabc8     rdr:FdInStream.obj
 0003:0002fbd8       __CT??_R0?AUTimedOut@rdr@@@8??0TimedOut@rdr@@QAE@ABU01@@Z260 005eabd8     rdr:FdInStream.obj
 0003:0002fbf8       __CTA2?AUEndOfStream@rdr@@ 005eabf8     rdr:FdInStream.obj
 0003:0002fc08       __CT??_R0?AUEndOfStream@rdr@@@8??0EndOfStream@rdr@@QAE@ABU01@@Z260 005eac08     rdr:FdInStream.obj
 0003:0002fc58       __TI3?AVout_of_range@std@@ 005eac58     libcpmtd:string.obj
 0003:0002fc9c       __CTA3?AVout_of_range@std@@ 005eac9c     libcpmtd:string.obj
 0003:0002fcb0       __CT??_R0?AVout_of_range@std@@@8??0out_of_range@std@@QAE@ABV01@@Z44 005eacb0     libcpmtd:string.obj
 0003:0002fcd0       __TI3?AVinvalid_argument@std@@ 005eacd0     libcpmtd:string.obj
 0003:0002fd14       __CTA3?AVinvalid_argument@std@@ 005ead14     libcpmtd:string.obj
 0003:0002fd28       __CT??_R0?AVinvalid_argument@std@@@8??0invalid_argument@std@@QAE@ABV01@@Z44 005ead28     libcpmtd:string.obj
 0003:00030490       __TI2?AVbad_exception@std@@ 005eb490     LIBCMTD:frame.obj
 0003:000304a4       __CTA2?AVbad_exception@std@@ 005eb4a4     LIBCMTD:frame.obj
 0003:000304b4       __CT??_R0?AVbad_exception@std@@@8??0bad_exception@std@@QAE@ABV01@@Z12 005eb4b4     LIBCMTD:frame.obj
 0004:00000008       ??_R0?AVAccelKeys@@@8      005ed008     AccelKeys.obj
 0004:00000028       ??_R0?AVAuthDialog@@@8     005ed028     AuthDialog.obj
 0004:00000048       ??_R0?AVbad_alloc@std@@@8  005ed048     AuthDialog.obj
 0004:0000006c       ??_R0?AVexception@std@@@8  005ed06c     AuthDialog.obj
 0004:00000090       ??_R0?AV?$basic_ios@DU?$char_traits@D@std@@@std@@@8 005ed090     AuthDialog.obj
 0004:000000d0       ??_R0?AVios_base@std@@@8   005ed0d0     AuthDialog.obj
 0004:000000f0       ??_R0?AV?$_Iosb@H@std@@@8  005ed0f0     AuthDialog.obj
 0004:00000118       ??_R0?AV?$basic_stringstream@DU?$char_traits@D@std@@V?$allocator@D@2@@std@@@8 005ed118     AuthDialog.obj
 0004:00000178       ??_R0?AV?$basic_iostream@DU?$char_traits@D@std@@@std@@@8 005ed178     AuthDialog.obj
 0004:000001c0       ??_R0?AV?$basic_istream@DU?$char_traits@D@std@@@std@@@8 005ed1c0     AuthDialog.obj
 0004:00000208       ??_R0?AV?$basic_ostream@DU?$char_traits@D@std@@@std@@@8 005ed208     AuthDialog.obj
 0004:00000250       ??_R0?AV?$basic_stringbuf@DU?$char_traits@D@std@@V?$allocator@D@2@@std@@@8 005ed250     AuthDialog.obj
 0004:000002ac       ??_R0?AV?$basic_streambuf@DU?$char_traits@D@std@@@std@@@8 005ed2ac     AuthDialog.obj
 0004:000002f4       ??_R0?AVfailure@ios_base@std@@@8 005ed2f4     AuthDialog.obj
 0004:00000320       ??_R0?AVruntime_error@std@@@8 005ed320     AuthDialog.obj
 0004:00000348       ??_R0?AVbad_cast@std@@@8   005ed348     AuthDialog.obj
 0004:00000368       ??_R0?AV?$ctype@D@std@@@8  005ed368     AuthDialog.obj
 0004:0000038c       ??_R0?AUctype_base@std@@@8 005ed38c     AuthDialog.obj
 0004:000003b0       ??_R0?AVfacet@locale@std@@@8 005ed3b0     AuthDialog.obj
 0004:000003d8       ??_R0?AV?$num_put@DV?$ostreambuf_iterator@DU?$char_traits@D@std@@@std@@@std@@@8 005ed3d8     AuthDialog.obj
 0004:0000043c       ??_R0?AV?$numpunct@D@std@@@8 005ed43c     AuthDialog.obj
 0004:00000468       ?buildtime@@3PADA          005ed468     buildtime.obj
 0004:0000048c       ??_R0?AVSRCException@@@8   005ed48c     CACIC_Utils.obj
 0004:000004b0       ??_R0?AV?$num_get@DV?$istreambuf_iterator@DU?$char_traits@D@std@@@std@@@std@@@8 005ed4b0     CACIC_Utils.obj
 0004:00000518       ??_R0?AVClientConnection@@@8 005ed518     ClientConnection.obj
 0004:00000540       ??_R0?AVomni_thread@@@8    005ed540     ClientConnection.obj
 0004:00000560       ??_R0?AVException@@@8      005ed560     ClientConnection.obj
 0004:000005e8       ??_R0?AVWarningException@@@8 005ed5e8     ClientConnection.obj
 0004:00000610       ??_R0?AVQuietException@@@8 005ed610     ClientConnection.obj
 0004:00000634       ??_R0?AVErrorException@@@8 005ed634     ClientConnection.obj
 0004:00000658       ??_R0?AUException@rdr@@@8  005ed658     ClientConnection.obj
 0004:0000067c       ??_R0?AVomni_thread_invalid@@@8 005ed67c     ClientConnection.obj
 0004:000011ec       ??_R0?AVDaemon@@@8         005ee1ec     Daemon.obj
 0004:00001208       ??_R0?AVExcept@@@8         005ee208     dh.obj
 0004:00001224       ??_R0?AVCDSMPlugin@@@8     005ee224     DSMPlugin.obj
 0004:00001248       ??_R0?AVFileTransfer@@@8   005ee248     FileTransfer.obj
 0004:00001268       ??_R0?AVlength_error@std@@@8 005ee268     FileTransfer.obj
 0004:00001290       ??_R0?AVlogic_error@std@@@8 005ee290     FileTransfer.obj
 0004:000012b8       ??_R0?AVFlasher@@@8        005ee2b8     Flasher.obj
 0004:000012d4       ??_R0?AVCTitleBar@@@8      005ee2d4     FullScreenTitleBar.obj
 0004:000012f8       ??_R0?AVLog@@@8            005ee2f8     Log.obj
 0004:00001348       ??_R0?AVMRU@@@8            005ee348     MRU.obj
 0004:00001364       ?sm_szErrorMsg1@CRijndael@@0PBDB 005ee364     Rijndael.obj
 0004:00001368       ?sm_szErrorMsg2@CRijndael@@0PBDB 005ee368     Rijndael.obj
 0004:0000136c       ?sm_chain0@CRijndael@@2PBDB 005ee36c     Rijndael.obj
 0004:00001374       ??_R0?AVCRijndael@@@8      005ee374     Rijndael.obj
 0004:00001394       ??_R0?AVSessionDialog@@@8  005ee394     SessionDialog.obj
 0004:000013bc       ??_R0?AVTextChat@@@8       005ee3bc     TextChat.obj
 0004:000013d8       _fixedkey                  005ee3d8     vncauth.obj
 0004:000013e8       ??_R0?AVVNCOptions@@@8     005ee3e8     VNCOptions.obj
 0004:0000140d       ?command_line@@3_NA        005ee40d     vncviewer.obj
 0004:0000140e       ?g_passwordfailed@@3_NA    005ee40e     vncviewer.obj
 0004:00001414       ??_R0?AVVNCviewerApp@@@8   005ee414     VNCviewerApp.obj
 0004:0000143c       ?BELL_APPL_KEY_NAME@@3PBDB 005ee43c     VNCviewerApp32.obj
 0004:00001440       ?BELL_LABEL@@3PBDB         005ee440     VNCviewerApp32.obj
 0004:00001448       ??_R0?AVVNCviewerApp32@@@8 005ee448     VNCviewerApp32.obj
 0004:0000146c       ??_R0?AVCZipUnZip32@@@8    005ee46c     ZipUnzip32.obj
 0004:00001490       ??_R0?AVomni_thread_fatal@@@8 005ee490     omnithread:nt.obj
 0004:000014b0       ??_R0?AV_internal_omni_thread_dummy@@@8 005ee4b0     omnithread:nt.obj
 0004:0000153c       ??_R0?AVZlibInStream@rdr@@@8 005ee53c     rdr:ZlibInStream.obj
 0004:00001564       ??_R0?AVInStream@rdr@@@8   005ee564     rdr:ZlibInStream.obj
 0004:00001584       ??_R0?AVFdInStream@rdr@@@8 005ee584     rdr:FdInStream.obj
 0004:000015a8       ??_R0?AUSystemException@rdr@@@8 005ee5a8     rdr:FdInStream.obj
 0004:000015d0       ??_R0?AUTimedOut@rdr@@@8   005ee5d0     rdr:FdInStream.obj
 0004:000015f0       ??_R0?AUEndOfStream@rdr@@@8 005ee5f0     rdr:FdInStream.obj
 0004:00001668       ?_Sync@ios_base@std@@0_NA  005ee668     libcpmtd:ios.obj
 0004:00001674       ??_R0?AVout_of_range@std@@@8 005ee674     libcpmtd:string.obj
 0004:0000169c       ??_R0?AVinvalid_argument@std@@@8 005ee69c     libcpmtd:string.obj
 0004:000016d0       ??_R0?AV_Locimp@locale@std@@@8 005ee6d0     libcpmtd:locale0.obj
 0004:00001708       ?_PJP_CPP_Copyright@@3PADA 005ee708     libcpmtd:iosptrs.obj
 0004:0000177c       ??_R0?AVtype_info@@@8      005ee77c     LIBCMTD:typinfo.obj
 0004:000017a0       ___security_cookie         005ee7a0     LIBCMTD:gs_cookie.obj
 0004:000017a4       ___security_cookie_complement 005ee7a4     LIBCMTD:gs_cookie.obj
 0004:000017ac       ??_R0?AVbad_typeid@std@@@8 005ee7ac     LIBCMTD:stdexcpt.obj
 0004:000017d0       ??_R0?AV__non_rtti_object@std@@@8 005ee7d0     LIBCMTD:stdexcpt.obj
 0004:00001808       __fltused                  005ee808     LIBCMTD:_fpinit_.obj
 0004:0000180c       __ldused                   005ee80c     LIBCMTD:_fpinit_.obj
 0004:00001820       ___lconv_static_decimal    005ee820     LIBCMTD:lconv.obj
 0004:00001824       ___lconv_c                 005ee824     LIBCMTD:lconv.obj
 0004:00001854       ___lconv                   005ee854     LIBCMTD:lconv.obj
 0004:00001910       __iob                      005ee910     LIBCMTD:_file.obj
 0004:00001c10       __aexit_rtn                005eec10     LIBCMTD:crt0dat.obj
 0004:00001c14       ___app_type                005eec14     LIBCMTD:wincrt0.obj
 0004:00001c1c       __crtDbgFlag               005eec1c     LIBCMTD:dbgheap.obj
 0004:00001c20       ___crtDebugFillThreshold   005eec20     LIBCMTD:dbgheap.obj
 0004:00001c28       __crtBreakAlloc            005eec28     LIBCMTD:dbgheap.obj
 0004:00001c38       ??_R0?AVbad_exception@std@@@8 005eec38     LIBCMTD:frame.obj
 0004:00001c60       ___abort_behavior          005eec60     LIBCMTD:abort.obj
 0004:00001c68       __pctype                   005eec68     LIBCMTD:ctype.obj
 0004:00001c6c       __pwctype                  005eec6c     LIBCMTD:ctype.obj
 0004:00001fa0       ___flsindex                005eefa0     LIBCMTD:tidtable.obj
 0004:00001fa4       ___getvalueindex           005eefa4     LIBCMTD:tidtable.obj
 0004:00001fac       __pfnAllocHook             005eefac     LIBCMTD:dbghook.obj
 0004:00001fb0       __crtAssertBusy            005eefb0     LIBCMTD:dbgrptt.obj
 0004:00001fb4       __CrtDbgMode               005eefb4     LIBCMTD:dbgrptt.obj
 0004:00001fc0       __CrtDbgFile               005eefc0     LIBCMTD:dbgrptt.obj
 0004:00001fd4       ___nullstring              005eefd4     LIBCMTD:output.obj
 0004:00001fd8       ___wnullstring             005eefd8     LIBCMTD:output.obj
 0004:00001fe0       __cfltcvt_tab              005eefe0     LIBCMTD:cmiscdat.obj
 0004:00002010       ___globallocalestatus      005ef010     LIBCMTD:glstatus.obj
 0004:00002018       ___clocalestr              005ef018     LIBCMTD:nlsdata2.obj
 0004:00002020       ___initiallocinfo          005ef020     LIBCMTD:nlsdata2.obj
 0004:000020f8       ___ptlocinfo               005ef0f8     LIBCMTD:nlsdata2.obj
 0004:000020fc       ___lc_clike                005ef0fc     LIBCMTD:nlsdata2.obj
 0004:00002100       ___initiallocalestructinfo 005ef100     LIBCMTD:nlsdata2.obj
 0004:00002138       ___initialmbcinfo          005ef138     LIBCMTD:mbctype.obj
 0004:00002358       __mbctype                  005ef358     LIBCMTD:mbctype.obj
 0004:00002460       __mbcasemap                005ef460     LIBCMTD:mbctype.obj
 0004:00002560       ___ptmbcinfo               005ef560     LIBCMTD:mbctype.obj
 0004:00002848       ___badioinfo               005ef848     LIBCMTD:ioinit.obj
 0004:000028a0       __timezone                 005ef8a0     LIBCMTD:timeset.obj
 0004:000028a4       __daylight                 005ef8a4     LIBCMTD:timeset.obj
 0004:000028a8       __dstbias                  005ef8a8     LIBCMTD:timeset.obj
 0004:00002930       __tzname                   005ef930     LIBCMTD:timeset.obj
 0004:00002958       __lpdays                   005ef958     LIBCMTD:days.obj
 0004:0000298c       __days                     005ef98c     LIBCMTD:days.obj
 0004:000029d4       __First_FPE_Indx           005ef9d4     LIBCMTD:winxfltr.obj
 0004:000029d8       __Num_FPE                  005ef9d8     LIBCMTD:winxfltr.obj
 0004:000029dc       __XcptActTabSize           005ef9dc     LIBCMTD:winxfltr.obj
 0004:000029e0       __XcptActTabCount          005ef9e0     LIBCMTD:winxfltr.obj
 0004:000029e8       __amblksiz                 005ef9e8     LIBCMTD:heapinit.obj
 0004:000029ec       ?_RTC_ErrorLevels@@3PAHA   005ef9ec     LIBCMTD:_error_.obj
 0004:00002a08       __sys_errlist              005efa08     LIBCMTD:syserr.obj
 0004:00002ab8       __sys_nerr                 005efab8     LIBCMTD:syserr.obj
 0004:00002ae0       ___lc_time_c               005efae0     LIBCMTD:strftime.obj
 0004:00002bbc       ___lc_time_curr            005efbbc     LIBCMTD:strftime.obj
 0004:00002bc0       ___mb_cur_max              005efbc0     LIBCMTD:nlsdata1.obj
 0004:00002bc4       ___decimal_point           005efbc4     LIBCMTD:nlsdata1.obj
 0004:00002bc8       ___decimal_point_length    005efbc8     LIBCMTD:nlsdata1.obj
 0004:00002bd0       __HUGE                     005efbd0     LIBCMTD:_huge_.obj
 0004:00002bdc       __NLG_Destination          005efbdc     LIBCMTD:exsup.obj
 0004:00002bf4       __matherr_flag             005efbf4     LIBCMTD:_matherr_.obj
 0004:00002d10       __d_inf                    005efd10     LIBCMTD:_util_.obj
 0004:00002d18       __d_ind                    005efd18     LIBCMTD:_util_.obj
 0004:00002d20       __d_max                    005efd20     LIBCMTD:_util_.obj
 0004:00002d28       __d_min                    005efd28     LIBCMTD:_util_.obj
 0004:00002d30       __d_mzero                  005efd30     LIBCMTD:_util_.obj
 0004:00002da8       __lookuptrailbytes         005efda8     LIBCMTD:read.obj
 0004:00002edc       __coninpfh                 005efedc     LIBCMTD:initcon.obj
 0004:00002ee0       __confh                    005efee0     LIBCMTD:initcon.obj
 0004:00002ee8       __pow10pos                 005efee8     LIBCMTD:_constpow_.obj
 0004:00003048       __pow10neg                 005f0048     LIBCMTD:_constpow_.obj
 0004:00003408       ?_Psave@?$_Facetptr@V?$ctype@D@std@@@std@@2PBVfacet@locale@2@B 005f0408     AuthDialog.obj
 0004:0000340c       ?_Psave@?$_Facetptr@V?$num_put@DV?$ostreambuf_iterator@DU?$char_traits@D@std@@@std@@@std@@@std@@2PBVfacet@locale@2@B 005f040c     AuthDialog.obj
 0004:00003410       ?_Psave@?$_Facetptr@V?$numpunct@D@std@@@std@@2PBVfacet@locale@2@B 005f0410     AuthDialog.obj
 0004:00003414       ?id@?$num_put@DV?$ostreambuf_iterator@DU?$char_traits@D@std@@@std@@@std@@2V0locale@2@A 005f0414     AuthDialog.obj
 0004:00003418       ?id@?$numpunct@D@std@@2V0locale@2@A 005f0418     AuthDialog.obj
 0004:00003448       ?_Psave@?$_Facetptr@V?$num_get@DV?$istreambuf_iterator@DU?$char_traits@D@std@@@std@@@std@@@std@@2PBVfacet@locale@2@B 005f0448     CACIC_Utils.obj
 0004:0000344c       ?F_SANS_SERIF@CACIC_Utils@@2V?$basic_string@DU?$char_traits@D@std@@V?$allocator@D@2@@std@@B 005f044c     CACIC_Utils.obj
 0004:00003474       ?id@?$num_get@DV?$istreambuf_iterator@DU?$char_traits@D@std@@@std@@@std@@2V0locale@2@A 005f0474     CACIC_Utils.obj
 0004:00003478       ?havetobekilled@@3_NA      005f0478     ClientConnection.obj
 0004:00003479       ?forcedexit@@3_NA          005f0479     ClientConnection.obj
 0004:0000347c       ?cont@@3HA                 005f047c     ClientConnection.obj
 0004:00003480       ?cont2@@3HA                005f0480     ClientConnection.obj
 0004:00003488       ?FileTransferSendPacketMessage@@3IB 005f0488     ClientConnection.obj
 0004:00003540       ?bgcolor@@3KA              005f0540     ClientConnectionZlibHex.obj
 0004:00003544       ?fgcolor@@3KA              005f0544     ClientConnectionZlibHex.obj
 0004:00003728       _g_pfnGetSystemMetrics     005f0728     FullScreenTitleBar.obj
 0004:0000372c       _g_pfnMonitorFromPoint     005f072c     FullScreenTitleBar.obj
 0004:00003730       _g_pfnEnumDisplayDevices   005f0730     FullScreenTitleBar.obj
 0004:00003734       _g_pfnGetMonitorInfo       005f0734     FullScreenTitleBar.obj
 0004:00003738       _g_pfnEnumDisplayMonitors  005f0738     FullScreenTitleBar.obj
 0004:0000373c       _g_pfnMonitorFromRect      005f073c     FullScreenTitleBar.obj
 0004:00003740       _g_pfnMonitorFromWindow    005f0740     FullScreenTitleBar.obj
 0004:00003750       ?reset@@3_NA               005f0750     KeyMap.obj
 0004:00003754       ?theLog@@3VLog@@A          005f0754     Log.obj
 0004:00003768       ?g_hwndVNCViewer@LowLevelHook@@0PAUHWND__@@A 005f0768     LowLevelHook.obj
 0004:0000376c       ?g_VncProcessID@LowLevelHook@@0KA 005f076c     LowLevelHook.obj
 0004:00003770       ?g_fHookActive@LowLevelHook@@0HA 005f0770     LowLevelHook.obj
 0004:00003774       ?g_HookID@LowLevelHook@@0PAUHHOOK__@@A 005f0774     LowLevelHook.obj
 0004:00003778       ?g_fGlobalScrollLock@LowLevelHook@@0HA 005f0778     LowLevelHook.obj
 0004:00003780       ?infomsg@@3PADA            005f0780     MessBox.obj
 0004:00003784       ?g_error_nr@@3HA           005f0784     MessBox.obj
 0004:0000378c       ___lzo_init_done           005f078c     minilzo.obj
 0004:00003794       ?pDefSBProc@@3JA           005f0794     TextChat.obj
 0004:000037b0       ?sz_G1@@3PADA              005f07b0     vncviewer.obj
 0004:000037f0       ?sz_K2@@3PADA              005f07f0     vncviewer.obj
 0004:00003830       ?sz_L63@@3PADA             005f0830     vncviewer.obj
 0004:00003870       ?sz_D10@@3PADA             005f0870     vncviewer.obj
 0004:000038b0       ?sz_L20@@3PADA             005f08b0     vncviewer.obj
 0004:000038f0       ?sz_H94@@3PADA             005f08f0     vncviewer.obj
 0004:00003930       ?sz_L89@@3PADA             005f0930     vncviewer.obj
 0004:00003970       ?sz_A5@@3PADA              005f0970     vncviewer.obj
 0004:000039b0       ?sz_L87@@3PADA             005f09b0     vncviewer.obj
 0004:000039f0       ?sz_H44@@3PADA             005f09f0     vncviewer.obj
 0004:00003a30       ?sz_H73@@3PADA             005f0a30     vncviewer.obj
 0004:00003a70       ?sz_L39@@3PADA             005f0a70     vncviewer.obj
 0004:00003ab0       ?sz_L90@@3PADA             005f0ab0     vncviewer.obj
 0004:00003af0       ?sz_I1@@3PADA              005f0af0     vncviewer.obj
 0004:00003b30       ?sz_H43@@3PADA             005f0b30     vncviewer.obj
 0004:00003bb0       ?sz_L17@@3PADA             005f0bb0     vncviewer.obj
 0004:00003bf0       ?sz_M2@@3PADA              005f0bf0     vncviewer.obj
 0004:00003c30       ?sz_H41@@3PADA             005f0c30     vncviewer.obj
 0004:00003c70       ?sz_L35@@3PADA             005f0c70     vncviewer.obj
 0004:00003cb0       ?sz_D7@@3PADA              005f0cb0     vncviewer.obj
 0004:00003cf0       ?sz_D19@@3PADA             005f0cf0     vncviewer.obj
 0004:00003d30       ?sz_L66@@3PADA             005f0d30     vncviewer.obj
 0004:00003d70       ?sz_H19@@3PADA             005f0d70     vncviewer.obj
 0004:00003db0       ?sz_L27@@3PADA             005f0db0     vncviewer.obj
 0004:00003df0       ?sz_M4@@3PADA              005f0df0     vncviewer.obj
 0004:00003e30       ?sz_L38@@3PADA             005f0e30     vncviewer.obj
 0004:00003e70       ?sz_C1@@3PADA              005f0e70     vncviewer.obj
 0004:00003eb0       ?sz_G2@@3PADA              005f0eb0     vncviewer.obj
 0004:00003ef0       ?sz_D27@@3PADA             005f0ef0     vncviewer.obj
 0004:00003f30       ?sz_H42@@3PADA             005f0f30     vncviewer.obj
 0004:00003f70       ?sz_H7@@3PADA              005f0f70     vncviewer.obj
 0004:00003fb0       ?sz_H69@@3PADA             005f0fb0     vncviewer.obj
 0004:00003ff0       ?sz_H59@@3PADA             005f0ff0     vncviewer.obj
 0004:00004030       ?sz_H51@@3PADA             005f1030     vncviewer.obj
 0004:00004070       ?sz_G3@@3PADA              005f1070     vncviewer.obj
 0004:000040b0       ?sz_H62@@3PADA             005f10b0     vncviewer.obj
 0004:00004130       ?sz_D21@@3PADA             005f1130     vncviewer.obj
 0004:00004170       ?sz_H50@@3PADA             005f1170     vncviewer.obj
 0004:000041b0       ?sz_C3@@3PADA              005f11b0     vncviewer.obj
 0004:000041f0       ?sz_M7@@3PADA              005f11f0     vncviewer.obj
 0004:00004230       ?sz_I2@@3PADA              005f1230     vncviewer.obj
 0004:00004270       ?sz_H29@@3PADA             005f1270     vncviewer.obj
 0004:000042b0       ?sz_E1@@3PADA              005f12b0     vncviewer.obj
 0004:000042f0       ?sz_L18@@3PADA             005f12f0     vncviewer.obj
 0004:00004330       ?sz_L22@@3PADA             005f1330     vncviewer.obj
 0004:00004370       ?sz_L85@@3PADA             005f1370     vncviewer.obj
 0004:000043b0       ?sz_L37@@3PADA             005f13b0     vncviewer.obj
 0004:000043f0       ?sz_H64@@3PADA             005f13f0     vncviewer.obj
 0004:00004430       ?sz_H60@@3PADA             005f1430     vncviewer.obj
 0004:00004470       ?sz_H30@@3PADA             005f1470     vncviewer.obj
 0004:000044b0       ?sz_I3@@3PADA              005f14b0     vncviewer.obj
 0004:000044f0       ?sz_D28@@3PADA             005f14f0     vncviewer.obj
 0004:00004530       ?sz_L13@@3PADA             005f1530     vncviewer.obj
 0004:00004570       ?sz_C2@@3PADA              005f1570     vncviewer.obj
 0004:000045b0       ?sz_L45@@3PADA             005f15b0     vncviewer.obj
 0004:000045f0       ?sz_H11@@3PADA             005f15f0     vncviewer.obj
 0004:00004630       ?sz_L70@@3PADA             005f1630     vncviewer.obj
 0004:00004670       ?sz_D18@@3PADA             005f1670     vncviewer.obj
 0004:000046b0       ?sz_H3@@3PADA              005f16b0     vncviewer.obj
 0004:00004730       ?sz_D2@@3PADA              005f1730     vncviewer.obj
 0004:00004770       ?sz_L48@@3PADA             005f1770     vncviewer.obj
 0004:000047b0       ?sz_L43@@3PADA             005f17b0     vncviewer.obj
 0004:000047f0       ?sz_H15@@3PADA             005f17f0     vncviewer.obj
 0004:00004830       ?sz_H13@@3PADA             005f1830     vncviewer.obj
 0004:00004870       ?sz_L73@@3PADA             005f1870     vncviewer.obj
 0004:000048b0       ?sz_L28@@3PADA             005f18b0     vncviewer.obj
 0004:000048f0       ?sz_H35@@3PADA             005f18f0     vncviewer.obj
 0004:00004930       ?sz_L62@@3PADA             005f1930     vncviewer.obj
 0004:00004970       ?sz_H8@@3PADA              005f1970     vncviewer.obj
 0004:000049b0       ?sz_H54@@3PADA             005f19b0     vncviewer.obj
 0004:000049f0       ?sz_L7@@3PADA              005f19f0     vncviewer.obj
 0004:00004a30       ?sz_D8@@3PADA              005f1a30     vncviewer.obj
 0004:00004a70       ?sz_L76@@3PADA             005f1a70     vncviewer.obj
 0004:00004ab0       ?sz_L34@@3PADA             005f1ab0     vncviewer.obj
 0004:00004af0       ?sz_D25@@3PADA             005f1af0     vncviewer.obj
 0004:00004b30       ?sz_L54@@3PADA             005f1b30     vncviewer.obj
 0004:00004b70       ?sz_L51@@3PADA             005f1b70     vncviewer.obj
 0004:00004bb0       ?sz_L19@@3PADA             005f1bb0     vncviewer.obj
 0004:00004bf0       ?sz_K4@@3PADA              005f1bf0     vncviewer.obj
 0004:00004c30       ?sz_A1@@3PADA              005f1c30     vncviewer.obj
 0004:00004c70       ?sz_L68@@3PADA             005f1c70     vncviewer.obj
 0004:00004cb0       ?sz_L65@@3PADA             005f1cb0     vncviewer.obj
 0004:00004cf0       ?sz_J2@@3PADA              005f1cf0     vncviewer.obj
 0004:00004d30       ?sz_H65@@3PADA             005f1d30     vncviewer.obj
 0004:00004d70       ?sz_D6@@3PADA              005f1d70     vncviewer.obj
 0004:00004db0       ?sz_L88@@3PADA             005f1db0     vncviewer.obj
 0004:00004df0       ?sz_L81@@3PADA             005f1df0     vncviewer.obj
 0004:00004e30       ?sz_H34@@3PADA             005f1e30     vncviewer.obj
 0004:00004e70       ?sz_H68@@3PADA             005f1e70     vncviewer.obj
 0004:00004ef0       ?sz_H24@@3PADA             005f1ef0     vncviewer.obj
 0004:00004f30       ?sz_L32@@3PADA             005f1f30     vncviewer.obj
 0004:00004f70       ?sz_H18@@3PADA             005f1f70     vncviewer.obj
 0004:00004fb0       ?sz_L86@@3PADA             005f1fb0     vncviewer.obj
 0004:00004ff0       ?sz_L83@@3PADA             005f1ff0     vncviewer.obj
 0004:00005030       ?sz_H31@@3PADA             005f2030     vncviewer.obj
 0004:00005070       ?sz_H61@@3PADA             005f2070     vncviewer.obj
 0004:000050b0       ?sz_L61@@3PADA             005f20b0     vncviewer.obj
 0004:000050f0       ?sz_L24@@3PADA             005f20f0     vncviewer.obj
 0004:00005130       ?sz_L71@@3PADA             005f2130     vncviewer.obj
 0004:00005170       ?sz_F1@@3PADA              005f2170     vncviewer.obj
 0004:000051b0       ?sz_L91@@3PADA             005f21b0     vncviewer.obj
 0004:000051f0       ?sz_D16@@3PADA             005f21f0     vncviewer.obj
 0004:00005230       ?sz_L2@@3PADA              005f2230     vncviewer.obj
 0004:00005270       ?sz_H37@@3PADA             005f2270     vncviewer.obj
 0004:000052b0       ?sz_H97@@3PADA             005f22b0     vncviewer.obj
 0004:000052f0       ?sz_L41@@3PADA             005f22f0     vncviewer.obj
 0004:00005330       ?sz_D13@@3PADA             005f2330     vncviewer.obj
 0004:00005370       ?sz_L56@@3PADA             005f2370     vncviewer.obj
 0004:000053b0       ?sz_L26@@3PADA             005f23b0     vncviewer.obj
 0004:000053f0       ?sz_L36@@3PADA             005f23f0     vncviewer.obj
 0004:00005430       ?sz_F3@@3PADA              005f2430     vncviewer.obj
 0004:00005470       ?sz_H1@@3PADA              005f2470     vncviewer.obj
 0004:000054b0       ?sz_A3@@3PADA              005f24b0     vncviewer.obj
 0004:000054f0       ?sz_L4@@3PADA              005f24f0     vncviewer.obj
 0004:00005530       ?sz_F7@@3PADA              005f2530     vncviewer.obj
 0004:000055b0       ?sz_K5@@3PADA              005f25b0     vncviewer.obj
 0004:000055f0       ?sz_L69@@3PADA             005f25f0     vncviewer.obj
 0004:00005630       ?sz_H56@@3PADA             005f2630     vncviewer.obj
 0004:00005670       ?sz_F10@@3PADA             005f2670     vncviewer.obj
 0004:000056b0       ?sz_H28@@3PADA             005f26b0     vncviewer.obj
 0004:000056f0       ?sz_L6@@3PADA              005f26f0     vncviewer.obj
 0004:00005730       ?sz_H9@@3PADA              005f2730     vncviewer.obj
 0004:00005770       ?sz_L82@@3PADA             005f2770     vncviewer.obj
 0004:000057b0       ?sz_H66@@3PADA             005f27b0     vncviewer.obj
 0004:000057f0       ?sz_H98@@3PADA             005f27f0     vncviewer.obj
 0004:00005830       ?sz_K7@@3PADA              005f2830     vncviewer.obj
 0004:00005870       ?sz_L78@@3PADA             005f2870     vncviewer.obj
 0004:000058b0       ?sz_D9@@3PADA              005f28b0     vncviewer.obj
 0004:000058f0       ?sz_L15@@3PADA             005f28f0     vncviewer.obj
 0004:00005930       ?sz_H26@@3PADA             005f2930     vncviewer.obj
 0004:00005970       ?sz_H48@@3PADA             005f2970     vncviewer.obj
 0004:000059b0       ?sz_H45@@3PADA             005f29b0     vncviewer.obj
 0004:000059f0       ?sz_D22@@3PADA             005f29f0     vncviewer.obj
 0004:00005a30       ?sz_D3@@3PADA              005f2a30     vncviewer.obj
 0004:00005a70       ?sz_D14@@3PADA             005f2a70     vncviewer.obj
 0004:00005ab0       ?sz_H2@@3PADA              005f2ab0     vncviewer.obj
 0004:00005af0       ?sz_H20@@3PADA             005f2af0     vncviewer.obj
 0004:00005b30       ?sz_L16@@3PADA             005f2b30     vncviewer.obj
 0004:00005b70       ?sz_H46@@3PADA             005f2b70     vncviewer.obj
 0004:00005bf0       ?sz_F5@@3PADA              005f2bf0     vncviewer.obj
 0004:00005c70       ?sz_H27@@3PADA             005f2c70     vncviewer.obj
 0004:00005cb0       ?sz_L11@@3PADA             005f2cb0     vncviewer.obj
 0004:00005cf0       ?sz_H49@@3PADA             005f2cf0     vncviewer.obj
 0004:00005d30       ?sz_D4@@3PADA              005f2d30     vncviewer.obj
 0004:00005d70       ?sz_L30@@3PADA             005f2d70     vncviewer.obj
 0004:00005db0       ?sz_D26@@3PADA             005f2db0     vncviewer.obj
 0004:00005df0       ?sz_H6@@3PADA              005f2df0     vncviewer.obj
 0004:00005e30       ?sz_L92@@3PADA             005f2e30     vncviewer.obj
 0004:00005e70       ?m_hInstResDLL@@3PAUHINSTANCE__@@A 005f2e70     vncviewer.obj
 0004:00005e78       ?sz_L9@@3PADA              005f2e78     vncviewer.obj
 0004:00005eb8       ?sz_D17@@3PADA             005f2eb8     vncviewer.obj
 0004:00005ef8       ?sz_L5@@3PADA              005f2ef8     vncviewer.obj
 0004:00005f38       ?sz_L72@@3PADA             005f2f38     vncviewer.obj
 0004:00005f78       ?sz_L59@@3PADA             005f2f78     vncviewer.obj
 0004:00005fb8       ?sz_L8@@3PADA              005f2fb8     vncviewer.obj
 0004:00005ff8       ?sz_L31@@3PADA             005f2ff8     vncviewer.obj
 0004:00006038       ?sz_D23@@3PADA             005f3038     vncviewer.obj
 0004:00006078       ?sz_H12@@3PADA             005f3078     vncviewer.obj
 0004:000060b8       ?sz_B1@@3PADA              005f30b8     vncviewer.obj
 0004:000060f8       ?sz_H71@@3PADA             005f30f8     vncviewer.obj
 0004:00006138       ?sz_M5@@3PADA              005f3138     vncviewer.obj
 0004:00006178       ?sz_L77@@3PADA             005f3178     vncviewer.obj
 0004:000061b8       ?sz_D12@@3PADA             005f31b8     vncviewer.obj
 0004:000061f8       ?sz_L40@@3PADA             005f31f8     vncviewer.obj
 0004:00006238       ?sz_M8@@3PADA              005f3238     vncviewer.obj
 0004:00006278       ?sz_H22@@3PADA             005f3278     vncviewer.obj
 0004:000062b8       ?sz_L21@@3PADA             005f32b8     vncviewer.obj
 0004:000062f8       ?sz_H72@@3PADA             005f32f8     vncviewer.obj
 0004:00006378       ?sz_L44@@3PADA             005f3378     vncviewer.obj
 0004:000063b8       ?sz_L64@@3PADA             005f33b8     vncviewer.obj
 0004:000063f8       ?sz_H33@@3PADA             005f33f8     vncviewer.obj
 0004:00006438       ?sz_L50@@3PADA             005f3438     vncviewer.obj
 0004:00006478       ?sz_B2@@3PADA              005f3478     vncviewer.obj
 0004:000064b8       ?sz_M6@@3PADA              005f34b8     vncviewer.obj
 0004:000064f8       ?sz_L29@@3PADA             005f34f8     vncviewer.obj
 0004:00006538       ?sz_H96@@3PADA             005f3538     vncviewer.obj
 0004:00006578       ?sz_L84@@3PADA             005f3578     vncviewer.obj
 0004:000065b8       ?sz_D1@@3PADA              005f35b8     vncviewer.obj
 0004:000065f8       ?sz_B3@@3PADA              005f35f8     vncviewer.obj
 0004:00006638       ?sz_F11@@3PADA             005f3638     vncviewer.obj
 0004:00006678       ?sz_D5@@3PADA              005f3678     vncviewer.obj
 0004:000066b8       ?sz_H47@@3PADA             005f36b8     vncviewer.obj
 0004:000066f8       ?sz_A4@@3PADA              005f36f8     vncviewer.obj
 0004:00006738       ?sz_L14@@3PADA             005f3738     vncviewer.obj
 0004:00006778       ?sz_H25@@3PADA             005f3778     vncviewer.obj
 0004:000067b8       ?sz_H21@@3PADA             005f37b8     vncviewer.obj
 0004:000067f8       ?sz_H5@@3PADA              005f37f8     vncviewer.obj
 0004:00006838       ?sz_K6@@3PADA              005f3838     vncviewer.obj
 0004:00006878       ?sz_E2@@3PADA              005f3878     vncviewer.obj
 0004:000068b8       ?sz_L75@@3PADA             005f38b8     vncviewer.obj
 0004:000068f8       ?sz_L25@@3PADA             005f38f8     vncviewer.obj
 0004:00006938       ?sz_D15@@3PADA             005f3938     vncviewer.obj
 0004:00006978       ?sz_H40@@3PADA             005f3978     vncviewer.obj
 0004:000069b8       ?sz_J1@@3PADA              005f39b8     vncviewer.obj
 0004:00006a38       ?sz_L53@@3PADA             005f3a38     vncviewer.obj
 0004:00006a78       ?sz_F4@@3PADA              005f3a78     vncviewer.obj
 0004:00006ab8       ?sz_H53@@3PADA             005f3ab8     vncviewer.obj
 0004:00006af8       ?sz_L60@@3PADA             005f3af8     vncviewer.obj
 0004:00006b38       ?sz_H38@@3PADA             005f3b38     vncviewer.obj
 0004:00006bb8       ?sz_K3@@3PADA              005f3bb8     vncviewer.obj
 0004:00006c38       ?sz_L49@@3PADA             005f3c38     vncviewer.obj
 0004:00006c78       ?sz_D20@@3PADA             005f3c78     vncviewer.obj
 0004:00006cb8       ?sz_H99@@3PADA             005f3cb8     vncviewer.obj
 0004:00006cf8       ?sz_H95@@3PADA             005f3cf8     vncviewer.obj
 0004:00006d38       ?sz_L52@@3PADA             005f3d38     vncviewer.obj
 0004:00006d78       ?sz_H67@@3PADA             005f3d78     vncviewer.obj
 0004:00006db8       ?sz_H57@@3PADA             005f3db8     vncviewer.obj
 0004:00006df8       ?sz_L10@@3PADA             005f3df8     vncviewer.obj
 0004:00006e38       ?sz_H52@@3PADA             005f3e38     vncviewer.obj
 0004:00006e78       ?sz_H23@@3PADA             005f3e78     vncviewer.obj
 0004:00006eb8       ?sz_L67@@3PADA             005f3eb8     vncviewer.obj
 0004:00006ef8       ?sz_L79@@3PADA             005f3ef8     vncviewer.obj
 0004:00006f38       ?sz_H39@@3PADA             005f3f38     vncviewer.obj
 0004:00006f78       ?sz_L57@@3PADA             005f3f78     vncviewer.obj
 0004:00006fb8       ?sz_H17@@3PADA             005f3fb8     vncviewer.obj
 0004:00006ff8       ?sz_L1@@3PADA              005f3ff8     vncviewer.obj
 0004:00007038       ?sz_H70@@3PADA             005f4038     vncviewer.obj
 0004:00007078       ?sz_L23@@3PADA             005f4078     vncviewer.obj
 0004:000070b8       ?sz_L46@@3PADA             005f40b8     vncviewer.obj
 0004:000070f8       ?sz_H4@@3PADA              005f40f8     vncviewer.obj
 0004:00007138       ?sz_D24@@3PADA             005f4138     vncviewer.obj
 0004:00007178       ?sz_D11@@3PADA             005f4178     vncviewer.obj
 0004:000071b8       ?sz_M3@@3PADA              005f41b8     vncviewer.obj
 0004:000071f8       ?sz_H32@@3PADA             005f41f8     vncviewer.obj
 0004:00007238       ?sz_L12@@3PADA             005f4238     vncviewer.obj
 0004:00007278       ?sz_H10@@3PADA             005f4278     vncviewer.obj
 0004:000072b8       ?sz_K1@@3PADA              005f42b8     vncviewer.obj
 0004:000072f8       ?sz_L58@@3PADA             005f42f8     vncviewer.obj
 0004:00007338       ?sz_L3@@3PADA              005f4338     vncviewer.obj
 0004:00007378       ?sz_H58@@3PADA             005f4378     vncviewer.obj
 0004:000073b8       ?sz_H16@@3PADA             005f43b8     vncviewer.obj
 0004:000073f8       ?sz_A2@@3PADA              005f43f8     vncviewer.obj
 0004:00007438       ?sz_L33@@3PADA             005f4438     vncviewer.obj
 0004:00007478       ?sz_L74@@3PADA             005f4478     vncviewer.obj
 0004:000074b8       ?sz_H55@@3PADA             005f44b8     vncviewer.obj
 0004:000074f8       ?sz_L42@@3PADA             005f44f8     vncviewer.obj
 0004:00007538       ?sz_F6@@3PADA              005f4538     vncviewer.obj
 0004:00007578       ?sz_M1@@3PADA              005f4578     vncviewer.obj
 0004:000075b8       ?sz_H36@@3PADA             005f45b8     vncviewer.obj
 0004:000075f8       ?sz_L55@@3PADA             005f45f8     vncviewer.obj
 0004:00007638       ?sz_L80@@3PADA             005f4638     vncviewer.obj
 0004:00007678       ?sz_H14@@3PADA             005f4678     vncviewer.obj
 0004:000076b8       ?sz_F8@@3PADA              005f46b8     vncviewer.obj
 0004:00007738       ?sz_L47@@3PADA             005f4738     vncviewer.obj
 0004:00007778       ?sz_H63@@3PADA             005f4778     vncviewer.obj
 0004:000077bc       ?vnclog@@3VLog@@A          005f47bc     vncviewer.obj
 0004:000077cc       ?TheAccelKeys@@3VAccelKeys@@A 005f47cc     vncviewer.obj
 0004:000084ac       ?pApp@@3PAVVNCviewerApp@@A 005f54ac     VNCviewerApp.obj
 0004:000084b4       ?next_id_mutex@omni_thread@@0PAVomni_mutex@@A 005f54b4     omnithread:nt.obj
 0004:000084bc       ?cache@_internal_omni_thread_helper@@2PAV_internal_omni_thread_dummy@@A 005f54bc     omnithread:nt.obj
 0004:000084c0       ?count@init_t@omni_thread@@0HA 005f54c0     omnithread:nt.obj
 0004:000084c4       ?next_id@omni_thread@@0HA  005f54c4     omnithread:nt.obj
 0004:000084cc       ?cachelock@_internal_omni_thread_helper@@2Vomni_mutex@@A 005f54cc     omnithread:nt.obj
 0004:00008580       ?_Fpz@std@@3_JA            005f5580     libcpmtd:ios.obj
 0004:00008588       ?_Index@ios_base@std@@0HA  005f5588     libcpmtd:ios.obj
 0004:000085d4       ?_Clocptr@_Locimp@locale@std@@0PAV123@A 005f55d4     libcpmtd:locale0.obj
 0004:000085d8       ?_Id_cnt@id@locale@std@@0HA 005f55d8     libcpmtd:locale0.obj
 0004:000085dc       ?id@?$ctype@D@std@@2V0locale@2@A 005f55dc     libcpmtd:locale0.obj
 0004:000085e0       ?id@?$codecvt@GDH@std@@2V0locale@2@A 005f55e0     libcpmtd:locale0.obj
 0004:000085e4       ?id@?$ctype@_W@std@@2V0locale@2@A 005f55e4     libcpmtd:locale0.obj
 0004:000085e8       ?id@?$codecvt@_WDH@std@@2V0locale@2@A 005f55e8     libcpmtd:locale0.obj
 0004:000085f0       ?id@?$ctype@G@std@@2V0locale@2@A 005f55f0     libcpmtd:locale0.obj
 0004:00008600       ?_Ptr_cin@std@@3PAV?$basic_istream@DU?$char_traits@D@std@@@1@A 005f5600     libcpmtd:iosptrs.obj
 0004:00008604       ?_Ptr_cout@std@@3PAV?$basic_ostream@DU?$char_traits@D@std@@@1@A 005f5604     libcpmtd:iosptrs.obj
 0004:00008608       ?_Ptr_cerr@std@@3PAV?$basic_ostream@DU?$char_traits@D@std@@@1@A 005f5608     libcpmtd:iosptrs.obj
 0004:0000860c       ?_Ptr_clog@std@@3PAV?$basic_ostream@DU?$char_traits@D@std@@@1@A 005f560c     libcpmtd:iosptrs.obj
 0004:00008610       ?_Ptr_wcin@std@@3PAV?$basic_istream@_WU?$char_traits@_W@std@@@1@A 005f5610     libcpmtd:iosptrs.obj
 0004:00008614       ?_Ptr_wcout@std@@3PAV?$basic_ostream@_WU?$char_traits@_W@std@@@1@A 005f5614     libcpmtd:iosptrs.obj
 0004:00008618       ?_Ptr_wcerr@std@@3PAV?$basic_ostream@_WU?$char_traits@_W@std@@@1@A 005f5618     libcpmtd:iosptrs.obj
 0004:0000861c       ?_Ptr_wclog@std@@3PAV?$basic_ostream@_WU?$char_traits@_W@std@@@1@A 005f561c     libcpmtd:iosptrs.obj
 0004:00008784       ___pInvalidArgHandler      005f5784     LIBCMTD:invarg.obj
 0004:0000879c       ___fastflag                005f579c     LIBCMTD:_fpinit_.obj
 0004:000087a0       __adjust_fdiv              005f57a0     LIBCMTD:_fpinit_.obj
 0004:000087a5       ___lconv_static_null       005f57a5     LIBCMTD:lconv.obj
 0004:00008888       __cflush                   005f5888     LIBCMTD:_file.obj
 0004:0000888c       __umaskval                 005f588c     LIBCMTD:crt0dat.obj
 0004:00008890       ___argc                    005f5890     LIBCMTD:crt0dat.obj
 0004:00008894       ___argv                    005f5894     LIBCMTD:crt0dat.obj
 0004:00008898       ___wargv                   005f5898     LIBCMTD:crt0dat.obj
 0004:0000889c       __environ                  005f589c     LIBCMTD:crt0dat.obj
 0004:000088a0       ___initenv                 005f58a0     LIBCMTD:crt0dat.obj
 0004:000088a4       __wenviron                 005f58a4     LIBCMTD:crt0dat.obj
 0004:000088a8       ___winitenv                005f58a8     LIBCMTD:crt0dat.obj
 0004:000088ac       __pgmptr                   005f58ac     LIBCMTD:crt0dat.obj
 0004:000088b0       __wpgmptr                  005f58b0     LIBCMTD:crt0dat.obj
 0004:000088b4       __exitflag                 005f58b4     LIBCMTD:crt0dat.obj
 0004:000088b8       __C_Termination_Done       005f58b8     LIBCMTD:crt0dat.obj
 0004:000088bc       __C_Exit_Done              005f58bc     LIBCMTD:crt0dat.obj
 0004:000088d0       __aenvptr                  005f58d0     LIBCMTD:wincrt0.obj
 0004:000088d4       __wenvptr                  005f58d4     LIBCMTD:wincrt0.obj
 0004:000088d8       ___error_mode              005f58d8     LIBCMTD:wincrt0.obj
 0004:00008900       ?_pfnDumpClient@@3P6AXPAXI@ZA 005f5900     LIBCMTD:dbgheap.obj
 0004:00008908       ___crtDebugCheckCount      005f5908     LIBCMTD:dbgheap.obj
 0004:00008918       ___locale_changed          005f5918     LIBCMTD:setlocal.obj
 0004:00008ae0       _gpFlsAlloc                005f5ae0     LIBCMTD:tidtable.obj
 0004:00008ae4       _gpFlsGetValue             005f5ae4     LIBCMTD:tidtable.obj
 0004:00008ae8       _gpFlsSetValue             005f5ae8     LIBCMTD:tidtable.obj
 0004:00008aec       _gpFlsFree                 005f5aec     LIBCMTD:tidtable.obj
 0004:00008af4       ?__pInconsistency@@3P6AXXZA 005f5af4     LIBCMTD:hooks.obj
 0004:00008eec       ?_pnhHeap@@3P6AHI@ZA       005f5eec     LIBCMTD:handler.obj
 0004:00008ef0       ___lc_handle               005f5ef0     LIBCMTD:nlsdata2.obj
 0004:00008f08       ___lc_codepage             005f5f08     LIBCMTD:nlsdata2.obj
 0004:00008f0c       ___lc_collate_cp           005f5f0c     LIBCMTD:nlsdata2.obj
 0004:00008f1c       ___mbulinfo                005f5f1c     LIBCMTD:mbctype.obj
 0004:00008f28       ___mbcodepage              005f5f28     LIBCMTD:mbctype.obj
 0004:00008f2c       ___ismbcodepage            005f5f2c     LIBCMTD:mbctype.obj
 0004:00008f30       ___mblcid                  005f5f30     LIBCMTD:mbctype.obj
 0004:000092fc       ___pPurecall               005f62fc     LIBCMTD:inithelp.obj
 0004:00009304       __stdbuf                   005f6304     LIBCMTD:_sftbuf.obj
 0004:00009328       __commode                  005f6328     LIBCMTD:ncommode.obj
 0004:00009330       __newmode                  005f6330     LIBCMTD:_newmode.obj
 0004:00009478       __crtheap                  005f6478     LIBCMTD:heapinit.obj
 0004:0000947c       ?wsprintffp@@3P6AHPADPBDZZA 005f647c     LIBCMTD:_error_.obj
 0004:00009498       ___sbh_pHeaderDefer        005f6498     LIBCMTD:sbheap.obj
 0004:000094b4       ?pArgList@UnDecorator@@0PAVReplicator@@A 005f64b4     LIBCMTD:undname.obj
 0004:000094b8       ?pZNameList@UnDecorator@@0PAVReplicator@@A 005f64b8     LIBCMTD:undname.obj
 0004:000094bc       ?pTemplateArgList@UnDecorator@@0PAVReplicator@@A 005f64bc     LIBCMTD:undname.obj
 0004:000094c0       ?gName@UnDecorator@@0PBDB  005f64c0     LIBCMTD:undname.obj
 0004:000094c4       ?name@UnDecorator@@0PBDB   005f64c4     LIBCMTD:undname.obj
 0004:000094c8       ?outputString@UnDecorator@@0PADA 005f64c8     LIBCMTD:undname.obj
 0004:000094cc       ?maxStringLength@UnDecorator@@0HA 005f64cc     LIBCMTD:undname.obj
 0004:000094d0       ?disableFlags@UnDecorator@@0KA 005f64d0     LIBCMTD:undname.obj
 0004:000094d4       ?m_pGetParameter@UnDecorator@@0P6APADJ@ZA 005f64d4     LIBCMTD:undname.obj
 0004:000094d8       ?fExplicitTemplateParams@UnDecorator@@0_NA 005f64d8     LIBCMTD:undname.obj
 0004:000094d9       ?fGetTemplateArgumentList@UnDecorator@@0_NA 005f64d9     LIBCMTD:undname.obj
 0004:00009548       ?nodes@?1??make@DNameStatusNode@@SAPAV2@W4DNameStatus@@@Z@4PAV2@A 005f6548     LIBCMTD:undname.obj
 0004:00009584       ??_B?1??make@DNameStatusNode@@SAPAV1@W4DNameStatus@@@Z@51 005f6584     LIBCMTD:undname.obj
 0004:00009588       __outputformat             005f6588     LIBCMTD:outputformat.obj
 0004:000095a0       __fmode                    005f65a0     LIBCMTD:txtmode.obj
 0004:000095a4       ___sbh_initialized         005f65a4     <common>
 0004:000095b8       ___sbh_cntHeaderList       005f65b8     <common>
 0004:000095bc       ___sbh_pHeaderList         005f65bc     <common>
 0004:000095c0       ___sbh_threshold           005f65c0     <common>
 0004:000095c4       ___sbh_pHeaderScan         005f65c4     <common>
 0004:000095c8       ___sbh_sizeHeaderList      005f65c8     <common>
 0004:000095cc       ___sbh_indGroupDefer       005f65cc     <common>
 0004:000095d0       ___active_heap             005f65d0     <common>
 0004:000095dc       __nhandle                  005f65dc     <common>
 0004:00009620       ___pioinfo                 005f6620     <common>
 0004:00009720       ___use_sse2_mathfcns       005f6720     <common>
 0004:0000972c       __pmatherr                 005f672c     <common>
 0004:00009738       __pfnReportHook            005f6738     <common>
 0004:00009748       __pReportHookListW         005f6748     <common>
 0004:0000974c       __pReportHookList          005f674c     <common>
 0004:00009750       __debugger_hook_dummy      005f6750     <common>
 0004:0000975c       ___sse2_available          005f675c     <common>
 0004:00009768       ___setlc_active            005f6768     <common>
 0004:00009778       ___unguarded_readlc_active 005f6778     <common>
 0004:0000977c       __acmdln                   005f677c     <common>
 0004:00009788       ___env_initialized         005f6788     <common>
 0004:00009798       ___onexitend               005f6798     <common>
 0004:0000979c       ___onexitbegin             005f679c     <common>
 0004:000097a0       ___mbctype_initialized     005f67a0     <common>
 0004:000097a4       ___dyn_tls_init_callback   005f67a4     <common>
 0004:000097a8       ___piob                    005f67a8     <common>
 0004:00009b00       __bufin                    005f6b00     <common>
 0004:0000ab00       __nstream                  005f7b00     <common>
 0005:00000000       __IMPORT_DESCRIPTOR_COMCTL32 005f8000     comctl32:COMCTL32.dll
 0005:00000014       __IMPORT_DESCRIPTOR_WINMM  005f8014     winmm:WINMM.dll
 0005:00000028       __IMPORT_DESCRIPTOR_WSOCK32 005f8028     wsock32:WSOCK32.dll
 0005:0000003c       __IMPORT_DESCRIPTOR_KERNEL32 005f803c     kernel32:KERNEL32.dll
 0005:00000050       __IMPORT_DESCRIPTOR_USER32 005f8050     user32:USER32.dll
 0005:00000064       __IMPORT_DESCRIPTOR_GDI32  005f8064     gdi32:GDI32.dll
 0005:00000078       __IMPORT_DESCRIPTOR_COMDLG32 005f8078     comdlg32:COMDLG32.dll
 0005:0000008c       __IMPORT_DESCRIPTOR_ADVAPI32 005f808c     advapi32:ADVAPI32.dll
 0005:000000a0       __IMPORT_DESCRIPTOR_SHELL32 005f80a0     shell32:SHELL32.dll
 0005:000000b4       __IMPORT_DESCRIPTOR_IPHLPAPI 005f80b4     iphlpapi:IPHLPAPI.DLL
 0005:000000c8       __IMPORT_DESCRIPTOR_IMM32  005f80c8     imm32:IMM32.dll
 0005:000000dc       __NULL_IMPORT_DESCRIPTOR   005f80dc     comctl32:COMCTL32.dll
 0005:00000990       __imp__RegQueryValueExA@24 005f8990     advapi32:ADVAPI32.dll
 0005:00000994       __imp__RegCreateKeyA@12    005f8994     advapi32:ADVAPI32.dll
 0005:00000998       __imp__RegCreateKeyExA@36  005f8998     advapi32:ADVAPI32.dll
 0005:0000099c       __imp__RegSetValueExA@24   005f899c     advapi32:ADVAPI32.dll
 0005:000009a0       __imp__RegDeleteValueA@8   005f89a0     advapi32:ADVAPI32.dll
 0005:000009a4       __imp__RegOpenKeyA@12      005f89a4     advapi32:ADVAPI32.dll
 0005:000009a8       __imp__RegSetValueA@20     005f89a8     advapi32:ADVAPI32.dll
 0005:000009ac       __imp__RegQueryInfoKeyA@48 005f89ac     advapi32:ADVAPI32.dll
 0005:000009b0       __imp__RegEnumValueA@32    005f89b0     advapi32:ADVAPI32.dll
 0005:000009b4       __imp__RegCloseKey@4       005f89b4     advapi32:ADVAPI32.dll
 0005:000009b8       \177ADVAPI32_NULL_THUNK_DATA 005f89b8     advapi32:ADVAPI32.dll
 0005:000009ec       __imp__ImageList_ReplaceIcon@12 005f89ec     comctl32:COMCTL32.dll
 0005:000009f0       __imp__CreateStatusWindowA@16 005f89f0     comctl32:COMCTL32.dll
 0005:000009f4       __imp__InitCommonControls@0 005f89f4     comctl32:COMCTL32.dll
 0005:000009f8       __imp__ImageList_Create@20 005f89f8     comctl32:COMCTL32.dll
 0005:000009fc       __imp__CreateToolbarEx@52  005f89fc     comctl32:COMCTL32.dll
 0005:00000a00       \177COMCTL32_NULL_THUNK_DATA 005f8a00     comctl32:COMCTL32.dll
 0005:00000a30       __imp__GetSaveFileNameA@4  005f8a30     comdlg32:COMDLG32.dll
 0005:00000a34       __imp__CommDlgExtendedError@0 005f8a34     comdlg32:COMDLG32.dll
 0005:00000a38       __imp__GetOpenFileNameA@4  005f8a38     comdlg32:COMDLG32.dll
 0005:00000a3c       \177COMDLG32_NULL_THUNK_DATA 005f8a3c     comdlg32:COMDLG32.dll
 0005:00000a68       __imp__RealizePalette@4    005f8a68     gdi32:GDI32.dll
 0005:00000a6c       __imp__SelectPalette@12    005f8a6c     gdi32:GDI32.dll
 0005:00000a70       __imp__SetDIBColorTable@16 005f8a70     gdi32:GDI32.dll
 0005:00000a74       __imp__CreateDIBSection@24 005f8a74     gdi32:GDI32.dll
 0005:00000a78       __imp__CombineRgn@16       005f8a78     gdi32:GDI32.dll
 0005:00000a7c       __imp__CreateRectRgn@16    005f8a7c     gdi32:GDI32.dll
 0005:00000a80       __imp__GetStockObject@4    005f8a80     gdi32:GDI32.dll
 0005:00000a84       __imp__UpdateColors@4      005f8a84     gdi32:GDI32.dll
 0005:00000a88       __imp__CreatePalette@4     005f8a88     gdi32:GDI32.dll
 0005:00000a8c       __imp__SetBrushOrgEx@16    005f8a8c     gdi32:GDI32.dll
 0005:00000a90       __imp__ExtTextOutA@32      005f8a90     gdi32:GDI32.dll
 0005:00000a94       __imp__SetPixelV@16        005f8a94     gdi32:GDI32.dll
 0005:00000a98       __imp__CreateRectRgnIndirect@4 005f8a98     gdi32:GDI32.dll
 0005:00000a9c       __imp__GdiFlush@0          005f8a9c     gdi32:GDI32.dll
 0005:00000aa0       __imp__Rectangle@20        005f8aa0     gdi32:GDI32.dll
 0005:00000aa4       __imp__CreateFontA@56      005f8aa4     gdi32:GDI32.dll
 0005:00000aa8       __imp__CreatePolygonRgn@12 005f8aa8     gdi32:GDI32.dll
 0005:00000aac       __imp__LineTo@12           005f8aac     gdi32:GDI32.dll
 0005:00000ab0       __imp__MoveToEx@16         005f8ab0     gdi32:GDI32.dll
 0005:00000ab4       __imp__CreatePen@12        005f8ab4     gdi32:GDI32.dll
 0005:00000ab8       __imp__SetROP2@8           005f8ab8     gdi32:GDI32.dll
 0005:00000abc       __imp__CreateCompatibleBitmap@12 005f8abc     gdi32:GDI32.dll
 0005:00000ac0       __imp__SetBkColor@8        005f8ac0     gdi32:GDI32.dll
 0005:00000ac4       __imp__SetStretchBltMode@8 005f8ac4     gdi32:GDI32.dll
 0005:00000ac8       __imp__GetDeviceCaps@8     005f8ac8     gdi32:GDI32.dll
 0005:00000acc       __imp__CreateFontIndirectA@4 005f8acc     gdi32:GDI32.dll
 0005:00000ad0       __imp__SetTextColor@8      005f8ad0     gdi32:GDI32.dll
 0005:00000ad4       __imp__SetBkMode@8         005f8ad4     gdi32:GDI32.dll
 0005:00000ad8       __imp__GetClipBox@8        005f8ad8     gdi32:GDI32.dll
 0005:00000adc       __imp__CreateCompatibleDC@4 005f8adc     gdi32:GDI32.dll
 0005:00000ae0       __imp__CreateSolidBrush@4  005f8ae0     gdi32:GDI32.dll
 0005:00000ae4       __imp__SelectObject@8      005f8ae4     gdi32:GDI32.dll
 0005:00000ae8       __imp__PatBlt@24           005f8ae8     gdi32:GDI32.dll
 0005:00000aec       __imp__BitBlt@36           005f8aec     gdi32:GDI32.dll
 0005:00000af0       __imp__DeleteObject@4      005f8af0     gdi32:GDI32.dll
 0005:00000af4       __imp__StretchBlt@44       005f8af4     gdi32:GDI32.dll
 0005:00000af8       __imp__DeleteDC@4          005f8af8     gdi32:GDI32.dll
 0005:00000afc       \177GDI32_NULL_THUNK_DATA  005f8afc     gdi32:GDI32.dll
 0005:00000b44       __imp__ImmAssociateContext@8 005f8b44     imm32:IMM32.dll
 0005:00000b48       \177IMM32_NULL_THUNK_DATA  005f8b48     imm32:IMM32.dll
 0005:00000b74       __imp__GetAdaptersInfo@8   005f8b74     iphlpapi:IPHLPAPI.DLL
 0005:00000b78       \177IPHLPAPI_NULL_THUNK_DATA 005f8b78     iphlpapi:IPHLPAPI.DLL
 0005:00000ba4       __imp__GetDriveTypeA@4     005f8ba4     kernel32:KERNEL32.dll
 0005:00000ba8       __imp__GetLogicalDriveStringsA@8 005f8ba8     kernel32:KERNEL32.dll
 0005:00000bac       __imp__CreateFileA@28      005f8bac     kernel32:KERNEL32.dll
 0005:00000bb0       __imp__WriteFile@20        005f8bb0     kernel32:KERNEL32.dll
 0005:00000bb4       __imp__SetFilePointer@16   005f8bb4     kernel32:KERNEL32.dll
 0005:00000bb8       __imp__SetFileTime@16      005f8bb8     kernel32:KERNEL32.dll
 0005:00000bbc       __imp__SystemTimeToFileTime@8 005f8bbc     kernel32:KERNEL32.dll
 0005:00000bc0       __imp__FlushFileBuffers@4  005f8bc0     kernel32:KERNEL32.dll
 0005:00000bc4       __imp__SetEndOfFile@4      005f8bc4     kernel32:KERNEL32.dll
 0005:00000bc8       __imp__GetFileTime@16      005f8bc8     kernel32:KERNEL32.dll
 0005:00000bcc       __imp__ReadFile@20         005f8bcc     kernel32:KERNEL32.dll
 0005:00000bd0       __imp__MoveFileA@8         005f8bd0     kernel32:KERNEL32.dll
 0005:00000bd4       __imp__CreateDirectoryA@8  005f8bd4     kernel32:KERNEL32.dll
 0005:00000bd8       __imp__CompareFileTime@8   005f8bd8     kernel32:KERNEL32.dll
 0005:00000bdc       __imp__lstrcmpiA@8         005f8bdc     kernel32:KERNEL32.dll
 0005:00000be0       __imp__lstrcpyA@8          005f8be0     kernel32:KERNEL32.dll
 0005:00000be4       __imp__MulDiv@12           005f8be4     kernel32:KERNEL32.dll
 0005:00000be8       __imp__GetStdHandle@4      005f8be8     kernel32:KERNEL32.dll
 0005:00000bec       __imp__AllocConsole@0      005f8bec     kernel32:KERNEL32.dll
 0005:00000bf0       __imp__WriteConsoleA@20    005f8bf0     kernel32:KERNEL32.dll
 0005:00000bf4       __imp__OutputDebugStringA@4 005f8bf4     kernel32:KERNEL32.dll
 0005:00000bf8       __imp__GetComputerNameA@8  005f8bf8     kernel32:KERNEL32.dll
 0005:00000bfc       __imp__SearchPathA@24      005f8bfc     kernel32:KERNEL32.dll
 0005:00000c00       __imp__GlobalFree@4        005f8c00     kernel32:KERNEL32.dll
 0005:00000c04       __imp__InitializeCriticalSection@4 005f8c04     kernel32:KERNEL32.dll
 0005:00000c08       __imp__DeleteCriticalSection@4 005f8c08     kernel32:KERNEL32.dll
 0005:00000c0c       __imp__EnterCriticalSection@4 005f8c0c     kernel32:KERNEL32.dll
 0005:00000c10       __imp__LeaveCriticalSection@4 005f8c10     kernel32:KERNEL32.dll
 0005:00000c14       __imp__ReleaseSemaphore@12 005f8c14     kernel32:KERNEL32.dll
 0005:00000c18       __imp__CreateSemaphoreA@16 005f8c18     kernel32:KERNEL32.dll
 0005:00000c1c       __imp__SetThreadPriority@8 005f8c1c     kernel32:KERNEL32.dll
 0005:00000c20       __imp__TlsSetValue@8       005f8c20     kernel32:KERNEL32.dll
 0005:00000c24       __imp__GetCurrentThreadId@0 005f8c24     kernel32:KERNEL32.dll
 0005:00000c28       __imp__DuplicateHandle@28  005f8c28     kernel32:KERNEL32.dll
 0005:00000c2c       __imp__GetCurrentThread@0  005f8c2c     kernel32:KERNEL32.dll
 0005:00000c30       __imp__GetCurrentProcess@0 005f8c30     kernel32:KERNEL32.dll
 0005:00000c34       __imp__TlsAlloc@0          005f8c34     kernel32:KERNEL32.dll
 0005:00000c38       __imp__TlsGetValue@4       005f8c38     kernel32:KERNEL32.dll
 0005:00000c3c       __imp__GetSystemTime@4     005f8c3c     kernel32:KERNEL32.dll
 0005:00000c40       __imp__GetEnvironmentStringsW@0 005f8c40     kernel32:KERNEL32.dll
 0005:00000c44       __imp__FreeEnvironmentStringsW@4 005f8c44     kernel32:KERNEL32.dll
 0005:00000c48       __imp__GetEnvironmentStrings@0 005f8c48     kernel32:KERNEL32.dll
 0005:00000c4c       __imp__CopyFileA@12        005f8c4c     kernel32:KERNEL32.dll
 0005:00000c50       __imp__GetCurrentProcessId@0 005f8c50     kernel32:KERNEL32.dll
 0005:00000c54       __imp__lstrlenA@4          005f8c54     kernel32:KERNEL32.dll
 0005:00000c58       __imp__InitializeCriticalSectionAndSpinCount@8 005f8c58     kernel32:KERNEL32.dll
 0005:00000c5c       __imp__GetConsoleMode@8    005f8c5c     kernel32:KERNEL32.dll
 0005:00000c60       __imp__GetConsoleCP@0      005f8c60     kernel32:KERNEL32.dll
 0005:00000c64       __imp__SetHandleCount@4    005f8c64     kernel32:KERNEL32.dll
 0005:00000c68       __imp__IsValidCodePage@4   005f8c68     kernel32:KERNEL32.dll
 0005:00000c6c       __imp__GetOEMCP@0          005f8c6c     kernel32:KERNEL32.dll
 0005:00000c70       __imp__GetACP@0            005f8c70     kernel32:KERNEL32.dll
 0005:00000c74       __imp__LoadLibraryW@4      005f8c74     kernel32:KERNEL32.dll
 0005:00000c78       __imp__SetConsoleCtrlHandler@8 005f8c78     kernel32:KERNEL32.dll
 0005:00000c7c       __imp__OutputDebugStringW@4 005f8c7c     kernel32:KERNEL32.dll
 0005:00000c80       __imp__DebugBreak@0        005f8c80     kernel32:KERNEL32.dll
 0005:00000c84       __imp__SetLastError@4      005f8c84     kernel32:KERNEL32.dll
 0005:00000c88       __imp__TlsFree@4           005f8c88     kernel32:KERNEL32.dll
 0005:00000c8c       __imp__FatalAppExitA@8     005f8c8c     kernel32:KERNEL32.dll
 0005:00000c90       __imp__GetCPInfo@8         005f8c90     kernel32:KERNEL32.dll
 0005:00000c94       __imp__LCMapStringW@24     005f8c94     kernel32:KERNEL32.dll
 0005:00000c98       __imp__LCMapStringA@24     005f8c98     kernel32:KERNEL32.dll
 0005:00000c9c       __imp__IsBadReadPtr@8      005f8c9c     kernel32:KERNEL32.dll
 0005:00000ca0       __imp__HeapValidate@12     005f8ca0     kernel32:KERNEL32.dll
 0005:00000ca4       __imp__ExitThread@4        005f8ca4     kernel32:KERNEL32.dll
 0005:00000ca8       __imp__GetStartupInfoA@4   005f8ca8     kernel32:KERNEL32.dll
 0005:00000cac       __imp__GetCommandLineA@0   005f8cac     kernel32:KERNEL32.dll
 0005:00000cb0       __imp__ExitProcess@4       005f8cb0     kernel32:KERNEL32.dll
 0005:00000cb4       __imp__GetModuleHandleW@4  005f8cb4     kernel32:KERNEL32.dll
 0005:00000cb8       __imp__GetFullPathNameA@16 005f8cb8     kernel32:KERNEL32.dll
 0005:00000cbc       __imp__GetFileAttributesA@4 005f8cbc     kernel32:KERNEL32.dll
 0005:00000cc0       __imp__SetStdHandle@8      005f8cc0     kernel32:KERNEL32.dll
 0005:00000cc4       __imp__GetTimeZoneInformation@4 005f8cc4     kernel32:KERNEL32.dll
 0005:00000cc8       __imp__GetLocalTime@4      005f8cc8     kernel32:KERNEL32.dll
 0005:00000ccc       __imp__GetSystemTimeAsFileTime@4 005f8ccc     kernel32:KERNEL32.dll
 0005:00000cd0       __imp__GetFileType@4       005f8cd0     kernel32:KERNEL32.dll
 0005:00000cd4       __imp__WriteConsoleW@20    005f8cd4     kernel32:KERNEL32.dll
 0005:00000cd8       __imp__GetModuleFileNameW@12 005f8cd8     kernel32:KERNEL32.dll
 0005:00000cdc       __imp__IsDebuggerPresent@0 005f8cdc     kernel32:KERNEL32.dll
 0005:00000ce0       __imp__SetUnhandledExceptionFilter@4 005f8ce0     kernel32:KERNEL32.dll
 0005:00000ce4       __imp__UnhandledExceptionFilter@4 005f8ce4     kernel32:KERNEL32.dll
 0005:00000ce8       __imp__TerminateProcess@8  005f8ce8     kernel32:KERNEL32.dll
 0005:00000cec       __imp__RaiseException@16   005f8cec     kernel32:KERNEL32.dll
 0005:00000cf0       __imp__RtlUnwind@16        005f8cf0     kernel32:KERNEL32.dll
 0005:00000cf4       __imp__InterlockedCompareExchange@12 005f8cf4     kernel32:KERNEL32.dll
 0005:00000cf8       __imp__MultiByteToWideChar@24 005f8cf8     kernel32:KERNEL32.dll
 0005:00000cfc       __imp__InterlockedExchange@8 005f8cfc     kernel32:KERNEL32.dll
 0005:00000d00       __imp__InterlockedDecrement@4 005f8d00     kernel32:KERNEL32.dll
 0005:00000d04       __imp__InterlockedIncrement@4 005f8d04     kernel32:KERNEL32.dll
 0005:00000d08       __imp__QueryPerformanceCounter@4 005f8d08     kernel32:KERNEL32.dll
 0005:00000d0c       __imp__QueryPerformanceFrequency@4 005f8d0c     kernel32:KERNEL32.dll
 0005:00000d10       __imp__FileTimeToLocalFileTime@8 005f8d10     kernel32:KERNEL32.dll
 0005:00000d14       __imp__FileTimeToSystemTime@8 005f8d14     kernel32:KERNEL32.dll
 0005:00000d18       __imp__GetTickCount@0      005f8d18     kernel32:KERNEL32.dll
 0005:00000d1c       __imp__SetErrorMode@4      005f8d1c     kernel32:KERNEL32.dll
 0005:00000d20       __imp__LoadLibraryA@4      005f8d20     kernel32:KERNEL32.dll
 0005:00000d24       __imp__GetProcAddress@8    005f8d24     kernel32:KERNEL32.dll
 0005:00000d28       __imp__FreeLibrary@4       005f8d28     kernel32:KERNEL32.dll
 0005:00000d2c       __imp__DeleteFileA@4       005f8d2c     kernel32:KERNEL32.dll
 0005:00000d30       __imp__GetModuleFileNameA@12 005f8d30     kernel32:KERNEL32.dll
 0005:00000d34       __imp__FindFirstFileA@8    005f8d34     kernel32:KERNEL32.dll
 0005:00000d38       __imp__FindNextFileA@8     005f8d38     kernel32:KERNEL32.dll
 0005:00000d3c       __imp__FindClose@4         005f8d3c     kernel32:KERNEL32.dll
 0005:00000d40       __imp__WideCharToMultiByte@32 005f8d40     kernel32:KERNEL32.dll
 0005:00000d44       __imp__GetPrivateProfileStringA@24 005f8d44     kernel32:KERNEL32.dll
 0005:00000d48       __imp__GetPrivateProfileIntA@16 005f8d48     kernel32:KERNEL32.dll
 0005:00000d4c       __imp__WritePrivateProfileStringA@16 005f8d4c     kernel32:KERNEL32.dll
 0005:00000d50       __imp__GlobalAlloc@8       005f8d50     kernel32:KERNEL32.dll
 0005:00000d54       __imp__GlobalLock@4        005f8d54     kernel32:KERNEL32.dll
 0005:00000d58       __imp__GlobalUnlock@4      005f8d58     kernel32:KERNEL32.dll
 0005:00000d5c       __imp__GetLastError@0      005f8d5c     kernel32:KERNEL32.dll
 0005:00000d60       __imp__FormatMessageA@28   005f8d60     kernel32:KERNEL32.dll
 0005:00000d64       __imp__LocalFree@4         005f8d64     kernel32:KERNEL32.dll
 0005:00000d68       __imp__Beep@8              005f8d68     kernel32:KERNEL32.dll
 0005:00000d6c       __imp__CloseHandle@4       005f8d6c     kernel32:KERNEL32.dll
 0005:00000d70       __imp__WaitForSingleObject@8 005f8d70     kernel32:KERNEL32.dll
 0005:00000d74       __imp__SetEvent@4          005f8d74     kernel32:KERNEL32.dll
 0005:00000d78       __imp__CreateThread@24     005f8d78     kernel32:KERNEL32.dll
 0005:00000d7c       __imp__ResumeThread@4      005f8d7c     kernel32:KERNEL32.dll
 0005:00000d80       __imp__Sleep@4             005f8d80     kernel32:KERNEL32.dll
 0005:00000d84       __imp__CreateEventA@16     005f8d84     kernel32:KERNEL32.dll
 0005:00000d88       __imp__GetVersionExA@4     005f8d88     kernel32:KERNEL32.dll
 0005:00000d8c       __imp__GetModuleHandleA@4  005f8d8c     kernel32:KERNEL32.dll
 0005:00000d90       __imp__VirtualQuery@12     005f8d90     kernel32:KERNEL32.dll
 0005:00000d94       __imp__HeapDestroy@4       005f8d94     kernel32:KERNEL32.dll
 0005:00000d98       __imp__HeapCreate@12       005f8d98     kernel32:KERNEL32.dll
 0005:00000d9c       __imp__HeapFree@12         005f8d9c     kernel32:KERNEL32.dll
 0005:00000da0       __imp__VirtualFree@12      005f8da0     kernel32:KERNEL32.dll
 0005:00000da4       __imp__HeapAlloc@12        005f8da4     kernel32:KERNEL32.dll
 0005:00000da8       __imp__HeapSize@12         005f8da8     kernel32:KERNEL32.dll
 0005:00000dac       __imp__HeapReAlloc@16      005f8dac     kernel32:KERNEL32.dll
 0005:00000db0       __imp__VirtualAlloc@16     005f8db0     kernel32:KERNEL32.dll
 0005:00000db4       __imp__GetTimeFormatA@24   005f8db4     kernel32:KERNEL32.dll
 0005:00000db8       __imp__GetDateFormatA@24   005f8db8     kernel32:KERNEL32.dll
 0005:00000dbc       __imp__GetStringTypeA@20   005f8dbc     kernel32:KERNEL32.dll
 0005:00000dc0       __imp__GetStringTypeW@16   005f8dc0     kernel32:KERNEL32.dll
 0005:00000dc4       __imp__GetLocaleInfoA@16   005f8dc4     kernel32:KERNEL32.dll
 0005:00000dc8       __imp__IsValidLocale@8     005f8dc8     kernel32:KERNEL32.dll
 0005:00000dcc       __imp__EnumSystemLocalesA@8 005f8dcc     kernel32:KERNEL32.dll
 0005:00000dd0       __imp__GetUserDefaultLCID@0 005f8dd0     kernel32:KERNEL32.dll
 0005:00000dd4       __imp__GetLocaleInfoW@16   005f8dd4     kernel32:KERNEL32.dll
 0005:00000dd8       __imp__CompareStringA@24   005f8dd8     kernel32:KERNEL32.dll
 0005:00000ddc       __imp__CompareStringW@24   005f8ddc     kernel32:KERNEL32.dll
 0005:00000de0       __imp__SetEnvironmentVariableA@8 005f8de0     kernel32:KERNEL32.dll
 0005:00000de4       __imp__GetConsoleOutputCP@0 005f8de4     kernel32:KERNEL32.dll
 0005:00000de8       __imp__GetCurrentDirectoryA@8 005f8de8     kernel32:KERNEL32.dll
 0005:00000dec       __imp__SetCurrentDirectoryA@4 005f8dec     kernel32:KERNEL32.dll
 0005:00000df0       __imp__GetProcessHeap@0    005f8df0     kernel32:KERNEL32.dll
 0005:00000df4       __imp__FreeEnvironmentStringsA@4 005f8df4     kernel32:KERNEL32.dll
 0005:00000df8       \177KERNEL32_NULL_THUNK_DATA 005f8df8     kernel32:KERNEL32.dll
 0005:00000e98       __imp__SHGetPathFromIDListA@8 005f8e98     shell32:SHELL32.dll
 0005:00000e9c       __imp__SHFileOperationA@4  005f8e9c     shell32:SHELL32.dll
 0005:00000ea0       __imp__Shell_NotifyIconA@8 005f8ea0     shell32:SHELL32.dll
 0005:00000ea4       __imp__SHGetSpecialFolderLocation@12 005f8ea4     shell32:SHELL32.dll
 0005:00000ea8       \177SHELL32_NULL_THUNK_DATA 005f8ea8     shell32:SHELL32.dll
 0005:00000ed4       __imp__SetWindowsHookExA@16 005f8ed4     user32:USER32.dll
 0005:00000ed8       __imp__GetWindowThreadProcessId@8 005f8ed8     user32:USER32.dll
 0005:00000edc       __imp__UnhookWindowsHookEx@4 005f8edc     user32:USER32.dll
 0005:00000ee0       __imp__CallNextHookEx@16   005f8ee0     user32:USER32.dll
 0005:00000ee4       __imp__GetScrollInfo@12    005f8ee4     user32:USER32.dll
 0005:00000ee8       __imp__CallWindowProcA@20  005f8ee8     user32:USER32.dll
 0005:00000eec       __imp__ReleaseCapture@0    005f8eec     user32:USER32.dll
 0005:00000ef0       __imp__ScreenToClient@8    005f8ef0     user32:USER32.dll
 0005:00000ef4       __imp__SetCaretBlinkTime@4 005f8ef4     user32:USER32.dll
 0005:00000ef8       __imp__GetCaretBlinkTime@0 005f8ef8     user32:USER32.dll
 0005:00000efc       __imp__SetCapture@4        005f8efc     user32:USER32.dll
 0005:00000f00       __imp__IsDlgButtonChecked@8 005f8f00     user32:USER32.dll
 0005:00000f04       __imp__GetMessageA@16      005f8f04     user32:USER32.dll
 0005:00000f08       __imp__LoadKeyboardLayoutA@8 005f8f08     user32:USER32.dll
 0005:00000f0c       __imp__GetKeyboardState@4  005f8f0c     user32:USER32.dll
 0005:00000f10       __imp__FillRect@12         005f8f10     user32:USER32.dll
 0005:00000f14       __imp__LoadBitmapA@8       005f8f14     user32:USER32.dll
 0005:00000f18       __imp__GetMenuStringA@20   005f8f18     user32:USER32.dll
 0005:00000f1c       __imp__ModifyMenuA@20      005f8f1c     user32:USER32.dll
 0005:00000f20       __imp__PtInRect@12         005f8f20     user32:USER32.dll
 0005:00000f24       __imp__GetDesktopWindow@0  005f8f24     user32:USER32.dll
 0005:00000f28       __imp__SetWindowRgn@12     005f8f28     user32:USER32.dll
 0005:00000f2c       __imp__WindowFromDC@4      005f8f2c     user32:USER32.dll
 0005:00000f30       __imp__MapWindowPoints@16  005f8f30     user32:USER32.dll
 0005:00000f34       __imp__IntersectRect@12    005f8f34     user32:USER32.dll
 0005:00000f38       __imp__GetSystemMetrics@4  005f8f38     user32:USER32.dll
 0005:00000f3c       __imp__FindWindowA@8       005f8f3c     user32:USER32.dll
 0005:00000f40       __imp__OpenDesktopA@16     005f8f40     user32:USER32.dll
 0005:00000f44       __imp__EnumDesktopWindows@12 005f8f44     user32:USER32.dll
 0005:00000f48       __imp__CloseDesktop@4      005f8f48     user32:USER32.dll
 0005:00000f4c       __imp__GetClassNameA@12    005f8f4c     user32:USER32.dll
 0005:00000f50       __imp__DestroyIcon@4       005f8f50     user32:USER32.dll
 0005:00000f54       __imp__GetKeyState@4       005f8f54     user32:USER32.dll
 0005:00000f58       __imp__GetWindowTextA@12   005f8f58     user32:USER32.dll
 0005:00000f5c       __imp__GetMenuItemCount@4  005f8f5c     user32:USER32.dll
 0005:00000f60       __imp__RemoveMenu@12       005f8f60     user32:USER32.dll
 0005:00000f64       __imp__GetParent@4         005f8f64     user32:USER32.dll
 0005:00000f68       __imp__SendDlgItemMessageA@20 005f8f68     user32:USER32.dll
 0005:00000f6c       __imp__PeekMessageA@20     005f8f6c     user32:USER32.dll
 0005:00000f70       __imp__DispatchMessageA@4  005f8f70     user32:USER32.dll
 0005:00000f74       __imp__DestroyMenu@4       005f8f74     user32:USER32.dll
 0005:00000f78       __imp__GetSubMenu@8        005f8f78     user32:USER32.dll
 0005:00000f7c       __imp__GetMenuItemID@8     005f8f7c     user32:USER32.dll
 0005:00000f80       __imp__SetMenuDefaultItem@12 005f8f80     user32:USER32.dll
 0005:00000f84       __imp__TrackPopupMenu@28   005f8f84     user32:USER32.dll
 0005:00000f88       __imp__LoadStringA@16      005f8f88     user32:USER32.dll
 0005:00000f8c       __imp__RegisterClassExA@4  005f8f8c     user32:USER32.dll
 0005:00000f90       __imp__LoadMenuA@8         005f8f90     user32:USER32.dll
 0005:00000f94       __imp__GetCursorPos@4      005f8f94     user32:USER32.dll
 0005:00000f98       __imp__SetCursorPos@8      005f8f98     user32:USER32.dll
 0005:00000f9c       __imp__RedrawWindow@16     005f8f9c     user32:USER32.dll
 0005:00000fa0       __imp__EmptyClipboard@0    005f8fa0     user32:USER32.dll
 0005:00000fa4       __imp__SetClipboardData@8  005f8fa4     user32:USER32.dll
 0005:00000fa8       __imp__GetClipboardOwner@0 005f8fa8     user32:USER32.dll
 0005:00000fac       __imp__OpenClipboard@4     005f8fac     user32:USER32.dll
 0005:00000fb0       __imp__GetClipboardData@4  005f8fb0     user32:USER32.dll
 0005:00000fb4       __imp__CloseClipboard@0    005f8fb4     user32:USER32.dll
 0005:00000fb8       __imp__RegisterWindowMessageA@4 005f8fb8     user32:USER32.dll
 0005:00000fbc       __imp__BeginPaint@8        005f8fbc     user32:USER32.dll
 0005:00000fc0       __imp__EndPaint@8          005f8fc0     user32:USER32.dll
 0005:00000fc4       __imp__GetFocus@0          005f8fc4     user32:USER32.dll
 0005:00000fc8       __imp__GetForegroundWindow@0 005f8fc8     user32:USER32.dll
 0005:00000fcc       __imp__GetWindow@8         005f8fcc     user32:USER32.dll
 0005:00000fd0       __imp__SetCursor@4         005f8fd0     user32:USER32.dll
 0005:00000fd4       __imp__IsWindow@4          005f8fd4     user32:USER32.dll
 0005:00000fd8       __imp__GetKeyNameTextA@12  005f8fd8     user32:USER32.dll
 0005:00000fdc       __imp__DefWindowProcA@16   005f8fdc     user32:USER32.dll
 0005:00000fe0       __imp__ToAscii@20          005f8fe0     user32:USER32.dll
 0005:00000fe4       __imp__keybd_event@16      005f8fe4     user32:USER32.dll
 0005:00000fe8       __imp__VkKeyScanW@4        005f8fe8     user32:USER32.dll
 0005:00000fec       __imp__EnableWindow@8      005f8fec     user32:USER32.dll
 0005:00000ff0       __imp__ToUnicode@24        005f8ff0     user32:USER32.dll
 0005:00000ff4       __imp__PostQuitMessage@4   005f8ff4     user32:USER32.dll
 0005:00000ff8       __imp__ChangeClipboardChain@8 005f8ff8     user32:USER32.dll
 0005:00000ffc       __imp__ShowScrollBar@12    005f8ffc     user32:USER32.dll
 0005:00001000       __imp__SetFocus@4          005f9000     user32:USER32.dll
 0005:00001004       __imp__LoadImageA@24       005f9004     user32:USER32.dll
 0005:00001008       __imp__IsRectEmpty@4       005f9008     user32:USER32.dll
 0005:0000100c       __imp__GetDlgItemInt@16    005f900c     user32:USER32.dll
 0005:00001010       __imp__SetTimer@16         005f9010     user32:USER32.dll
 0005:00001014       __imp__EnableMenuItem@12   005f9014     user32:USER32.dll
 0005:00001018       __imp__KillTimer@8         005f9018     user32:USER32.dll
 0005:0000101c       __imp__wsprintfA           005f901c     user32:USER32.dll
 0005:00001020       __imp__IsIconic@4          005f9020     user32:USER32.dll
 0005:00001024       __imp__InvalidateRgn@12    005f9024     user32:USER32.dll
 0005:00001028       __imp__GetKeyboardLayoutNameA@4 005f9028     user32:USER32.dll
 0005:0000102c       __imp__SetScrollInfo@16    005f902c     user32:USER32.dll
 0005:00001030       __imp__ScrollWindowEx@32   005f9030     user32:USER32.dll
 0005:00001034       __imp__DrawTextA@20        005f9034     user32:USER32.dll
 0005:00001038       __imp__InvalidateRect@12   005f9038     user32:USER32.dll
 0005:0000103c       __imp__SystemParametersInfoA@16 005f903c     user32:USER32.dll
 0005:00001040       __imp__SetRect@20          005f9040     user32:USER32.dll
 0005:00001044       __imp__AdjustWindowRectEx@16 005f9044     user32:USER32.dll
 0005:00001048       __imp__MoveWindow@24       005f9048     user32:USER32.dll
 0005:0000104c       __imp__SetWindowTextA@8    005f904c     user32:USER32.dll
 0005:00001050       __imp__UpdateWindow@4      005f9050     user32:USER32.dll
 0005:00001054       __imp__SetDlgItemInt@16    005f9054     user32:USER32.dll
 0005:00001058       __imp__GetSystemMenu@8     005f9058     user32:USER32.dll
 0005:0000105c       __imp__AppendMenuA@16      005f905c     user32:USER32.dll
 0005:00001060       __imp__DrawMenuBar@4       005f9060     user32:USER32.dll
 0005:00001064       __imp__CheckMenuItem@12    005f9064     user32:USER32.dll
 0005:00001068       __imp__SetClipboardViewer@4 005f9068     user32:USER32.dll
 0005:0000106c       __imp__LoadIconA@8         005f906c     user32:USER32.dll
 0005:00001070       __imp__LoadCursorA@8       005f9070     user32:USER32.dll
 0005:00001074       __imp__RegisterClassA@4    005f9074     user32:USER32.dll
 0005:00001078       __imp__GetDC@4             005f9078     user32:USER32.dll
 0005:0000107c       __imp__ReleaseDC@8         005f907c     user32:USER32.dll
 0005:00001080       __imp__GetWindowRect@8     005f9080     user32:USER32.dll
 0005:00001084       __imp__DestroyWindow@4     005f9084     user32:USER32.dll
 0005:00001088       __imp__GetClientRect@8     005f9088     user32:USER32.dll
 0005:0000108c       __imp__CreateWindowExA@48  005f908c     user32:USER32.dll
 0005:00001090       __imp__SetWindowPos@28     005f9090     user32:USER32.dll
 0005:00001094       __imp__ShowWindow@8        005f9094     user32:USER32.dll
 0005:00001098       __imp__PostMessageA@16     005f9098     user32:USER32.dll
 0005:0000109c       __imp__GetWindowLongA@8    005f909c     user32:USER32.dll
 0005:000010a0       __imp__SetWindowLongA@12   005f90a0     user32:USER32.dll
 0005:000010a4       __imp__GetDlgItem@8        005f90a4     user32:USER32.dll
 0005:000010a8       __imp__SendMessageA@16     005f90a8     user32:USER32.dll
 0005:000010ac       __imp__GetWindowTextLengthA@4 005f90ac     user32:USER32.dll
 0005:000010b0       __imp__MessageBoxA@16      005f90b0     user32:USER32.dll
 0005:000010b4       __imp__GetDlgItemTextA@16  005f90b4     user32:USER32.dll
 0005:000010b8       __imp__DestroyAcceleratorTable@4 005f90b8     user32:USER32.dll
 0005:000010bc       __imp__TranslateAcceleratorA@12 005f90bc     user32:USER32.dll
 0005:000010c0       __imp__CreateAcceleratorTableA@8 005f90c0     user32:USER32.dll
 0005:000010c4       __imp__SetForegroundWindow@4 005f90c4     user32:USER32.dll
 0005:000010c8       __imp__SetDlgItemTextA@12  005f90c8     user32:USER32.dll
 0005:000010cc       __imp__EndDialog@8         005f90cc     user32:USER32.dll
 0005:000010d0       __imp__DialogBoxParamA@20  005f90d0     user32:USER32.dll
 0005:000010d4       __imp__TranslateMessage@4  005f90d4     user32:USER32.dll
 0005:000010d8       \177USER32_NULL_THUNK_DATA 005f90d8     user32:USER32.dll
 0005:00001168       __imp__PlaySoundA@12       005f9168     winmm:WINMM.dll
 0005:0000116c       __imp__timeSetEvent@20     005f916c     winmm:WINMM.dll
 0005:00001170       __imp__timeKillEvent@4     005f9170     winmm:WINMM.dll
 0005:00001174       __imp__timeGetTime@0       005f9174     winmm:WINMM.dll
 0005:00001178       \177WINMM_NULL_THUNK_DATA  005f9178     winmm:WINMM.dll
 0005:000011a4       __imp__ioctlsocket@12      005f91a4     wsock32:WSOCK32.dll
 0005:000011a8       __imp__recv@16             005f91a8     wsock32:WSOCK32.dll
 0005:000011ac       __imp__bind@12             005f91ac     wsock32:WSOCK32.dll
 0005:000011b0       __imp__listen@8            005f91b0     wsock32:WSOCK32.dll
 0005:000011b4       __imp__WSAAsyncSelect@16   005f91b4     wsock32:WSOCK32.dll
 0005:000011b8       __imp__send@16             005f91b8     wsock32:WSOCK32.dll
 0005:000011bc       __imp__shutdown@8          005f91bc     wsock32:WSOCK32.dll
 0005:000011c0       __imp__accept@12           005f91c0     wsock32:WSOCK32.dll
 0005:000011c4       __imp__socket@12           005f91c4     wsock32:WSOCK32.dll
 0005:000011c8       __imp__inet_addr@4         005f91c8     wsock32:WSOCK32.dll
 0005:000011cc       __imp__gethostbyname@4     005f91cc     wsock32:WSOCK32.dll
 0005:000011d0       __imp__htons@4             005f91d0     wsock32:WSOCK32.dll
 0005:000011d4       __imp__connect@12          005f91d4     wsock32:WSOCK32.dll
 0005:000011d8       __imp__closesocket@4       005f91d8     wsock32:WSOCK32.dll
 0005:000011dc       __imp__getpeername@12      005f91dc     wsock32:WSOCK32.dll
 0005:000011e0       __imp__WSACleanup@0        005f91e0     wsock32:WSOCK32.dll
 0005:000011e4       __imp__WSAStartup@8        005f91e4     wsock32:WSOCK32.dll
 0005:000011e8       __imp__WSAGetLastError@0   005f91e8     wsock32:WSOCK32.dll
 0005:000011ec       __imp__setsockopt@20       005f91ec     wsock32:WSOCK32.dll
 0005:000011f0       __imp__select@20           005f91f0     wsock32:WSOCK32.dll
 0005:000011f4       \177WSOCK32_NULL_THUNK_DATA 005f91f4     wsock32:WSOCK32.dll

 entry point at        0002:000015d6

